
Discarded input sections

 .data          0x0000000000000000        0x0 arch/arm/cpu/armv7m/start.o
 .bss           0x0000000000000000        0x0 arch/arm/cpu/armv7m/start.o
 .text          0x0000000000000000        0x0 arch/arm/cpu/armv7m/built-in.o
 .text.disable_mpu
                0x0000000000000000       0x10 arch/arm/cpu/armv7m/built-in.o
 .text.enable_mpu
                0x0000000000000000       0x18 arch/arm/cpu/armv7m/built-in.o
 .text.mpu_config
                0x0000000000000000       0x4c arch/arm/cpu/armv7m/built-in.o
 .rodata.CSWTCH.1
                0x0000000000000000       0x1c arch/arm/cpu/armv7m/built-in.o
 .data          0x0000000000000000        0x0 arch/arm/cpu/armv7m/built-in.o
 .bss           0x0000000000000000        0x0 arch/arm/cpu/armv7m/built-in.o
 .text.setjmp   0x0000000000000000        0xc arch/arm/lib/built-in.o
 .text.longjmp  0x0000000000000000       0x14 arch/arm/lib/built-in.o
 .text.armv7_boot_nonsec_default
                0x0000000000000000        0x4 arch/arm/lib/built-in.o
 .text.enable_caches
                0x0000000000000000        0xc arch/arm/lib/built-in.o
 .text.invalidate_dcache_range
                0x0000000000000000        0x2 arch/arm/lib/built-in.o
 .text.flush_dcache_range
                0x0000000000000000        0x2 arch/arm/lib/built-in.o
 .text.flush_dcache_all
                0x0000000000000000        0xa arch/arm/lib/built-in.o
 .text.check_cache_range
                0x0000000000000000       0x20 arch/arm/lib/built-in.o
 .text.invalidate_l2_cache
                0x0000000000000000        0xc arch/arm/lib/built-in.o
 .text.fdt_psci
                0x0000000000000000        0x4 arch/arm/lib/built-in.o
 .rodata.enable_caches.str1.1
                0x0000000000000000       0x1d arch/arm/lib/built-in.o
 .rodata.check_cache_range.str1.1
                0x0000000000000000       0x35 arch/arm/lib/built-in.o
 .data          0x0000000000000000        0x0 arch/arm/lib/built-in.o
 .__efi_runtime_rel_start
                0x0000000000000000        0x0 arch/arm/lib/built-in.o
 .__efi_runtime_rel_stop
                0x0000000000000000        0x0 arch/arm/lib/built-in.o
 .__efi_runtime_start
                0x0000000000000000        0x0 arch/arm/lib/built-in.o
 .__efi_runtime_stop
                0x0000000000000000        0x0 arch/arm/lib/built-in.o
 .__secure_end  0x0000000000000000        0x0 arch/arm/lib/built-in.o
 .__secure_stack_end
                0x0000000000000000        0x0 arch/arm/lib/built-in.o
 .__secure_stack_start
                0x0000000000000000        0x0 arch/arm/lib/built-in.o
 .__secure_start
                0x0000000000000000        0x0 arch/arm/lib/built-in.o
 .bss           0x0000000000000000        0x0 arch/arm/lib/built-in.o
 .text          0x0000000000000000        0x0 arch/arm/mach-stm32/built-in.o
 .data          0x0000000000000000        0x0 arch/arm/mach-stm32/built-in.o
 .bss           0x0000000000000000        0x0 arch/arm/mach-stm32/built-in.o
 .text          0x0000000000000000        0x0 board/emcraft/stm32h7-som/built-in.o
 .data          0x0000000000000000        0x0 board/emcraft/stm32h7-som/built-in.o
 .bss           0x0000000000000000        0x0 board/emcraft/stm32h7-som/built-in.o
 .text          0x0000000000000000        0x0 cmd/built-in.o
 .text.do_go_exec
                0x0000000000000000        0x8 cmd/built-in.o
 .text.blk_common_cmd
                0x0000000000000000      0x1fc cmd/built-in.o
 .text.invalidate_icache_all
                0x0000000000000000        0xc cmd/built-in.o
 .text.flush_dcache_all
                0x0000000000000000        0xc cmd/built-in.o
 .rodata.blk_common_cmd.str1.1
                0x0000000000000000      0x101 cmd/built-in.o
 .rodata.invalidate_icache_all.str1.1
                0x0000000000000000       0x33 cmd/built-in.o
 .rodata.flush_dcache_all.str1.1
                0x0000000000000000       0x2e cmd/built-in.o
 .data          0x0000000000000000        0x0 cmd/built-in.o
 .bss           0x0000000000000000        0x0 cmd/built-in.o
 .text          0x0000000000000000        0x0 common/built-in.o
 .text.hash_parse_string
                0x0000000000000000       0x3c common/built-in.o
 .text.hash_block
                0x0000000000000000       0x4a common/built-in.o
 .text.unset_local_var
                0x0000000000000000       0x5c common/built-in.o
 .text.arch_cpu_init
                0x0000000000000000        0x4 common/built-in.o
 .text.dram_init_banksize
                0x0000000000000000        0x4 common/built-in.o
 .text.red_led_off
                0x0000000000000000        0x2 common/built-in.o
 .text.green_led_on
                0x0000000000000000        0x2 common/built-in.o
 .text.green_led_off
                0x0000000000000000        0x2 common/built-in.o
 .text.yellow_led_on
                0x0000000000000000        0x2 common/built-in.o
 .text.yellow_led_off
                0x0000000000000000        0x2 common/built-in.o
 .text.blue_led_on
                0x0000000000000000        0x2 common/built-in.o
 .text.blue_led_off
                0x0000000000000000        0x2 common/built-in.o
 .text.arch_reserve_stacks
                0x0000000000000000        0x4 common/built-in.o
 .text.fixup_cpu
                0x0000000000000000        0x4 common/built-in.o
 .text.board_quiesce_devices
                0x0000000000000000        0x2 common/built-in.o
 .text.bootm_disable_interrupts
                0x0000000000000000        0x4 common/built-in.o
 .text.switch_to_non_secure_mode
                0x0000000000000000        0x2 common/built-in.o
 .text.fdt_read_prop
                0x0000000000000000       0x3c common/built-in.o
 .text.fdt_getprop_u32_default_node
                0x0000000000000000       0x24 common/built-in.o
 .text.fdt_getprop_u32_default
                0x0000000000000000       0x24 common/built-in.o
 .text.do_fixup_by_path_u32
                0x0000000000000000       0x1a common/built-in.o
 .text.do_fixup_by_prop
                0x0000000000000000       0x64 common/built-in.o
 .text.do_fixup_by_prop_u32
                0x0000000000000000       0x22 common/built-in.o
 .text.do_fixup_by_compat
                0x0000000000000000       0x50 common/built-in.o
 .text.do_fixup_by_compat_u32
                0x0000000000000000       0x1a common/built-in.o
 .text.fdt_record_loadable
                0x0000000000000000       0xe8 common/built-in.o
 .text.fdt_increase_size
                0x0000000000000000       0x10 common/built-in.o
 .text.fdt_del_node_and_alias
                0x0000000000000000       0x30 common/built-in.o
 .text.fdt_node_offset_by_compat_reg
                0x0000000000000000       0x58 common/built-in.o
 .text.fdt_alloc_phandle
                0x0000000000000000       0x36 common/built-in.o
 .text.fdt_set_phandle
                0x0000000000000000       0x38 common/built-in.o
 .text.fdt_create_phandle
                0x0000000000000000       0x40 common/built-in.o
 .text.fdt_set_node_status
                0x0000000000000000       0x90 common/built-in.o
 .text.fdt_set_status_by_alias
                0x0000000000000000       0x1c common/built-in.o
 .text.fdt_verify_alias_address
                0x0000000000000000       0x88 common/built-in.o
 .text.fdt_get_base_address
                0x0000000000000000       0x28 common/built-in.o
 .text.fdt_read_range
                0x0000000000000000       0xc8 common/built-in.o
 .text.fdt_setup_simplefb_node
                0x0000000000000000      0x154 common/built-in.o
 .text.fdt_fixup_display
                0x0000000000000000       0x84 common/built-in.o
 .text.mdio_register_seq
                0x0000000000000000       0x24 common/built-in.o
 .text.mdio_get_list_head
                0x0000000000000000        0x8 common/built-in.o
 .text.iomux_printdevs
                0x0000000000000000       0x40 common/built-in.o
 .text.flash_protect
                0x0000000000000000       0x72 common/built-in.o
 .text.splash_screen_prepare
                0x0000000000000000        0x4 common/built-in.o
 .text.splash_get_pos
                0x0000000000000000       0x54 common/built-in.o
 .text.cli_simple_parse_line
                0x0000000000000000       0x54 common/built-in.o
 .text.cli_simple_process_macros
                0x0000000000000000      0x144 common/built-in.o
 .text.cli_simple_run_command
                0x0000000000000000       0xc8 common/built-in.o
 .text.cli_simple_loop
                0x0000000000000000       0x58 common/built-in.o
 .text.cli_simple_run_command_list
                0x0000000000000000       0x3a common/built-in.o
 .text.fgetc    0x0000000000000000        0xe common/built-in.o
 .text.ftstc    0x0000000000000000        0xe common/built-in.o
 .text.fputc    0x0000000000000000        0xa common/built-in.o
 .text.fputs    0x0000000000000000        0xa common/built-in.o
 .text.fprintf  0x0000000000000000       0x30 common/built-in.o
 .text.confirm_yesno
                0x0000000000000000       0x84 common/built-in.o
 .text.console_announce_r
                0x0000000000000000       0x64 common/built-in.o
 .text.valloc   0x0000000000000000        0xa common/built-in.o
 .text.pvalloc  0x0000000000000000       0x14 common/built-in.o
 .text.cfree    0x0000000000000000        0x4 common/built-in.o
 .text.malloc_usable_size
                0x0000000000000000       0x2a common/built-in.o
 .text.mallopt  0x0000000000000000       0x30 common/built-in.o
 .text.memalign_simple
                0x0000000000000000        0xa common/built-in.o
 .text.malloc_simple_info
                0x0000000000000000        0x2 common/built-in.o
 .text.image_check_hcrc
                0x0000000000000000       0x2a common/built-in.o
 .text.image_check_dcrc
                0x0000000000000000       0x22 common/built-in.o
 .text.genimg_get_short_name
                0x0000000000000000       0x14 common/built-in.o
 .text.genimg_get_cat_name
                0x0000000000000000       0x38 common/built-in.o
 .text.genimg_get_cat_short_name
                0x0000000000000000       0x38 common/built-in.o
 .text.genimg_get_cat_count
                0x0000000000000000       0x10 common/built-in.o
 .text.genimg_get_cat_desc
                0x0000000000000000       0x10 common/built-in.o
 .text.genimg_get_type_short_name
                0x0000000000000000        0xc common/built-in.o
 .text.image_print_contents
                0x0000000000000000      0x118 common/built-in.o
 .text.genimg_get_comp_short_name
                0x0000000000000000        0xc common/built-in.o
 .text.genimg_get_os_short_name
                0x0000000000000000        0xc common/built-in.o
 .text.genimg_get_arch_short_name
                0x0000000000000000        0xc common/built-in.o
 .text.genimg_get_kernel_addr
                0x0000000000000000       0x16 common/built-in.o
 .text.arch_fixup_fdt
                0x0000000000000000        0x4 common/built-in.o
 .text.fit_get_subimage_count
                0x0000000000000000       0x2c common/built-in.o
 .text.fit_get_timestamp
                0x0000000000000000       0x30 common/built-in.o
 .text.fit_set_timestamp
                0x0000000000000000       0x2c common/built-in.o
 .text.fit_conf_find_compat
                0x0000000000000000       0xf4 common/built-in.o
 .text.fit_conf_get_prop_node_count
                0x0000000000000000        0x4 common/built-in.o
 .text.get_ram_size
                0x0000000000000000       0xa2 common/built-in.o
 .text.stdio_init
                0x0000000000000000        0xe common/built-in.o
 .text.run_command_repeatable
                0x0000000000000000       0x12 common/built-in.o
 .rodata.fdt_record_loadable.str1.1
                0x0000000000000000       0x2e common/built-in.o
 .rodata.fdt_set_phandle.str1.1
                0x0000000000000000       0x16 common/built-in.o
 .rodata.fdt_create_phandle.str1.1
                0x0000000000000000       0x1a common/built-in.o
 .rodata.fdt_set_node_status.str1.1
                0x0000000000000000       0x3a common/built-in.o
 .rodata.fdt_verify_alias_address.str1.1
                0x0000000000000000       0xcc common/built-in.o
 .rodata.fdt_read_range.str1.1
                0x0000000000000000        0xf common/built-in.o
 .rodata.fdt_setup_simplefb_node.str1.1
                0x0000000000000000       0x2c common/built-in.o
 .rodata.fdt_fixup_display.str1.1
                0x0000000000000000       0x1c common/built-in.o
 .rodata.__func__.1
                0x0000000000000000       0x14 common/built-in.o
 .rodata.mdio_register_seq.str1.1
                0x0000000000000000        0x6 common/built-in.o
 .rodata.iomux_printdevs.str1.1
                0x0000000000000000        0x6 common/built-in.o
 .rodata.splash_get_pos.str1.1
                0x0000000000000000        0xa common/built-in.o
 .rodata.cli_simple_parse_line.str1.1
                0x0000000000000000       0x1f common/built-in.o
 .rodata.cli_simple_run_command.str1.1
                0x0000000000000000       0x16 common/built-in.o
 .rodata.cli_simple_loop.str1.1
                0x0000000000000000       0x23 common/built-in.o
 .rodata.confirm_yesno.str1.1
                0x0000000000000000       0x10 common/built-in.o
 .rodata.genimg_get_short_name.str1.1
                0x0000000000000000        0x8 common/built-in.o
 .rodata.image_print_contents.str1.1
                0x0000000000000000       0xd4 common/built-in.o
 .rodata.table_info
                0x0000000000000000       0x30 common/built-in.o
 .rodata.unknown_str.0
                0x0000000000000000        0x9 common/built-in.o
 .rodata.fit_get_timestamp.str1.1
                0x0000000000000000        0xa common/built-in.o
 .rodata.fit_conf_find_compat.str1.1
                0x0000000000000000        0xb common/built-in.o
 .data          0x0000000000000000        0x0 common/built-in.o
 .bss           0x0000000000000000        0x0 common/built-in.o
 .bss.lastcommand.0
                0x0000000000000000      0x101 common/built-in.o
 .bss.msg.1     0x0000000000000000       0x1e common/built-in.o
 .bss.save_addr
                0x0000000000000000        0x4 common/built-in.o
 .bss.save_size
                0x0000000000000000        0x4 common/built-in.o
 .text          0x0000000000000000        0x0 disk/built-in.o
 .text.part_get_info_by_name_type
                0x0000000000000000       0x48 disk/built-in.o
 .text.part_get_info_by_name
                0x0000000000000000        0x8 disk/built-in.o
 .text.is_valid_dos_buf
                0x0000000000000000       0x10 disk/built-in.o
 .text.write_mbr_partition
                0x0000000000000000       0x44 disk/built-in.o
 .text.is_valid_gpt_buf
                0x0000000000000000       0x4e disk/built-in.o
 .text.write_mbr_and_gpt_partitions
                0x0000000000000000      0x2f0 disk/built-in.o
 .rodata.write_mbr_partition.str1.1
                0x0000000000000000       0x2d disk/built-in.o
 .rodata.__func__.0
                0x0000000000000000       0x31 disk/built-in.o
 .rodata.write_mbr_and_gpt_partitions.str1.1
                0x0000000000000000       0x7c disk/built-in.o
 .data          0x0000000000000000        0x0 disk/built-in.o
 .bss           0x0000000000000000        0x0 disk/built-in.o
 .text          0x0000000000000000        0x0 drivers/built-in.o
 .text.clk_enable_bulk
                0x0000000000000000       0x2a drivers/built-in.o
 .text.clk_release_all
                0x0000000000000000       0x3a drivers/built-in.o
 .text.clk_get_bulk
                0x0000000000000000       0x70 drivers/built-in.o
 .text.clk_disable_bulk
                0x0000000000000000       0x2a drivers/built-in.o
 .text._device_find_global_by_ofnode
                0x0000000000000000       0x2e drivers/built-in.o
 .text.device_bind
                0x0000000000000000       0x16 drivers/built-in.o
 .text.device_bind_ofnode
                0x0000000000000000       0x16 drivers/built-in.o
 .text.device_get_child
                0x0000000000000000       0x30 drivers/built-in.o
 .text.device_find_child_by_seq
                0x0000000000000000       0x3a drivers/built-in.o
 .text.device_get_child_by_seq
                0x0000000000000000       0x30 drivers/built-in.o
 .text.device_find_child_by_of_offset
                0x0000000000000000       0x2e drivers/built-in.o
 .text.device_get_child_by_of_offset
                0x0000000000000000       0x20 drivers/built-in.o
 .text.device_find_global_by_ofnode
                0x0000000000000000       0x1e drivers/built-in.o
 .text.device_get_global_by_ofnode
                0x0000000000000000       0x24 drivers/built-in.o
 .text.device_find_first_inactive_child
                0x0000000000000000       0x3a drivers/built-in.o
 .text.device_find_first_child_by_uclass
                0x0000000000000000       0x32 drivers/built-in.o
 .text.device_find_child_by_name
                0x0000000000000000       0x32 drivers/built-in.o
 .text.dev_get_driver_ops
                0x0000000000000000        0x8 drivers/built-in.o
 .text.dev_get_uclass_name
                0x0000000000000000        0xa drivers/built-in.o
 .text.device_has_children
                0x0000000000000000        0xe drivers/built-in.o
 .text.device_has_active_children
                0x0000000000000000       0x24 drivers/built-in.o
 .text.device_is_last_sibling
                0x0000000000000000       0x12 drivers/built-in.o
 .text.device_set_name
                0x0000000000000000       0x20 drivers/built-in.o
 .text.of_machine_is_compatible
                0x0000000000000000       0x16 drivers/built-in.o
 .text.dev_disable_by_path
                0x0000000000000000        0xc drivers/built-in.o
 .text.dev_enable_by_path
                0x0000000000000000       0x10 drivers/built-in.o
 .text.devfdt_get_addr_size_index
                0x0000000000000000       0x2c drivers/built-in.o
 .text.devfdt_get_addr_name
                0x0000000000000000       0x28 drivers/built-in.o
 .text.devfdt_get_addr_ptr
                0x0000000000000000        0x6 drivers/built-in.o
 .text.devfdt_remap_addr_index
                0x0000000000000000        0xe drivers/built-in.o
 .text.devfdt_remap_addr_name
                0x0000000000000000        0xe drivers/built-in.o
 .text.devfdt_remap_addr
                0x0000000000000000        0x6 drivers/built-in.o
 .text.devfdt_map_physmem
                0x0000000000000000        0xe drivers/built-in.o
 .text.dm_fixup_for_gd_move
                0x0000000000000000       0x14 drivers/built-in.o
 .text.dm_set_translation_offset
                0x0000000000000000       0x10 drivers/built-in.o
 .text.dm_uninit
                0x0000000000000000       0x1c drivers/built-in.o
 .text.uclass_destroy
                0x0000000000000000       0x52 drivers/built-in.o
 .text.uclass_get_name
                0x0000000000000000       0x1a drivers/built-in.o
 .text.uclass_get_by_name
                0x0000000000000000       0x2a drivers/built-in.o
 .text.uclass_get_device_by_driver
                0x0000000000000000       0x40 drivers/built-in.o
 .text.uclass_get_device_by_phandle_id
                0x0000000000000000       0x4c drivers/built-in.o
 .text.list_count_items
                0x0000000000000000       0x14 drivers/built-in.o
 .text.dm_fdt_pre_reloc
                0x0000000000000000       0x44 drivers/built-in.o
 .text.simple_bus_translate
                0x0000000000000000       0x20 drivers/built-in.o
 .text.regmap_uninit
                0x0000000000000000        0xa drivers/built-in.o
 .text.regmap_raw_read_range
                0x0000000000000000       0x80 drivers/built-in.o
 .text.regmap_raw_read
                0x0000000000000000       0x14 drivers/built-in.o
 .text.regmap_read
                0x0000000000000000        0x6 drivers/built-in.o
 .text.regmap_raw_write_range
                0x0000000000000000       0x86 drivers/built-in.o
 .text.regmap_raw_write
                0x0000000000000000       0x14 drivers/built-in.o
 .text.regmap_write
                0x0000000000000000       0x14 drivers/built-in.o
 .text.regmap_update_bits
                0x0000000000000000       0x2c drivers/built-in.o
 .text.syscon_regmap_lookup_by_phandle
                0x0000000000000000       0x24 drivers/built-in.o
 .text.syscon_node_to_regmap
                0x0000000000000000       0x64 drivers/built-in.o
 .text.ofnode_read_fmap_entry
                0x0000000000000000       0x9c drivers/built-in.o
 .text.ofnode_decode_region
                0x0000000000000000       0x2c drivers/built-in.o
 .text.ofnode_decode_memory_region
                0x0000000000000000       0xac drivers/built-in.o
 .text.ofnode_read_s32_default
                0x0000000000000000       0x12 drivers/built-in.o
 .text.ofnode_read_u64
                0x0000000000000000       0x34 drivers/built-in.o
 .text.ofnode_read_u64_default
                0x0000000000000000       0x14 drivers/built-in.o
 .text.ofnode_get_by_phandle
                0x0000000000000000        0xe drivers/built-in.o
 .text.decode_timing_property
                0x0000000000000000       0x42 drivers/built-in.o
 .text.ofnode_read_string_index
                0x0000000000000000       0x2c drivers/built-in.o
 .text.ofnode_read_string_count
                0x0000000000000000        0xe drivers/built-in.o
 .text.ofnode_decode_display_timing
                0x0000000000000000      0x1d0 drivers/built-in.o
 .text.ofnode_is_available
                0x0000000000000000       0x14 drivers/built-in.o
 .text.ofnode_get_addr_size
                0x0000000000000000       0x14 drivers/built-in.o
 .text.ofnode_read_pci_addr
                0x0000000000000000       0x5a drivers/built-in.o
 .text.ofnode_read_pci_vendev
                0x0000000000000000       0x90 drivers/built-in.o
 .text.ofnode_pre_reloc
                0x0000000000000000       0x40 drivers/built-in.o
 .text.ofnode_translate_address
                0x0000000000000000        0xe drivers/built-in.o
 .text.ofnode_by_compatible
                0x0000000000000000       0x12 drivers/built-in.o
 .text.ofnode_by_prop_value
                0x0000000000000000       0x18 drivers/built-in.o
 .text.ofnode_write_prop
                0x0000000000000000        0x6 drivers/built-in.o
 .text.ofnode_write_string
                0x0000000000000000        0x6 drivers/built-in.o
 .text.ofnode_set_enabled
                0x0000000000000000        0x6 drivers/built-in.o
 .text._input_send_keycodes
                0x0000000000000000      0x2b0 drivers/built-in.o
 .text.input_tstc
                0x0000000000000000       0x28 drivers/built-in.o
 .text.input_getc
                0x0000000000000000       0x38 drivers/built-in.o
 .text.input_send_keycodes
                0x0000000000000000        0x6 drivers/built-in.o
 .text.input_add_keycode
                0x0000000000000000       0x58 drivers/built-in.o
 .text.input_add_table
                0x0000000000000000       0x28 drivers/built-in.o
 .text.input_set_delays
                0x0000000000000000        0xa drivers/built-in.o
 .text.input_allow_repeats
                0x0000000000000000        0x6 drivers/built-in.o
 .text.input_leds_changed
                0x0000000000000000        0xe drivers/built-in.o
 .text.input_add_tables
                0x0000000000000000       0x34 drivers/built-in.o
 .text.input_init
                0x0000000000000000       0x14 drivers/built-in.o
 .text.input_stdio_register
                0x0000000000000000       0x34 drivers/built-in.o
 .text.create_keymap
                0x0000000000000000       0x58 drivers/built-in.o
 .text.key_matrix_decode
                0x0000000000000000       0x9c drivers/built-in.o
 .text.key_matrix_decode_fdt
                0x0000000000000000       0x70 drivers/built-in.o
 .text.key_matrix_init
                0x0000000000000000       0x20 drivers/built-in.o
 .text.pinctrl_decode_pin_config
                0x0000000000000000       0x2c drivers/built-in.o
 .text.pinctrl_decode_pin_config_dm
                0x0000000000000000       0x3c drivers/built-in.o
 .text.pinctrl_request
                0x0000000000000000       0x10 drivers/built-in.o
 .text.pinctrl_request_noflags
                0x0000000000000000        0x6 drivers/built-in.o
 .text.pinctrl_get_periph_id
                0x0000000000000000       0x10 drivers/built-in.o
 .text.pinctrl_get_gpio_mux
                0x0000000000000000       0x10 drivers/built-in.o
 .text.ram_get_info
                0x0000000000000000       0x10 drivers/built-in.o
 .text.timer_conv_64
                0x0000000000000000       0x20 drivers/built-in.o
 .text.get_desc
                0x0000000000000000       0x6a drivers/built-in.o
 .text.blk_get_if_type_name
                0x0000000000000000        0xc drivers/built-in.o
 .text.blk_get_by_device
                0x0000000000000000       0x38 drivers/built-in.o
 .text.blk_list_part
                0x0000000000000000       0x3e drivers/built-in.o
 .text.blk_print_part_devnum
                0x0000000000000000       0x24 drivers/built-in.o
 .text.blk_list_devices
                0x0000000000000000       0x3c drivers/built-in.o
 .text.blk_print_device_num
                0x0000000000000000       0x28 drivers/built-in.o
 .text.blk_show_device
                0x0000000000000000       0x54 drivers/built-in.o
 .text.blk_first_device
                0x0000000000000000       0x36 drivers/built-in.o
 .text.blk_next_device
                0x0000000000000000       0x2e drivers/built-in.o
 .text.blk_read_devnum
                0x0000000000000000       0x1e drivers/built-in.o
 .text.blk_write_devnum
                0x0000000000000000       0x1e drivers/built-in.o
 .text.blk_get_from_parent
                0x0000000000000000       0x32 drivers/built-in.o
 .text.blk_unbind_all
                0x0000000000000000       0x5a drivers/built-in.o
 .text.misc_read
                0x0000000000000000       0x18 drivers/built-in.o
 .text.misc_write
                0x0000000000000000       0x18 drivers/built-in.o
 .text.misc_ioctl
                0x0000000000000000       0x10 drivers/built-in.o
 .text.misc_call
                0x0000000000000000       0x18 drivers/built-in.o
 .text.misc_set_enabled
                0x0000000000000000       0x10 drivers/built-in.o
 .text.cpu_mmc_init
                0x0000000000000000        0x6 drivers/built-in.o
 .text.board_mmc_init
                0x0000000000000000        0x6 drivers/built-in.o
 .text.mmc_set_preinit
                0x0000000000000000        0x6 drivers/built-in.o
 .text.mmc_of_parse
                0x0000000000000000      0x188 drivers/built-in.o
 .text.mmc_get_next_devnum
                0x0000000000000000        0x6 drivers/built-in.o
 .text.mmc_unbind
                0x0000000000000000       0x20 drivers/built-in.o
 .text.rtc_to_tm
                0x0000000000000000      0x154 drivers/built-in.o
 .text.panel_set_backlight
                0x0000000000000000       0x10 drivers/built-in.o
 .text.panel_get_display_timing
                0x0000000000000000       0x10 drivers/built-in.o
 .text.video_sync_all
                0x0000000000000000       0x28 drivers/built-in.o
 .text.video_get_xsize
                0x0000000000000000        0xa drivers/built-in.o
 .text.video_get_ysize
                0x0000000000000000        0xa drivers/built-in.o
 .text.reset_request
                0x0000000000000000        0xa drivers/built-in.o
 .text.reset_assert_bulk
                0x0000000000000000       0x24 drivers/built-in.o
 .text.reset_deassert_bulk
                0x0000000000000000       0x24 drivers/built-in.o
 .text.reset_status
                0x0000000000000000        0xa drivers/built-in.o
 .text.reset_release_all
                0x0000000000000000       0x2e drivers/built-in.o
 .text.reset_get_bulk
                0x0000000000000000       0x70 drivers/built-in.o
 .rodata.devfdt_get_addr_name.str1.1
                0x0000000000000000        0xa drivers/built-in.o
 .rodata.ofnode_read_fmap_entry.str1.1
                0x0000000000000000       0x32 drivers/built-in.o
 .rodata.ofnode_decode_memory_region.str1.1
                0x0000000000000000       0x2d drivers/built-in.o
 .rodata.ofnode_decode_display_timing.str1.1
                0x0000000000000000       0xca drivers/built-in.o
 .rodata.ofnode_read_pci_vendev.str1.1
                0x0000000000000000       0x1c drivers/built-in.o
 .rodata.ofnode_pre_reloc.str1.1
                0x0000000000000000       0x45 drivers/built-in.o
 .rodata.input_stdio_register.str1.1
                0x0000000000000000        0x6 drivers/built-in.o
 .rodata.kbd_plain_xlate
                0x0000000000000000       0x64 drivers/built-in.o
 .rodata.kbd_plain_xlate_german
                0x0000000000000000       0x84 drivers/built-in.o
 .rodata.kbd_to_ansi364
                0x0000000000000000       0x20 drivers/built-in.o
 .rodata.key_matrix_decode_fdt.str1.1
                0x0000000000000000       0x1d drivers/built-in.o
 .rodata.pinctrl_decode_pin_config.str1.1
                0x0000000000000000       0x1c drivers/built-in.o
 .rodata.blk_list_devices.str1.1
                0x0000000000000000        0xc drivers/built-in.o
 .rodata.blk_print_device_num.str1.1
                0x0000000000000000       0x11 drivers/built-in.o
 .rodata.blk_show_device.str1.1
                0x0000000000000000       0x1d drivers/built-in.o
 .rodata.mmc_of_parse.str1.1
                0x0000000000000000       0xf2 drivers/built-in.o
 .rodata.rtc_days_in_month
                0x0000000000000000        0xc drivers/built-in.o
 .data          0x0000000000000000        0x0 drivers/built-in.o
 .data.kbd_ctrl_xlate
                0x0000000000000000       0x64 drivers/built-in.o
 .data.kbd_entry
                0x0000000000000000       0x8c drivers/built-in.o
 .data.kbd_right_alt_xlate_german
                0x0000000000000000       0x58 drivers/built-in.o
 .data.kbd_shift_xlate
                0x0000000000000000       0x64 drivers/built-in.o
 .data.kbd_shift_xlate_german
                0x0000000000000000       0x84 drivers/built-in.o
 .bss           0x0000000000000000        0x0 drivers/built-in.o
 .text          0x0000000000000000        0x0 drivers/gpio/built-in.o
 .text.dm_gpio_lookup_name
                0x0000000000000000       0xa0 drivers/gpio/built-in.o
 .text.gpio_lookup_name
                0x0000000000000000       0x3c drivers/gpio/built-in.o
 .text.gpio_requestf
                0x0000000000000000       0x2a drivers/gpio/built-in.o
 .text.gpio_free
                0x0000000000000000       0x18 drivers/gpio/built-in.o
 .text.dm_gpio_get_open_drain
                0x0000000000000000       0x2c drivers/gpio/built-in.o
 .text.dm_gpio_set_open_drain
                0x0000000000000000       0x2c drivers/gpio/built-in.o
 .text.dm_gpio_set_dir
                0x0000000000000000        0x6 drivers/gpio/built-in.o
 .text.gpio_set_value
                0x0000000000000000       0x18 drivers/gpio/built-in.o
 .text.gpio_get_bank_info
                0x0000000000000000       0x10 drivers/gpio/built-in.o
 .text.gpio_get_function
                0x0000000000000000        0x8 drivers/gpio/built-in.o
 .text.gpio_get_status
                0x0000000000000000       0xbc drivers/gpio/built-in.o
 .text.gpio_claim_vector
                0x0000000000000000       0x52 drivers/gpio/built-in.o
 .text.gpio_get_values_as_int
                0x0000000000000000       0x2c drivers/gpio/built-in.o
 .text.dm_gpio_get_values_as_int
                0x0000000000000000       0x32 drivers/gpio/built-in.o
 .text.gpio_request_by_name_nodev
                0x0000000000000000       0x44 drivers/gpio/built-in.o
 .text.gpio_get_list_count
                0x0000000000000000       0x28 drivers/gpio/built-in.o
 .text.gpio_free_list
                0x0000000000000000       0x28 drivers/gpio/built-in.o
 .text.gpio_free_list_nodev
                0x0000000000000000        0xa drivers/gpio/built-in.o
 .text.gpio_request_list_by_name_nodev
                0x0000000000000000       0x6c drivers/gpio/built-in.o
 .text.gpio_request_list_by_name
                0x0000000000000000        0x6 drivers/gpio/built-in.o
 .text.gpio_get_number
                0x0000000000000000       0x14 drivers/gpio/built-in.o
 .rodata.dm_gpio_get_open_drain.str1.1
                0x0000000000000000        0xf drivers/gpio/built-in.o
 .rodata.dm_gpio_set_open_drain.str1.1
                0x0000000000000000        0xf drivers/gpio/built-in.o
 .rodata.gpio_get_status.str1.1
                0x0000000000000000       0x19 drivers/gpio/built-in.o
 .rodata.gpio_function
                0x0000000000000000       0x14 drivers/gpio/built-in.o
 .data          0x0000000000000000        0x0 drivers/gpio/built-in.o
 .bss           0x0000000000000000        0x0 drivers/gpio/built-in.o
 .text          0x0000000000000000        0x0 drivers/mtd/built-in.o
 .text.mtd_ooblayout_count_bytes
                0x0000000000000000       0x28 drivers/mtd/built-in.o
 .text.mtd_ooblayout_ecc
                0x0000000000000000       0x3c drivers/mtd/built-in.o
 .text.mtd_ooblayout_free
                0x0000000000000000       0x3c drivers/mtd/built-in.o
 .text.mtd_ooblayout_find_region
                0x0000000000000000       0x4c drivers/mtd/built-in.o
 .text.mtd_ooblayout_get_bytes
                0x0000000000000000       0x54 drivers/mtd/built-in.o
 .text.mtd_ooblayout_set_bytes
                0x0000000000000000       0x54 drivers/mtd/built-in.o
 .text.mtd_get_unmapped_area
                0x0000000000000000       0x3a drivers/mtd/built-in.o
 .text.mtd_panic_write
                0x0000000000000000       0x60 drivers/mtd/built-in.o
 .text.mtd_ooblayout_find_eccregion
                0x0000000000000000       0x14 drivers/mtd/built-in.o
 .text.mtd_ooblayout_get_eccbytes
                0x0000000000000000       0x18 drivers/mtd/built-in.o
 .text.mtd_ooblayout_set_eccbytes
                0x0000000000000000       0x18 drivers/mtd/built-in.o
 .text.mtd_ooblayout_get_databytes
                0x0000000000000000       0x18 drivers/mtd/built-in.o
 .text.mtd_ooblayout_set_databytes
                0x0000000000000000       0x18 drivers/mtd/built-in.o
 .text.mtd_ooblayout_count_freebytes
                0x0000000000000000        0xc drivers/mtd/built-in.o
 .text.mtd_ooblayout_count_eccbytes
                0x0000000000000000        0xc drivers/mtd/built-in.o
 .text.mtd_get_fact_prot_info
                0x0000000000000000       0x1a drivers/mtd/built-in.o
 .text.mtd_read_fact_prot_reg
                0x0000000000000000       0x22 drivers/mtd/built-in.o
 .text.mtd_get_user_prot_info
                0x0000000000000000       0x1a drivers/mtd/built-in.o
 .text.mtd_read_user_prot_reg
                0x0000000000000000       0x24 drivers/mtd/built-in.o
 .text.mtd_write_user_prot_reg
                0x0000000000000000       0x38 drivers/mtd/built-in.o
 .text.mtd_lock_user_prot_reg
                0x0000000000000000       0x1e drivers/mtd/built-in.o
 .text.mtd_lock
                0x0000000000000000       0x4c drivers/mtd/built-in.o
 .text.mtd_is_locked
                0x0000000000000000       0x4c drivers/mtd/built-in.o
 .text.mtd_block_isreserved
                0x0000000000000000       0x28 drivers/mtd/built-in.o
 .data          0x0000000000000000        0x0 drivers/mtd/built-in.o
 .bss           0x0000000000000000        0x0 drivers/mtd/built-in.o
 .bss.mtd_table
                0x0000000000000000       0x80 drivers/mtd/built-in.o
 .text          0x0000000000000000        0x0 drivers/mtd/spi/built-in.o
 .text.spl_flash_get_sw_write_prot
                0x0000000000000000       0x10 drivers/mtd/spi/built-in.o
 .text.spi_flash_free
                0x0000000000000000        0xc drivers/mtd/spi/built-in.o
 .text.spi_flash_probe
                0x0000000000000000       0x1a drivers/mtd/spi/built-in.o
 .data          0x0000000000000000        0x0 drivers/mtd/spi/built-in.o
 .bss           0x0000000000000000        0x0 drivers/mtd/spi/built-in.o
 .text          0x0000000000000000        0x0 drivers/mtd/ubi/built-in.o
 .text.ubi_enumerate_volumes
                0x0000000000000000       0x28 drivers/mtd/ubi/built-in.o
 .text.ubi_get_by_major
                0x0000000000000000       0x50 drivers/mtd/ubi/built-in.o
 .text.ubi_major2num
                0x0000000000000000       0x20 drivers/mtd/ubi/built-in.o
 .text.ubi_vtbl_rename_volumes
                0x0000000000000000       0xb0 drivers/mtd/ubi/built-in.o
 .text.ubi_remove_volume
                0x0000000000000000       0xfc drivers/mtd/ubi/built-in.o
 .text.ubi_rename_volumes
                0x0000000000000000       0x66 drivers/mtd/ubi/built-in.o
 .text.ubi_start_leb_change
                0x0000000000000000       0xc4 drivers/mtd/ubi/built-in.o
 .text.ubi_more_leb_change_data
                0x0000000000000000       0xfc drivers/mtd/ubi/built-in.o
 .text.ubi_leb_erase
                0x0000000000000000       0x52 drivers/mtd/ubi/built-in.o
 .text.ubi_sync
                0x0000000000000000       0x26 drivers/mtd/ubi/built-in.o
 .text.ubi_flush
                0x0000000000000000       0x28 drivers/mtd/ubi/built-in.o
 .text.ubi_thread
                0x0000000000000000       0x98 drivers/mtd/ubi/built-in.o
 .text.ubi_dump_mkvol_req
                0x0000000000000000       0xc4 drivers/mtd/ubi/built-in.o
 .rodata.ubi_remove_volume.str1.1
                0x0000000000000000       0x5c drivers/mtd/ubi/built-in.o
 .rodata.ubi_thread.str1.1
                0x0000000000000000       0x53 drivers/mtd/ubi/built-in.o
 .rodata.ubi_dump_mkvol_req.str1.1
                0x0000000000000000       0x6e drivers/mtd/ubi/built-in.o
 .data          0x0000000000000000        0x0 drivers/mtd/ubi/built-in.o
 .bss           0x0000000000000000        0x0 drivers/mtd/ubi/built-in.o
 .text          0x0000000000000000        0x0 drivers/net/built-in.o
 .text.board_interface_eth_init
                0x0000000000000000        0x4 drivers/net/built-in.o
 .data          0x0000000000000000        0x0 drivers/net/built-in.o
 .bss           0x0000000000000000        0x0 drivers/net/built-in.o
 .text          0x0000000000000000        0x0 drivers/net/phy/built-in.o
 .text.phy_set_supported
                0x0000000000000000       0x38 drivers/net/phy/built-in.o
 .text.miiphy_reset
                0x0000000000000000       0x1a drivers/net/phy/built-in.o
 .data          0x0000000000000000        0x0 drivers/net/phy/built-in.o
 .bss           0x0000000000000000        0x0 drivers/net/phy/built-in.o
 .text          0x0000000000000000        0x0 drivers/serial/built-in.o
 .text.serial_getconfig
                0x0000000000000000        0xe drivers/serial/built-in.o
 .text.serial_setconfig
                0x0000000000000000        0xe drivers/serial/built-in.o
 .text.serial_getinfo
                0x0000000000000000       0x1e drivers/serial/built-in.o
 .data          0x0000000000000000        0x0 drivers/serial/built-in.o
 .bss           0x0000000000000000        0x0 drivers/serial/built-in.o
 .text          0x0000000000000000        0x0 drivers/spi/built-in.o
 .text.spi_chip_select
                0x0000000000000000       0x12 drivers/spi/built-in.o
 .text.spi_cs_info
                0x0000000000000000       0x36 drivers/spi/built-in.o
 .text.spi_cs_is_valid
                0x0000000000000000       0x20 drivers/spi/built-in.o
 .text.spi_setup_slave
                0x0000000000000000       0x22 drivers/spi/built-in.o
 .text.spi_free_slave
                0x0000000000000000       0x12 drivers/spi/built-in.o
 .data          0x0000000000000000        0x0 drivers/spi/built-in.o
 .bss           0x0000000000000000        0x0 drivers/spi/built-in.o
 .text          0x0000000000000000        0x0 env/built-in.o
 .text.env_flags_parse_varaccess_from_binflags
                0x0000000000000000       0x30 env/built-in.o
 .rodata.env_flags_parse_varaccess_from_binflags.str1.1
                0x0000000000000000       0x2c env/built-in.o
 .data          0x0000000000000000        0x0 env/built-in.o
 .bss           0x0000000000000000        0x0 env/built-in.o
 .text          0x0000000000000000        0x0 fs/built-in.o
 .text.fs_get_type_name
                0x0000000000000000       0x14 fs/built-in.o
 .text.fs_uuid  0x0000000000000000       0x1c fs/built-in.o
 .text.fs_read  0x0000000000000000       0x40 fs/built-in.o
 .text.fs_write
                0x0000000000000000       0x60 fs/built-in.o
 .text.fs_unlink
                0x0000000000000000       0x24 fs/built-in.o
 .text.fs_mkdir
                0x0000000000000000       0x24 fs/built-in.o
 .text.do_save  0x0000000000000000       0xf0 fs/built-in.o
 .text.do_fs_uuid
                0x0000000000000000       0x58 fs/built-in.o
 .text.do_fs_type
                0x0000000000000000       0x50 fs/built-in.o
 .text.do_rm    0x0000000000000000       0x2c fs/built-in.o
 .text.do_mkdir
                0x0000000000000000       0x34 fs/built-in.o
 .text.fat_register_device
                0x0000000000000000       0x54 fs/built-in.o
 .text.file_fat_read
                0x0000000000000000       0x22 fs/built-in.o
 .text.ubifs_bg_wbufs_sync
                0x0000000000000000       0x60 fs/built-in.o
 .text.ubifs_sync_wbufs_by_inode
                0x0000000000000000       0x4a fs/built-in.o
 .text.set_anon_super
                0x0000000000000000        0x4 fs/built-in.o
 .text.iget_failed
                0x0000000000000000        0x2 fs/built-in.o
 .text.unlock_new_inode
                0x0000000000000000        0x2 fs/built-in.o
 .text.set_ltab
                0x0000000000000000       0x50 fs/built-in.o
 .text.ubifs_create_dflt_lpt
                0x0000000000000000      0x598 fs/built-in.o
 .text.dbg_check_lpt_nodes
                0x0000000000000000        0x4 fs/built-in.o
 .text.dbg_check_ltab
                0x0000000000000000        0x4 fs/built-in.o
 .text.dbg_chk_lpt_free_spc
                0x0000000000000000        0x4 fs/built-in.o
 .text.dbg_chk_lpt_sz
                0x0000000000000000        0x4 fs/built-in.o
 .text.dbg_check_heap
                0x0000000000000000        0x2 fs/built-in.o
 .text.ubifs_tnc_get_bu_keys
                0x0000000000000000      0x188 fs/built-in.o
 .text.ubifs_tnc_bulk_read
                0x0000000000000000      0x2ac fs/built-in.o
 .text.ubifs_tnc_lookup_nm
                0x0000000000000000       0x98 fs/built-in.o
 .text.dbg_check_inode_size
                0x0000000000000000        0x4 fs/built-in.o
 .text.ubifs_tnc_levelorder_next
                0x0000000000000000      0x12c fs/built-in.o
 .text.dbg_cstate
                0x0000000000000000       0x18 fs/built-in.o
 .text.ubifs_dump_budget_req
                0x0000000000000000       0x74 fs/built-in.o
 .text.ubifs_dump_sleb
                0x0000000000000000       0x50 fs/built-in.o
 .text.dump_znode
                0x0000000000000000        0xa fs/built-in.o
 .text.ubifs_dump_heap
                0x0000000000000000       0x60 fs/built-in.o
 .text.ubifs_dump_tnc
                0x0000000000000000       0x84 fs/built-in.o
 .text.dbg_walk_index
                0x0000000000000000      0x14c fs/built-in.o
 .text.ubifs_dump_index
                0x0000000000000000       0x10 fs/built-in.o
 .text.ubifs_convert_page_budget
                0x0000000000000000       0x58 fs/built-in.o
 .text.ubifs_write_rcvrd_mst_node
                0x0000000000000000       0xa0 fs/built-in.o
 .text.ubifs_clean_lebs
                0x0000000000000000      0x144 fs/built-in.o
 .text.ubifs_bg_thread
                0x0000000000000000       0x40 fs/built-in.o
 .text.dbg_old_index_check_init
                0x0000000000000000       0x8e fs/built-in.o
 .text.dbg_check_old_index
                0x0000000000000000        0x4 fs/built-in.o
 .text.ubifs_jnl_delete_inode
                0x0000000000000000       0x5c fs/built-in.o
 .text.ubifs_jnl_xrename
                0x0000000000000000      0x398 fs/built-in.o
 .text.ubifs_jnl_rename
                0x0000000000000000      0x53c fs/built-in.o
 .text.ubifs_jnl_truncate
                0x0000000000000000      0x3ec fs/built-in.o
 .text.ubifs_jnl_delete_xattr
                0x0000000000000000      0x204 fs/built-in.o
 .text.ubifs_jnl_change_xattr
                0x0000000000000000      0x114 fs/built-in.o
 .text.fs_devread
                0x0000000000000000      0x16c fs/built-in.o
 .rodata.fs_write.str1.1
                0x0000000000000000       0x1f fs/built-in.o
 .rodata.do_save.str1.1
                0x0000000000000000       0x1d fs/built-in.o
 .rodata.do_fs_uuid.str1.1
                0x0000000000000000        0x4 fs/built-in.o
 .rodata.do_mkdir.str1.1
                0x0000000000000000       0x29 fs/built-in.o
 .rodata.fat_register_device.str1.1
                0x0000000000000000       0x2b fs/built-in.o
 .rodata.ubifs_tnc_bulk_read.str1.1
                0x0000000000000000      0x1ca fs/built-in.o
 .rodata.__func__.20
                0x0000000000000000       0x14 fs/built-in.o
 .rodata.dbg_cstate.str1.1
                0x0000000000000000       0x15 fs/built-in.o
 .rodata.ubifs_dump_budget_req.str1.1
                0x0000000000000000       0xc9 fs/built-in.o
 .rodata.ubifs_dump_heap.str1.1
                0x0000000000000000       0x7f fs/built-in.o
 .rodata.ubifs_dump_tnc.str1.1
                0x0000000000000000       0x53 fs/built-in.o
 .rodata.dbg_walk_index.str1.1
                0x0000000000000000       0xb2 fs/built-in.o
 .rodata.CSWTCH.59
                0x0000000000000000       0x18 fs/built-in.o
 .rodata.ubifs_clean_lebs.str1.1
                0x0000000000000000       0x44 fs/built-in.o
 .rodata.ubifs_jnl_truncate.str1.1
                0x0000000000000000       0x48 fs/built-in.o
 .rodata.fs_devread.str1.1
                0x0000000000000000       0x98 fs/built-in.o
 .data          0x0000000000000000        0x0 fs/built-in.o
 .bss           0x0000000000000000        0x0 fs/built-in.o
 .text          0x0000000000000000        0x0 lib/built-in.o
 .text.fdt_nop_property
                0x0000000000000000       0x28 lib/built-in.o
 .text.fdt_nop_node
                0x0000000000000000       0x30 lib/built-in.o
 .text.fdt_sw_check_header_
                0x0000000000000000       0x14 lib/built-in.o
 .text.fdt_grab_space_
                0x0000000000000000       0x2e lib/built-in.o
 .text.fdt_create
                0x0000000000000000       0x40 lib/built-in.o
 .text.fdt_resize
                0x0000000000000000       0x78 lib/built-in.o
 .text.fdt_add_reservemap_entry
                0x0000000000000000       0x56 lib/built-in.o
 .text.fdt_finish_reservemap
                0x0000000000000000       0x14 lib/built-in.o
 .text.fdt_begin_node
                0x0000000000000000       0x42 lib/built-in.o
 .text.fdt_end_node
                0x0000000000000000       0x26 lib/built-in.o
 .text.fdt_property_placeholder
                0x0000000000000000       0xa6 lib/built-in.o
 .text.fdt_property
                0x0000000000000000       0x22 lib/built-in.o
 .text.fdt_finish
                0x0000000000000000       0x94 lib/built-in.o
 .text.fdt_set_name
                0x0000000000000000       0x5a lib/built-in.o
 .text.fdt_appendprop
                0x0000000000000000       0x88 lib/built-in.o
 .text.fdt_create_empty_tree
                0x0000000000000000       0x44 lib/built-in.o
 .text.fdt_get_alias
                0x0000000000000000       0x1a lib/built-in.o
 .text.fdt_node_offset_by_compatible
                0x0000000000000000       0x40 lib/built-in.o
 .text.fdt_add_region
                0x0000000000000000       0x58 lib/built-in.o
 .text.fdt_add_alias_regions
                0x0000000000000000      0x120 lib/built-in.o
 .text.fdt_next_region
                0x0000000000000000      0x32c lib/built-in.o
 .text.fdt_first_region
                0x0000000000000000       0x3a lib/built-in.o
 .text.crc7     0x0000000000000000       0x1c lib/built-in.o
 .text.crc8     0x0000000000000000       0x2e lib/built-in.o
 .text.fdtdec_get_uint
                0x0000000000000000       0x1c lib/built-in.o
 .text.ldiv     0x0000000000000000       0x1c lib/built-in.o
 .text.byteReverse
                0x0000000000000000        0x2 lib/built-in.o
 .text.md5      0x0000000000000000       0x44 lib/built-in.o
 .text.rc4_encode
                0x0000000000000000       0x8a lib/built-in.o
 .text.__rb_erase_color
                0x0000000000000000      0x164 lib/built-in.o
 .text.__rb_insert_augmented
                0x0000000000000000       0xe8 lib/built-in.o
 .text.rb_prev  0x0000000000000000       0x2c lib/built-in.o
 .text.rb_replace_node
                0x0000000000000000       0x3c lib/built-in.o
 .text.sha1_csum
                0x0000000000000000       0x22 lib/built-in.o
 .text.sha1_hmac
                0x0000000000000000       0xb6 lib/built-in.o
 .text.sha1_self_test
                0x0000000000000000        0x4 lib/built-in.o
 .text.inflateInit_
                0x0000000000000000        0xa lib/built-in.o
 .text.fdtdec_get_compatible
                0x0000000000000000        0xc lib/built-in.o
 .text.fdtdec_get_uint64
                0x0000000000000000       0x24 lib/built-in.o
 .text.fdtdec_lookup
                0x0000000000000000       0x28 lib/built-in.o
 .text.fdtdec_next_compatible
                0x0000000000000000       0x10 lib/built-in.o
 .text.fdtdec_next_compatible_subnode
                0x0000000000000000       0x40 lib/built-in.o
 .text.fdtdec_next_alias
                0x0000000000000000       0x60 lib/built-in.o
 .text.fdtdec_add_aliases_for_id
                0x0000000000000000      0x174 lib/built-in.o
 .text.fdtdec_find_aliases_for_id
                0x0000000000000000       0x30 lib/built-in.o
 .text.fdtdec_get_alias_highest_id
                0x0000000000000000       0x78 lib/built-in.o
 .text.fdtdec_check_fdt
                0x0000000000000000        0xa lib/built-in.o
 .text.fdtdec_lookup_phandle
                0x0000000000000000       0x20 lib/built-in.o
 .text.fdtdec_locate_array
                0x0000000000000000       0x18 lib/built-in.o
 .text.fdtdec_get_child_count
                0x0000000000000000       0x20 lib/built-in.o
 .text.fdtdec_get_byte_array
                0x0000000000000000       0x26 lib/built-in.o
 .text.fdtdec_get_config_bool
                0x0000000000000000       0x2c lib/built-in.o
 .text.fdtdec_get_addr_size_auto_parent
                0x0000000000000000       0x46 lib/built-in.o
 .text.fdtdec_get_addr_size_auto_noparent
                0x0000000000000000       0x34 lib/built-in.o
 .text.fdtdec_get_addr_size
                0x0000000000000000       0x1e lib/built-in.o
 .text.fdtdec_get_addr
                0x0000000000000000        0x6 lib/built-in.o
 .text.fdt_get_named_resource
                0x0000000000000000       0x2c lib/built-in.o
 .text.fdtdec_decode_ram_size
                0x0000000000000000      0x148 lib/built-in.o
 .text.print_freq
                0x0000000000000000       0xe8 lib/built-in.o
 .text.div_s64_rem
                0x0000000000000000       0x6e lib/built-in.o
 .text.div64_u64_rem
                0x0000000000000000      0x106 lib/built-in.o
 .text.div64_u64
                0x0000000000000000       0xe0 lib/built-in.o
 .text.div64_s64
                0x0000000000000000       0x30 lib/built-in.o
 .text.iter_div_u64_rem
                0x0000000000000000       0x24 lib/built-in.o
 .text.lmb_init
                0x0000000000000000        0xc lib/built-in.o
 .text.lmb_is_reserved
                0x0000000000000000       0x28 lib/built-in.o
 .text.arch_lmb_reserve
                0x0000000000000000        0x2 lib/built-in.o
 .text.membuff_purge
                0x0000000000000000        0x8 lib/built-in.o
 .text.membuff_putraw
                0x0000000000000000       0x66 lib/built-in.o
 .text.membuff_putbyte
                0x0000000000000000       0x1c lib/built-in.o
 .text.membuff_getraw
                0x0000000000000000       0x50 lib/built-in.o
 .text.membuff_getbyte
                0x0000000000000000       0x22 lib/built-in.o
 .text.membuff_peekbyte
                0x0000000000000000       0x20 lib/built-in.o
 .text.membuff_get
                0x0000000000000000       0x46 lib/built-in.o
 .text.membuff_put
                0x0000000000000000       0x3e lib/built-in.o
 .text.membuff_isempty
                0x0000000000000000        0xc lib/built-in.o
 .text.membuff_avail
                0x0000000000000000       0x2e lib/built-in.o
 .text.membuff_size
                0x0000000000000000        0x8 lib/built-in.o
 .text.membuff_makecontig
                0x0000000000000000       0x44 lib/built-in.o
 .text.membuff_free
                0x0000000000000000       0x1a lib/built-in.o
 .text.membuff_readline
                0x0000000000000000       0x6a lib/built-in.o
 .text.membuff_extend_by
                0x0000000000000000       0x78 lib/built-in.o
 .text.membuff_init
                0x0000000000000000        0xc lib/built-in.o
 .text.membuff_new
                0x0000000000000000       0x22 lib/built-in.o
 .text.membuff_uninit
                0x0000000000000000        0xc lib/built-in.o
 .text.membuff_dispose
                0x0000000000000000       0x14 lib/built-in.o
 .text.strchrnul
                0x0000000000000000       0x14 lib/built-in.o
 .text.strlcpy  0x0000000000000000       0x2e lib/built-in.o
 .text.strcspn  0x0000000000000000       0x20 lib/built-in.o
 .text.strspn   0x0000000000000000       0x20 lib/built-in.o
 .text.strtok   0x0000000000000000       0x3c lib/built-in.o
 .text.strswab  0x0000000000000000       0x26 lib/built-in.o
 .text.memscan  0x0000000000000000       0x16 lib/built-in.o
 .text.memchr_inv
                0x0000000000000000       0x92 lib/built-in.o
 .text.table_compute_checksum
                0x0000000000000000       0x18 lib/built-in.o
 .text.print_hex_dump_bytes
                0x0000000000000000        0x2 lib/built-in.o
 .text.srand    0x0000000000000000        0xc lib/built-in.o
 .text.__assert_fail
                0x0000000000000000       0x10 lib/built-in.o
 .text.vsnprintf
                0x0000000000000000        0x4 lib/built-in.o
 .text.scnprintf
                0x0000000000000000       0x1a lib/built-in.o
 .text.print_grouped_ull
                0x0000000000000000       0x54 lib/built-in.o
 .text.str2long
                0x0000000000000000       0x22 lib/built-in.o
 .text.strmhz   0x0000000000000000       0x40 lib/built-in.o
 .rodata.fdt_create_empty_tree.str1.1
                0x0000000000000000        0x1 lib/built-in.o
 .rodata.fdt_add_alias_regions.str1.1
                0x0000000000000000        0x8 lib/built-in.o
 .rodata.crc7_syndrome_table
                0x0000000000000000      0x100 lib/built-in.o
 .rodata.z_errmsg
                0x0000000000000000       0x28 lib/built-in.o
 .rodata.fdtdec_next_alias.str1.1
                0x0000000000000000        0x7 lib/built-in.o
 .rodata.fdtdec_decode_ram_size.str1.1
                0x0000000000000000       0x21 lib/built-in.o
 .rodata.compat_names
                0x0000000000000000       0x8c lib/built-in.o
 .rodata.names.1
                0x0000000000000000        0x3 lib/built-in.o
 .rodata.hex_asc_upper
                0x0000000000000000       0x11 lib/built-in.o
 .rodata.__assert_fail.str1.1
                0x0000000000000000       0x22 lib/built-in.o
 .rodata.print_grouped_ull.str1.1
                0x0000000000000000        0xb lib/built-in.o
 .rodata.strmhz.str1.1
                0x0000000000000000        0xb lib/built-in.o
 .data          0x0000000000000000        0x0 lib/built-in.o
 .bss           0x0000000000000000        0x0 lib/built-in.o
 .bss.___strtok
                0x0000000000000000        0x4 lib/built-in.o
 .text          0x0000000000000000        0x0 net/built-in.o
 .text.add_ip_checksums
                0x0000000000000000       0x2c net/built-in.o
 .text.eth_init_state_only
                0x0000000000000000       0x1e net/built-in.o
 .text.net_get_udp_handler
                0x0000000000000000        0xc net/built-in.o
 .text.net_set_arp_handler
                0x0000000000000000       0x18 net/built-in.o
 .text.random_port
                0x0000000000000000       0x12 net/built-in.o
 .text.vlan_to_string
                0x0000000000000000       0x30 net/built-in.o
 .text.env_get_vlan
                0x0000000000000000        0xe net/built-in.o
 .rodata.vlan_to_string.str1.1
                0x0000000000000000        0x8 net/built-in.o
 .data          0x0000000000000000        0x0 net/built-in.o
 .data.tftp_timeout_ms
                0x0000000000000000        0x4 net/built-in.o
 .bss           0x0000000000000000        0x0 net/built-in.o
 .bss.net_busy_flag
                0x0000000000000000        0x4 net/built-in.o
 .text          0x0000000000000000        0x0 arch/arm/lib/eabi_compat.o
 .data          0x0000000000000000        0x0 arch/arm/lib/eabi_compat.o
 .bss           0x0000000000000000        0x0 arch/arm/lib/eabi_compat.o
 .rodata.raise.str1.1
                0x0000000000000000       0x1b arch/arm/lib/eabi_compat.o
 .text.raise    0x0000000000000000       0x14 arch/arm/lib/eabi_compat.o
 .text.__aeabi_unwind_cpp_pr0
                0x0000000000000000        0x2 arch/arm/lib/eabi_compat.o
 .text.__aeabi_unwind_cpp_pr1
                0x0000000000000000        0x2 arch/arm/lib/eabi_compat.o
 .text.__aeabi_memcpy
                0x0000000000000000        0x4 arch/arm/lib/eabi_compat.o
 .text.__aeabi_memset
                0x0000000000000000        0xa arch/arm/lib/eabi_compat.o
 .debug_info    0x0000000000000000      0x20d arch/arm/lib/eabi_compat.o
 .debug_abbrev  0x0000000000000000      0x11c arch/arm/lib/eabi_compat.o
 .debug_loc     0x0000000000000000      0x12a arch/arm/lib/eabi_compat.o
 .debug_aranges
                0x0000000000000000       0x38 arch/arm/lib/eabi_compat.o
 .debug_ranges  0x0000000000000000       0x28 arch/arm/lib/eabi_compat.o
 .debug_line    0x0000000000000000      0x103 arch/arm/lib/eabi_compat.o
 .debug_str     0x0000000000000000      0x2d4 arch/arm/lib/eabi_compat.o
 .comment       0x0000000000000000       0x34 arch/arm/lib/eabi_compat.o
 .debug_frame   0x0000000000000000       0x68 arch/arm/lib/eabi_compat.o
 .ARM.attributes
                0x0000000000000000       0x2b arch/arm/lib/eabi_compat.o

Memory Configuration

Name             Origin             Length             Attributes
*default*        0x0000000000000000 0xffffffffffffffff

Linker script and memory map

Address of section .text set to 0x24001000
                0x0000000000000000                . = 0x0
                0x0000000000000000                . = ALIGN (0x4)

.text           0x0000000024001000      0x402
 *(.__image_copy_start)
 .__image_copy_start
                0x0000000024001000        0x0 arch/arm/lib/built-in.o
                0x0000000024001000                __image_copy_start
 *(.vectors)
 .vectors       0x0000000024001000      0x3fc arch/arm/lib/built-in.o
                0x0000000024001000                _start
 arch/arm/cpu/armv7m/start.o(.text*)
 .text          0x00000000240013fc        0x6 arch/arm/cpu/armv7m/start.o
                0x00000000240013fc                reset
                0x0000000024001400                c_runtime_cpu_setup

.glue_7         0x0000000024001404        0x0
 .glue_7        0x0000000024001404        0x0 linker stubs

.glue_7t        0x0000000024001404        0x0
 .glue_7t       0x0000000024001404        0x0 linker stubs

.vfp11_veneer   0x0000000024001404        0x0
 .vfp11_veneer  0x0000000024001404        0x0 linker stubs

.v4_bx          0x0000000024001404        0x0
 .v4_bx         0x0000000024001404        0x0 linker stubs

.iplt           0x0000000024001404        0x0
 .iplt          0x0000000024001404        0x0 arch/arm/cpu/armv7m/start.o

.__efi_runtime_start
 *(.__efi_runtime_start)

.efi_runtime
 *(.text.efi_runtime*)
 *(.rodata.efi_runtime*)
 *(.data.efi_runtime*)

.__efi_runtime_stop
 *(.__efi_runtime_stop)

.text_rest      0x0000000024001420    0x4bcdc
 *(.text*)
 .text.cleanup_before_linux
                0x0000000024001420       0x1a arch/arm/cpu/armv7m/built-in.o
                0x0000000024001420                cleanup_before_linux
 *fill*         0x000000002400143a        0x2 
 .text.reset_cpu
                0x000000002400143c       0x24 arch/arm/cpu/armv7m/built-in.o
                0x000000002400143c                reset_cpu
 .text.get_cline_size
                0x0000000024001460       0x34 arch/arm/cpu/armv7m/built-in.o
 .text.action_dcache_all
                0x0000000024001494       0x5c arch/arm/cpu/armv7m/built-in.o
 .text.dcache_status
                0x00000000240014f0       0x12 arch/arm/cpu/armv7m/built-in.o
                0x00000000240014f0                dcache_status
 *fill*         0x0000000024001502        0x2 
 .text.dcache_enable
                0x0000000024001504       0x38 arch/arm/cpu/armv7m/built-in.o
                0x0000000024001504                dcache_enable
 .text.dcache_disable
                0x000000002400153c       0x38 arch/arm/cpu/armv7m/built-in.o
                0x000000002400153c                dcache_disable
 .text.invalidate_dcache_range
                0x0000000024001574       0x3a arch/arm/cpu/armv7m/built-in.o
                0x0000000024001574                invalidate_dcache_range
 .text.flush_dcache_range
                0x00000000240015ae       0x3a arch/arm/cpu/armv7m/built-in.o
                0x00000000240015ae                flush_dcache_range
 .text.flush_dcache_all
                0x00000000240015e8       0x1c arch/arm/cpu/armv7m/built-in.o
                0x00000000240015e8                flush_dcache_all
 .text.invalidate_dcache_all
                0x0000000024001604       0x1c arch/arm/cpu/armv7m/built-in.o
                0x0000000024001604                invalidate_dcache_all
 .text.invalidate_icache_all
                0x0000000024001620       0x18 arch/arm/cpu/armv7m/built-in.o
                0x0000000024001620                invalidate_icache_all
 .text.icache_status
                0x0000000024001638       0x12 arch/arm/cpu/armv7m/built-in.o
                0x0000000024001638                icache_status
 .text.icache_enable
                0x000000002400164a       0x26 arch/arm/cpu/armv7m/built-in.o
                0x000000002400164a                icache_enable
 .text.icache_disable
                0x0000000024001670       0x22 arch/arm/cpu/armv7m/built-in.o
                0x0000000024001670                icache_disable
 .text.enable_caches
                0x0000000024001692        0xe arch/arm/cpu/armv7m/built-in.o
                0x0000000024001692                enable_caches
 .text          0x00000000240016a0      0x3a4 arch/arm/lib/built-in.o
                0x00000000240016c0                _main
                0x0000000024001740                memset
                0x00000000240017e0                memcpy
 .text.relocate_vectors
                0x0000000024001a44       0x50 arch/arm/lib/built-in.o
                0x0000000024001a44                relocate_vectors
                0x0000000024001a50                relocate_code
 .text.do_go_exec
                0x0000000024001a94        0xc arch/arm/lib/built-in.o
                0x0000000024001a94                do_go_exec
 .text.arch_fixup_fdt
                0x0000000024001aa0       0x24 arch/arm/lib/built-in.o
                0x0000000024001aa0                arch_fixup_fdt
 .text.arch_lmb_reserve
                0x0000000024001ac4       0x34 arch/arm/lib/built-in.o
                0x0000000024001ac4                arch_lmb_reserve
 .text.board_quiesce_devices
                0x0000000024001af8        0x2 arch/arm/lib/built-in.o
                0x0000000024001af8                board_quiesce_devices
 *fill*         0x0000000024001afa        0x2 
 .text.boot_jump_linux
                0x0000000024001afc       0x94 arch/arm/lib/built-in.o
 .text.setup_board_tags
                0x0000000024001b90        0x2 arch/arm/lib/built-in.o
                0x0000000024001b90                setup_board_tags
 *fill*         0x0000000024001b92        0x2 
 .text.boot_prep_linux
                0x0000000024001b94      0x138 arch/arm/lib/built-in.o
 .text.do_bootm_linux
                0x0000000024001ccc       0x44 arch/arm/lib/built-in.o
                0x0000000024001ccc                do_bootm_linux
 .text.boot_prep_vxworks
                0x0000000024001d10       0x34 arch/arm/lib/built-in.o
                0x0000000024001d10                boot_prep_vxworks
 .text.boot_jump_vxworks
                0x0000000024001d44        0xa arch/arm/lib/built-in.o
                0x0000000024001d44                boot_jump_vxworks
 .text.arch_reserve_stacks
                0x0000000024001d4e       0x16 arch/arm/lib/built-in.o
                0x0000000024001d4e                arch_reserve_stacks
 .text.interrupt_init
                0x0000000024001d64        0x4 arch/arm/lib/built-in.o
                0x0000000024001d64                interrupt_init
 .text.enable_interrupts
                0x0000000024001d68        0x2 arch/arm/lib/built-in.o
                0x0000000024001d68                enable_interrupts
 .text.disable_interrupts
                0x0000000024001d6a        0x4 arch/arm/lib/built-in.o
                0x0000000024001d6a                disable_interrupts
 *fill*         0x0000000024001d6e        0x2 
 .text.dump_regs
                0x0000000024001d70       0x30 arch/arm/lib/built-in.o
                0x0000000024001d70                dump_regs
 .text.bad_mode
                0x0000000024001da0        0xc arch/arm/lib/built-in.o
                0x0000000024001da0                bad_mode
 .text.do_hard_fault
                0x0000000024001dac       0x18 arch/arm/lib/built-in.o
                0x0000000024001dac                do_hard_fault
 .text.do_mm_fault
                0x0000000024001dc4       0x18 arch/arm/lib/built-in.o
                0x0000000024001dc4                do_mm_fault
 .text.do_bus_fault
                0x0000000024001ddc       0x18 arch/arm/lib/built-in.o
                0x0000000024001ddc                do_bus_fault
 .text.do_usage_fault
                0x0000000024001df4       0x18 arch/arm/lib/built-in.o
                0x0000000024001df4                do_usage_fault
 .text.do_invalid_entry
                0x0000000024001e0c       0x18 arch/arm/lib/built-in.o
                0x0000000024001e0c                do_invalid_entry
 .text.reset_misc
                0x0000000024001e24        0x2 arch/arm/lib/built-in.o
                0x0000000024001e24                reset_misc
 *fill*         0x0000000024001e26        0x2 
 .text.do_reset
                0x0000000024001e28       0x28 arch/arm/lib/built-in.o
                0x0000000024001e28                do_reset
 .text.flush_cache
                0x0000000024001e50        0x6 arch/arm/lib/built-in.o
                0x0000000024001e50                flush_cache
 .text.arch_cpu_init
                0x0000000024001e56        0x4 arch/arm/mach-stm32/built-in.o
                0x0000000024001e56                arch_cpu_init
 *fill*         0x0000000024001e5a        0x2 
 .text.stm32_syscon_probe
                0x0000000024001e5c       0x44 arch/arm/mach-stm32/built-in.o
 .text.prepare_abi
                0x0000000024001ea0        0x8 board/emcraft/stm32h7-som/built-in.o
 .text.arch_early_init_r
                0x0000000024001ea8       0x34 board/emcraft/stm32h7-som/built-in.o
                0x0000000024001ea8                arch_early_init_r
 .text.dram_init
                0x0000000024001edc       0xac board/emcraft/stm32h7-som/built-in.o
                0x0000000024001edc                dram_init
 .text.dram_init_banksize
                0x0000000024001f88        0xa board/emcraft/stm32h7-som/built-in.o
                0x0000000024001f88                dram_init_banksize
 .text.board_early_init_f
                0x0000000024001f92        0x4 board/emcraft/stm32h7-som/built-in.o
                0x0000000024001f92                board_early_init_f
 .text.get_board_rev
                0x0000000024001f96        0x4 board/emcraft/stm32h7-som/built-in.o
                0x0000000024001f96                get_board_rev
 *fill*         0x0000000024001f9a        0x2 
 .text.board_late_init
                0x0000000024001f9c      0x13c board/emcraft/stm32h7-som/built-in.o
                0x0000000024001f9c                board_late_init
 .text.board_init
                0x00000000240020d8       0x14 board/emcraft/stm32h7-som/built-in.o
                0x00000000240020d8                board_init
 .text.board_interface_eth_init
                0x00000000240020ec       0x38 board/emcraft/stm32h7-som/built-in.o
                0x00000000240020ec                board_interface_eth_init
 .text.do_go    0x0000000024002124       0x4c cmd/built-in.o
 .text.do_bootm
                0x0000000024002170       0xa0 cmd/built-in.o
                0x0000000024002170                do_bootm
 .text.do_bootd
                0x0000000024002210       0x18 cmd/built-in.o
                0x0000000024002210                do_bootd
 .text.image_info
                0x0000000024002228       0x5c cmd/built-in.o
 .text.do_iminfo
                0x0000000024002284       0x40 cmd/built-in.o
 .text.bootm_maybe_autostart
                0x00000000240022c4       0x4c cmd/built-in.o
                0x00000000240022c4                bootm_maybe_autostart
 .text.do_help  0x0000000024002310       0x2c cmd/built-in.o
 .text.do_version
                0x000000002400233c       0x30 cmd/built-in.o
 .text.source   0x000000002400236c       0xd0 cmd/built-in.o
                0x000000002400236c                source
 .text.do_source
                0x000000002400243c       0x50 cmd/built-in.o
 .text.print_num
                0x000000002400248c       0x10 cmd/built-in.o
 .text.do_bdinfo
                0x000000002400249c       0xc4 cmd/built-in.o
 .text.do_blkcache
                0x0000000024002560       0x3c cmd/built-in.o
 .text.blkc_configure
                0x000000002400259c       0x40 cmd/built-in.o
 .text.blkc_show
                0x00000000240025dc       0x28 cmd/built-in.o
 .text.parse_argv
                0x0000000024002604       0x3c cmd/built-in.o
 .text.do_icache
                0x0000000024002640       0x5c cmd/built-in.o
 .text.do_dcache
                0x000000002400269c       0x5c cmd/built-in.o
 .text.do_clk   0x00000000240026f8       0x3c cmd/built-in.o
 .text.soc_clk_dump
                0x0000000024002734       0x80 cmd/built-in.o
                0x0000000024002734                soc_clk_dump
 .text.do_clk_dump
                0x00000000240027b4       0x1c cmd/built-in.o
 .text.do_coninfo
                0x00000000240027d0       0x94 cmd/built-in.o
 .text.do_dm_dump_devres
                0x0000000024002864        0x4 cmd/built-in.o
 .text.do_dm    0x0000000024002868       0x44 cmd/built-in.o
 .text.do_dm_dump_uclass
                0x00000000240028ac        0xa cmd/built-in.o
 .text.do_dm_dump_all
                0x00000000240028b6        0xa cmd/built-in.o
 .text.do_echo  0x00000000240028c0       0x80 cmd/built-in.o
 .text.load_elf_image_phdr
                0x0000000024002940       0xc4 cmd/built-in.o
 .text.valid_elf_image
                0x0000000024002a04       0x30 cmd/built-in.o
                0x0000000024002a04                valid_elf_image
 .text.do_bootelf
                0x0000000024002a34      0x1a0 cmd/built-in.o
                0x0000000024002a34                do_bootelf
 .text.do_bootvx
                0x0000000024002bd4      0x230 cmd/built-in.o
                0x0000000024002bd4                do_bootvx
 .text.do_exit  0x0000000024002e04       0x20 cmd/built-in.o
 .text.do_fat_size
                0x0000000024002e24        0xe cmd/built-in.o
                0x0000000024002e24                do_fat_size
 .text.do_fat_fsload
                0x0000000024002e32        0xe cmd/built-in.o
                0x0000000024002e32                do_fat_fsload
 .text.do_fat_ls
                0x0000000024002e40        0xe cmd/built-in.o
 *fill*         0x0000000024002e4e        0x2 
 .text.do_fat_fsinfo
                0x0000000024002e50       0x54 cmd/built-in.o
 .text.fdt_valid
                0x0000000024002ea4       0x74 cmd/built-in.o
 .text.is_printable_string
                0x0000000024002f18       0x4c cmd/built-in.o
 .text.print_data.part.0
                0x0000000024002f64       0xfc cmd/built-in.o
 .text.set_working_fdt_addr
                0x0000000024003060       0x14 cmd/built-in.o
                0x0000000024003060                set_working_fdt_addr
 .text.do_fdt   0x0000000024003074      0xad0 cmd/built-in.o
 .text.flash_fill_sect_ranges
                0x0000000024003b44       0xe4 cmd/built-in.o
 .text.abbrev_spec
                0x0000000024003c28       0xc0 cmd/built-in.o
 .text.do_flinfo
                0x0000000024003ce8       0x40 cmd/built-in.o
 .text.flash_sect_roundb
                0x0000000024003d28       0x5c cmd/built-in.o
                0x0000000024003d28                flash_sect_roundb
 .text.addr_spec
                0x0000000024003d84       0x60 cmd/built-in.o
 .text.flash_sect_erase
                0x0000000024003de4       0x60 cmd/built-in.o
                0x0000000024003de4                flash_sect_erase
 .text.do_flerase
                0x0000000024003e44      0x104 cmd/built-in.o
 .text.flash_sect_protect
                0x0000000024003f48       0x7c cmd/built-in.o
                0x0000000024003f48                flash_sect_protect
 .text.do_protect
                0x0000000024003fc4      0x174 cmd/built-in.o
 .text.evalexp  0x0000000024004138       0x4c cmd/built-in.o
 .text.evalstr  0x0000000024004184       0x3c cmd/built-in.o
 .text.binary_test
                0x00000000240041c0       0xf4 cmd/built-in.o
 .text.do_itest
                0x00000000240042b4       0x4c cmd/built-in.o
 .text.bin_data_init
                0x0000000024004300       0x1c cmd/built-in.o
 .text.k_data_save
                0x000000002400431c       0x34 cmd/built-in.o
 .text.k_data_restore
                0x0000000024004350       0x34 cmd/built-in.o
 .text.getcxmodem
                0x0000000024004384       0x16 cmd/built-in.o
 *fill*         0x000000002400439a        0x2 
 .text.bin_data_char
                0x000000002400439c       0x1c cmd/built-in.o
 .text.chk1.constprop.0
                0x00000000240043b8       0x20 cmd/built-in.o
 .text.s1_sendpacket.constprop.0
                0x00000000240043d8       0x34 cmd/built-in.o
 .text.load_serial
                0x000000002400440c      0x13c cmd/built-in.o
 .text.do_load_serial
                0x0000000024004548       0x8c cmd/built-in.o
 .text.load_serial_ymodem.isra.0
                0x00000000240045d4       0xb0 cmd/built-in.o
 .text.do_load_serial_bin
                0x0000000024004684      0x518 cmd/built-in.o
 .text.do_mem_md
                0x0000000024004b9c       0xa0 cmd/built-in.o
 .text.do_mem_base
                0x0000000024004c3c       0x28 cmd/built-in.o
 .text.do_mem_crc
                0x0000000024004c64       0x2c cmd/built-in.o
 .text.do_mem_mtest
                0x0000000024004c90      0x160 cmd/built-in.o
 .text.do_mem_mw
                0x0000000024004df0       0x78 cmd/built-in.o
 .text.do_mem_loop
                0x0000000024004e68       0x82 cmd/built-in.o
 *fill*         0x0000000024004eea        0x2 
 .text.do_mem_cmp
                0x0000000024004eec       0xe8 cmd/built-in.o
 .text.mod_mem.part.0
                0x0000000024004fd4       0xec cmd/built-in.o
 .text.do_mem_mm
                0x00000000240050c0       0x12 cmd/built-in.o
 .text.do_mem_nm
                0x00000000240050d2       0x12 cmd/built-in.o
 .text.do_mem_cp
                0x00000000240050e4       0xac cmd/built-in.o
 .text.extract_range
                0x0000000024005190       0x7a cmd/built-in.o
 *fill*         0x000000002400520a        0x2 
 .text.do_mii   0x000000002400520c      0x618 cmd/built-in.o
 .text.do_mdio  0x0000000024005824      0x30c cmd/built-in.o
 .text.do_sleep
                0x0000000024005b30       0x80 cmd/built-in.o
 .text.do_timer
                0x0000000024005bb0       0x64 cmd/built-in.o
 .text.do_mmcops
                0x0000000024005c14       0x84 cmd/built-in.o
 .text.do_mmc_setdsr
                0x0000000024005c98       0x70 cmd/built-in.o
 .text.init_mmc_device
                0x0000000024005d08       0x48 cmd/built-in.o
 .text.do_mmc_rescan
                0x0000000024005d50       0x18 cmd/built-in.o
 .text.do_mmc_hwpartition
                0x0000000024005d68      0x3a4 cmd/built-in.o
 .text.do_mmc_list
                0x000000002400610c        0xc cmd/built-in.o
 .text.do_mmc_dev
                0x0000000024006118       0xc4 cmd/built-in.o
 .text.do_mmcinfo
                0x00000000240061dc      0x2bc cmd/built-in.o
 .text.do_mmc_part
                0x0000000024006498       0x38 cmd/built-in.o
 .text.do_mmc_erase
                0x00000000240064d0       0x9c cmd/built-in.o
 .text.do_mmc_write
                0x000000002400656c       0xb0 cmd/built-in.o
 .text.do_mmc_read
                0x000000002400661c       0x9c cmd/built-in.o
 .text.complete_mtd
                0x00000000240066b8       0x1c cmd/built-in.o
 .text.mtd_dump_buf
                0x00000000240066d4       0x84 cmd/built-in.o
 .text.mtd_show_parts
                0x0000000024006758       0x70 cmd/built-in.o
 .text.get_mtd_by_name
                0x00000000240067c8       0x2c cmd/built-in.o
 .text.do_mtd_list
                0x00000000240067f4      0x174 cmd/built-in.o
 .text.mtd_name_complete
                0x0000000024006968       0x98 cmd/built-in.o
 .text.do_mtd   0x0000000024006a00       0x58 cmd/built-in.o
 .text.do_mtd_bad
                0x0000000024006a58       0x7c cmd/built-in.o
 .text.mtd_is_aligned_with_block_size.isra.0
                0x0000000024006ad4       0x26 cmd/built-in.o
 *fill*         0x0000000024006afa        0x2 
 .text.do_mtd_erase
                0x0000000024006afc      0x190 cmd/built-in.o
 .text.mtd_is_aligned_with_min_io_size.isra.0
                0x0000000024006c8c       0x26 cmd/built-in.o
 .text.mtd_len_to_pages.isra.0
                0x0000000024006cb2       0x20 cmd/built-in.o
 *fill*         0x0000000024006cd2        0x2 
 .text.do_mtd_io
                0x0000000024006cd4      0x480 cmd/built-in.o
 .text.netboot_common
                0x0000000024007154      0x1d4 cmd/built-in.o
 .text.do_bootp
                0x0000000024007328        0x8 cmd/built-in.o
 .text.do_nfs   0x0000000024007330        0x8 cmd/built-in.o
 .text.do_tftpb
                0x0000000024007338       0x26 cmd/built-in.o
                0x0000000024007338                do_tftpb
 *fill*         0x000000002400735e        0x2 
 .text.do_pinmux
                0x0000000024007360       0x40 cmd/built-in.o
 .text.do_list  0x00000000240073a0       0x68 cmd/built-in.o
 .text.show_pinmux
                0x0000000024007408       0x90 cmd/built-in.o
 .text.do_status
                0x0000000024007498       0x9c cmd/built-in.o
 .text.do_dev   0x0000000024007534       0x54 cmd/built-in.o
 .text.bytes_per_second
                0x0000000024007588       0x2c cmd/built-in.o
 .text.do_spi_flash
                0x00000000240075b4      0x574 cmd/built-in.o
 .text.do_false
                0x0000000024007b28        0x4 cmd/built-in.o
 .text.do_true  0x0000000024007b2c        0x4 cmd/built-in.o
 .text.do_test  0x0000000024007b30      0x200 cmd/built-in.o
 .text.ubi_find_volume
                0x0000000024007d30       0x44 cmd/built-in.o
 .text.ubi_volume_continue_write
                0x0000000024007d74       0x68 cmd/built-in.o
 .text.ubi_detach
                0x0000000024007ddc       0x20 cmd/built-in.o
 .text.ubi_volume_begin_write
                0x0000000024007dfc       0x68 cmd/built-in.o
                0x0000000024007dfc                ubi_volume_begin_write
 .text.ubi_volume_write
                0x0000000024007e64        0x6 cmd/built-in.o
                0x0000000024007e64                ubi_volume_write
 *fill*         0x0000000024007e6a        0x2 
 .text.ubi_volume_read
                0x0000000024007e6c      0x170 cmd/built-in.o
                0x0000000024007e6c                ubi_volume_read
 .text.ubi_part
                0x0000000024007fdc       0x98 cmd/built-in.o
                0x0000000024007fdc                ubi_part
 .text.do_ubi   0x0000000024008074      0x5e8 cmd/built-in.o
 .text.do_ubifs_mkdir
                0x000000002400865c       0x38 cmd/built-in.o
                0x000000002400865c                do_ubifs_mkdir
 .text.do_ubifs_rmdir
                0x0000000024008694       0x2c cmd/built-in.o
                0x0000000024008694                do_ubifs_rmdir
 .text.do_ubifs_unlink
                0x00000000240086c0       0x2c cmd/built-in.o
                0x00000000240086c0                do_ubifs_unlink
 .text.do_ubifs_ls
                0x00000000240086ec       0x44 cmd/built-in.o
 .text.do_ubifs_load
                0x0000000024008730       0x74 cmd/built-in.o
 .text.do_ubifs_write
                0x00000000240087a4       0xbc cmd/built-in.o
 .text.cmd_ubifs_mount
                0x0000000024008860       0x30 cmd/built-in.o
                0x0000000024008860                cmd_ubifs_mount
 .text.do_ubifs_mount
                0x0000000024008890       0x10 cmd/built-in.o
 .text.ubifs_is_mounted
                0x00000000240088a0        0xc cmd/built-in.o
                0x00000000240088a0                ubifs_is_mounted
 .text.cmd_ubifs_umount
                0x00000000240088ac       0x30 cmd/built-in.o
                0x00000000240088ac                cmd_ubifs_umount
 .text.do_ubifs_umount
                0x00000000240088dc        0xe cmd/built-in.o
 *fill*         0x00000000240088ea        0x2 
 .text.do_imgextract
                0x00000000240088ec      0x1ac cmd/built-in.o
 .text.extract_val
                0x0000000024008a98       0x58 cmd/built-in.o
 .text.extract_env
                0x0000000024008af0       0xa0 cmd/built-in.o
 .text.set_gpt_info.constprop.0
                0x0000000024008b90      0x32c cmd/built-in.o
 .text.do_gpt   0x0000000024008ebc      0x1f8 cmd/built-in.o
 .text.do_env_delete
                0x00000000240090b4       0x6c cmd/built-in.o
 .text.do_env_save
                0x0000000024009120        0xe cmd/built-in.o
 *fill*         0x000000002400912e        0x2 
 .text.do_env   0x0000000024009130       0x3c cmd/built-in.o
 .text.env_print
                0x000000002400916c       0x78 cmd/built-in.o
 .text.do_env_print
                0x00000000240091e4       0x78 cmd/built-in.o
 .text.do_env_import
                0x000000002400925c      0x1a0 cmd/built-in.o
 .text.do_env_default
                0x00000000240093fc       0x5c cmd/built-in.o
 .text.do_env_exists
                0x0000000024009458       0x40 cmd/built-in.o
 .text._do_env_set.constprop.0
                0x0000000024009498      0x11c cmd/built-in.o
 .text.do_env_set
                0x00000000240095b4       0x14 cmd/built-in.o
 .text.get_env_id
                0x00000000240095c8        0xc cmd/built-in.o
                0x00000000240095c8                get_env_id
 .text.env_set  0x00000000240095d4       0x3c cmd/built-in.o
                0x00000000240095d4                env_set
 .text.env_set_ulong
                0x0000000024009610       0x16 cmd/built-in.o
                0x0000000024009610                env_set_ulong
 *fill*         0x0000000024009626        0x2 
 .text.env_set_hex
                0x0000000024009628       0x20 cmd/built-in.o
                0x0000000024009628                env_set_hex
 .text.do_env_export
                0x0000000024009648      0x15c cmd/built-in.o
 .text.eth_parse_enetaddr
                0x00000000240097a4       0x30 cmd/built-in.o
                0x00000000240097a4                eth_parse_enetaddr
 .text.envmatch
                0x00000000240097d4       0x48 cmd/built-in.o
                0x00000000240097d4                envmatch
 .text.env_get_f
                0x000000002400981c       0x84 cmd/built-in.o
                0x000000002400981c                env_get_f
 .text.env_get  0x00000000240098a0       0x50 cmd/built-in.o
                0x00000000240098a0                env_get
 .text.env_get_hex
                0x00000000240098f0       0x20 cmd/built-in.o
                0x00000000240098f0                env_get_hex
 .text.eth_env_get_enetaddr
                0x0000000024009910       0x34 cmd/built-in.o
                0x0000000024009910                eth_env_get_enetaddr
 .text.eth_env_set_enetaddr
                0x0000000024009944       0x30 cmd/built-in.o
                0x0000000024009944                eth_env_set_enetaddr
 .text.env_get_ulong
                0x0000000024009974       0x1c cmd/built-in.o
                0x0000000024009974                env_get_ulong
 .text.do_env_edit.part.0
                0x0000000024009990       0x6c cmd/built-in.o
 .text.do_env_edit
                0x00000000240099fc       0x1c cmd/built-in.o
 .text.board_init_f_alloc_reserve
                0x0000000024009a18        0xa common/built-in.o
                0x0000000024009a18                board_init_f_alloc_reserve
 .text.board_init_f_init_reserve
                0x0000000024009a22       0x14 common/built-in.o
                0x0000000024009a22                board_init_f_init_reserve
 .text.show_boot_progress
                0x0000000024009a36        0x4 common/built-in.o
                0x0000000024009a36                show_boot_progress
 *fill*         0x0000000024009a3a        0x2 
 .text.main_loop
                0x0000000024009a3c       0x34 common/built-in.o
                0x0000000024009a3c                main_loop
 .text.mdelay   0x0000000024009a70        0xa common/built-in.o
 .text.dummy    0x0000000024009a7a        0x2 common/built-in.o
 .text.get_version
                0x0000000024009a7c        0x4 common/built-in.o
                0x0000000024009a7c                get_version
 .text.jumptable_init
                0x0000000024009a80      0x160 common/built-in.o
                0x0000000024009a80                jumptable_init
 .text.hash_finish_crc32
                0x0000000024009be0       0x1c common/built-in.o
 .text.hash_finish_crc16_ccitt
                0x0000000024009bfc       0x1c common/built-in.o
 .text.hash_update_crc32
                0x0000000024009c18       0x14 common/built-in.o
 .text.hash_init_crc32
                0x0000000024009c2c       0x14 common/built-in.o
 .text.hash_init_crc16_ccitt
                0x0000000024009c40       0x14 common/built-in.o
 .text.hash_update_crc16_ccitt
                0x0000000024009c54       0x14 common/built-in.o
 .text.hash_finish_sha256
                0x0000000024009c68       0x22 common/built-in.o
 .text.hash_update_sha256
                0x0000000024009c8a       0x10 common/built-in.o
 .text.hash_init_sha256
                0x0000000024009c9a       0x16 common/built-in.o
 .text.hash_finish_sha1
                0x0000000024009cb0       0x22 common/built-in.o
 .text.hash_update_sha1
                0x0000000024009cd2       0x10 common/built-in.o
 .text.hash_init_sha1
                0x0000000024009ce2       0x16 common/built-in.o
 .text.hash_lookup_algo
                0x0000000024009cf8       0x38 common/built-in.o
                0x0000000024009cf8                hash_lookup_algo
 .text.hash_progressive_lookup_algo
                0x0000000024009d30       0x3c common/built-in.o
                0x0000000024009d30                hash_progressive_lookup_algo
 .text.hash_command
                0x0000000024009d6c      0x130 common/built-in.o
                0x0000000024009d6c                hash_command
 .text.b_reset  0x0000000024009e9c        0xe common/built-in.o
 .text.static_get
                0x0000000024009eaa       0x12 common/built-in.o
 .text.static_peek
                0x0000000024009ebc        0x6 common/built-in.o
 *fill*         0x0000000024009ec2        0x2 
 .text.mapset   0x0000000024009ec4       0x14 common/built-in.o
 .text.syntax_err
                0x0000000024009ed8        0xc common/built-in.o
 .text.xmalloc  0x0000000024009ee4       0x18 common/built-in.o
 .text.new_pipe
                0x0000000024009efc       0x16 common/built-in.o
 *fill*         0x0000000024009f12        0x2 
 .text.xrealloc
                0x0000000024009f14       0x18 common/built-in.o
 .text.is_assignment
                0x0000000024009f2c       0x30 common/built-in.o
 .text.do_showvar
                0x0000000024009f5c       0xa0 common/built-in.o
 .text.b_addchr
                0x0000000024009ffc       0x42 common/built-in.o
 .text.done_command.isra.0
                0x000000002400a03e       0x40 common/built-in.o
 .text.done_pipe.isra.0
                0x000000002400a07e       0x2c common/built-in.o
 *fill*         0x000000002400a0aa        0x2 
 .text.done_word
                0x000000002400a0ac      0x1c0 common/built-in.o
 .text.free_pipe_list.isra.0
                0x000000002400a26c       0x7c common/built-in.o
 .text.file_get
                0x000000002400a2e8      0x138 common/built-in.o
 .text.b_addqchr.isra.0
                0x000000002400a420       0x30 common/built-in.o
 .text.file_peek
                0x000000002400a450        0x6 common/built-in.o
 *fill*         0x000000002400a456        0x2 
 .text.get_local_var
                0x000000002400a458       0x58 common/built-in.o
                0x000000002400a458                get_local_var
 .text.set_local_var
                0x000000002400a4b0      0x108 common/built-in.o
                0x000000002400a4b0                set_local_var
 .text.insert_var_value_sub
                0x000000002400a5b8      0x1bc common/built-in.o
 .text.parse_string_outer
                0x000000002400a774       0x90 common/built-in.o
                0x000000002400a774                parse_string_outer
 .text.run_list_real
                0x000000002400a804      0x4d4 common/built-in.o
 .text.parse_stream_outer
                0x000000002400acd8      0x420 common/built-in.o
 .text.parse_file_outer
                0x000000002400b0f8       0x2c common/built-in.o
                0x000000002400b0f8                parse_file_outer
 .text.u_boot_hush_start
                0x000000002400b124       0x30 common/built-in.o
                0x000000002400b124                u_boot_hush_start
 .text.bootdelay_process
                0x000000002400b154      0x104 common/built-in.o
                0x000000002400b154                bootdelay_process
 .text.autoboot_command
                0x000000002400b258       0xa4 common/built-in.o
                0x000000002400b258                autoboot_command
 .text.log_init
                0x000000002400b2fc        0x8 common/built-in.o
 .text.display_text_info
                0x000000002400b304        0x4 common/built-in.o
 .text.setup_mon_len
                0x000000002400b308       0x18 common/built-in.o
 .text.reserve_round_4k
                0x000000002400b320       0x14 common/built-in.o
 .text.reserve_mmu
                0x000000002400b334       0x2e common/built-in.o
                0x000000002400b334                reserve_mmu
 .text.reserve_uboot
                0x000000002400b362       0x30 common/built-in.o
 .text.reserve_malloc
                0x000000002400b392       0x10 common/built-in.o
 .text.reserve_global_data
                0x000000002400b3a2       0x16 common/built-in.o
 .text.reserve_fdt
                0x000000002400b3b8       0x3a common/built-in.o
 .text.setup_reloc
                0x000000002400b3f2       0x2a common/built-in.o
 .text.reloc_fdt
                0x000000002400b41c       0x2c common/built-in.o
 .text.reserve_board
                0x000000002400b448       0x28 common/built-in.o
 .text.reserve_video
                0x000000002400b470       0x18 common/built-in.o
 .text.reserve_pram
                0x000000002400b488       0x20 common/built-in.o
 .text.init_baud_rate
                0x000000002400b4a8       0x1c common/built-in.o
 .text.announce_dram_init
                0x000000002400b4c4       0x10 common/built-in.o
 .text.initf_dm
                0x000000002400b4d4        0x6 common/built-in.o
 .text.initf_bootstage
                0x000000002400b4da        0xc common/built-in.o
 .text.arch_cpu_init_dm
                0x000000002400b4e6        0x4 common/built-in.o
                0x000000002400b4e6                arch_cpu_init_dm
 .text.setup_spl_handoff
                0x000000002400b4ea        0x4 common/built-in.o
 .text.mach_cpu_init
                0x000000002400b4ee        0x4 common/built-in.o
                0x000000002400b4ee                mach_cpu_init
 .text.reserve_trace
                0x000000002400b4f2        0x4 common/built-in.o
 .text.setup_machine
                0x000000002400b4f6        0x4 common/built-in.o
 .text.reserve_bootstage
                0x000000002400b4fa        0x4 common/built-in.o
 .text.reserve_bloblist
                0x000000002400b4fe        0x4 common/built-in.o
 .text.display_new_sp
                0x000000002400b502        0x4 common/built-in.o
 .text.reloc_bootstage
                0x000000002400b506        0x4 common/built-in.o
 .text.reloc_bloblist
                0x000000002400b50a        0x4 common/built-in.o
 .text.initf_console_record
                0x000000002400b50e        0x4 common/built-in.o
 .text.reserve_arch
                0x000000002400b512        0x4 common/built-in.o
                0x000000002400b512                reserve_arch
 .text.coloured_LED_init
                0x000000002400b516        0x2 common/built-in.o
                0x000000002400b516                coloured_LED_init
 .text.red_led_on
                0x000000002400b518        0x2 common/built-in.o
                0x000000002400b518                red_led_on
 .text.board_add_ram_info
                0x000000002400b51a        0x2 common/built-in.o
                0x000000002400b51a                board_add_ram_info
 .text.show_dram_config
                0x000000002400b51c       0x28 common/built-in.o
 .text.board_get_usable_ram_top
                0x000000002400b544        0x6 common/built-in.o
                0x000000002400b544                board_get_usable_ram_top
 .text.setup_dest_addr
                0x000000002400b54a       0x28 common/built-in.o
 .text.reserve_stacks
                0x000000002400b572       0x1a common/built-in.o
 .text.board_init_f
                0x000000002400b58c       0x4c common/built-in.o
                0x000000002400b58c                board_init_f
 .text.initr_trace
                0x000000002400b5d8        0x4 common/built-in.o
 .text.initr_reloc
                0x000000002400b5dc       0x14 common/built-in.o
 .text.initr_reloc_global_data
                0x000000002400b5f0       0x28 common/built-in.o
 .text.initr_mem
                0x000000002400b618       0x3c common/built-in.o
                0x000000002400b618                initr_mem
 .text.run_main_loop
                0x000000002400b654        0x8 common/built-in.o
 .text.initr_net
                0x000000002400b65c       0x14 common/built-in.o
 .text.initr_ethaddr
                0x000000002400b670       0x18 common/built-in.o
 .text.initr_enable_interrupts
                0x000000002400b688        0xa common/built-in.o
 .text.initr_jumptable
                0x000000002400b692        0xa common/built-in.o
 .text.initr_env
                0x000000002400b69c       0x48 common/built-in.o
 .text.initr_mmc
                0x000000002400b6e4       0x18 common/built-in.o
 .text.initr_serial
                0x000000002400b6fc        0xa common/built-in.o
 .text.initr_dm
                0x000000002400b706       0x16 common/built-in.o
 .text.initr_bootstage
                0x000000002400b71c        0xc common/built-in.o
 .text.initr_malloc
                0x000000002400b728       0x16 common/built-in.o
 .text.initr_caches
                0x000000002400b73e        0xa common/built-in.o
 .text.bootstage_relocate
                0x000000002400b748        0x4 common/built-in.o
 .text.initr_barrier
                0x000000002400b74c        0x4 common/built-in.o
 .text.initr_console_record
                0x000000002400b750        0x4 common/built-in.o
 .text.power_init_board
                0x000000002400b754        0x4 common/built-in.o
                0x000000002400b754                power_init_board
 .text.initr_announce
                0x000000002400b758        0x4 common/built-in.o
 .text.board_flash_wp_on
                0x000000002400b75c        0x4 common/built-in.o
                0x000000002400b75c                board_flash_wp_on
 .text.initr_flash
                0x000000002400b760       0x4c common/built-in.o
 .text.cpu_secondary_init_r
                0x000000002400b7ac        0x2 common/built-in.o
                0x000000002400b7ac                cpu_secondary_init_r
 .text.initr_secondary_cpu
                0x000000002400b7ae        0xa common/built-in.o
 .text.board_init_r
                0x000000002400b7b8       0x4c common/built-in.o
                0x000000002400b7b8                board_init_r
 .text.checkboard
                0x000000002400b804        0x4 common/built-in.o
                0x000000002400b804                checkboard
 .text.show_board_info
                0x000000002400b808       0x2c common/built-in.o
                0x000000002400b808                show_board_info
 .text.bootm_find_images
                0x000000002400b834       0x88 common/built-in.o
                0x000000002400b834                bootm_find_images
 .text.bootm_decomp_image
                0x000000002400b8bc      0x104 common/built-in.o
                0x000000002400b8bc                bootm_decomp_image
 .text.do_bootm_states
                0x000000002400b9c0      0x4dc common/built-in.o
                0x000000002400b9c0                do_bootm_states
 .text.copy_args
                0x000000002400be9c       0x32 common/built-in.o
 *fill*         0x000000002400bece        0x2 
 .text.do_bootm_vxworks
                0x000000002400bed0       0xdc common/built-in.o
                0x000000002400bed0                do_bootm_vxworks
 .text.do_bootm_plan9
                0x000000002400bfac       0x70 common/built-in.o
 .text.do_bootm_netbsd
                0x000000002400c01c       0xac common/built-in.o
 .text.do_bootm_qnxelf
                0x000000002400c0c8       0x50 common/built-in.o
 .text.do_bootm_standalone
                0x000000002400c118       0x40 common/built-in.o
 .text.do_bootm_rtems
                0x000000002400c158       0x30 common/built-in.o
 .text.arch_preboot_os
                0x000000002400c188        0x2 common/built-in.o
                0x000000002400c188                arch_preboot_os
 .text.board_preboot_os
                0x000000002400c18a        0x2 common/built-in.o
                0x000000002400c18a                board_preboot_os
 .text.boot_selected_os
                0x000000002400c18c       0x3e common/built-in.o
                0x000000002400c18c                boot_selected_os
 *fill*         0x000000002400c1ca        0x2 
 .text.bootm_os_get_boot_func
                0x000000002400c1cc        0xc common/built-in.o
                0x000000002400c1cc                bootm_os_get_boot_func
 .text.of_bus_default_map
                0x000000002400c1d8       0x70 common/built-in.o
 .text.of_bus_default_translate
                0x000000002400c248       0x66 common/built-in.o
 *fill*         0x000000002400c2ae        0x2 
 .text.fdt_support_default_count_cells
                0x000000002400c2b0       0x34 common/built-in.o
                0x000000002400c2b0                fdt_support_default_count_cells
 .text.fdt_find_and_setprop
                0x000000002400c2e4       0x46 common/built-in.o
                0x000000002400c2e4                fdt_find_and_setprop
 *fill*         0x000000002400c32a        0x2 
 .text.fdt_find_or_add_subnode
                0x000000002400c32c       0x40 common/built-in.o
                0x000000002400c32c                fdt_find_or_add_subnode
 .text.fdt_root
                0x000000002400c36c       0x60 common/built-in.o
                0x000000002400c36c                fdt_root
 .text.fdt_initrd
                0x000000002400c3cc      0x12c common/built-in.o
                0x000000002400c3cc                fdt_initrd
 .text.fdt_chosen
                0x000000002400c4f8       0x6c common/built-in.o
                0x000000002400c4f8                fdt_chosen
 .text.do_fixup_by_path
                0x000000002400c564       0x34 common/built-in.o
                0x000000002400c564                do_fixup_by_path
 .text.fdt_fixup_memory_banks
                0x000000002400c598      0x18c common/built-in.o
                0x000000002400c598                fdt_fixup_memory_banks
 .text.fdt_fixup_memory
                0x000000002400c724       0x16 common/built-in.o
                0x000000002400c724                fdt_fixup_memory
 *fill*         0x000000002400c73a        0x2 
 .text.fdt_fixup_ethernet
                0x000000002400c73c      0x108 common/built-in.o
                0x000000002400c73c                fdt_fixup_ethernet
 .text.fdt_shrink_to_minimum
                0x000000002400c844       0x82 common/built-in.o
                0x000000002400c844                fdt_shrink_to_minimum
 *fill*         0x000000002400c8c6        0x2 
 .text.fdt_translate_address
                0x000000002400c8c8      0x174 common/built-in.o
                0x000000002400c8c8                fdt_translate_address
 .text.fdt_overlay_apply_verbose
                0x000000002400ca3c       0x4c common/built-in.o
                0x000000002400ca3c                fdt_overlay_apply_verbose
 .text.miiphy_get_dev_by_name
                0x000000002400ca88       0x34 common/built-in.o
                0x000000002400ca88                miiphy_get_dev_by_name
 .text.miiphy_init
                0x000000002400cabc       0x18 common/built-in.o
                0x000000002400cabc                miiphy_init
 .text.mdio_alloc
                0x000000002400cad4       0x1c common/built-in.o
                0x000000002400cad4                mdio_alloc
 .text.mdio_free
                0x000000002400caf0        0x4 common/built-in.o
                0x000000002400caf0                mdio_free
 .text.mdio_register
                0x000000002400caf4       0x4c common/built-in.o
                0x000000002400caf4                mdio_register
 .text.mdio_unregister
                0x000000002400cb40       0x24 common/built-in.o
                0x000000002400cb40                mdio_unregister
 .text.mdio_list_devices
                0x000000002400cb64       0x78 common/built-in.o
                0x000000002400cb64                mdio_list_devices
 .text.miiphy_set_current_dev
                0x000000002400cbdc       0x28 common/built-in.o
                0x000000002400cbdc                miiphy_set_current_dev
 .text.miiphy_get_active_dev
                0x000000002400cc04       0x2c common/built-in.o
 .text.mdio_get_current_dev
                0x000000002400cc30        0xc common/built-in.o
                0x000000002400cc30                mdio_get_current_dev
 .text.mdio_phydev_for_ethname
                0x000000002400cc3c       0x50 common/built-in.o
                0x000000002400cc3c                mdio_phydev_for_ethname
 .text.miiphy_get_current_dev
                0x000000002400cc8c       0x10 common/built-in.o
                0x000000002400cc8c                miiphy_get_current_dev
 .text.miiphy_read
                0x000000002400cc9c       0x28 common/built-in.o
                0x000000002400cc9c                miiphy_read
 .text.miiphy_write
                0x000000002400ccc4       0x24 common/built-in.o
                0x000000002400ccc4                miiphy_write
 .text.miiphy_listdev
                0x000000002400cce8       0x54 common/built-in.o
                0x000000002400cce8                miiphy_listdev
 .text.miiphy_info
                0x000000002400cd3c       0x5c common/built-in.o
                0x000000002400cd3c                miiphy_info
 .text.miiphy_speed
                0x000000002400cd98       0x80 common/built-in.o
                0x000000002400cd98                miiphy_speed
 .text.miiphy_duplex
                0x000000002400ce18       0x7c common/built-in.o
                0x000000002400ce18                miiphy_duplex
 .text.miiphy_is_1000base_x
                0x000000002400ce94        0x4 common/built-in.o
                0x000000002400ce94                miiphy_is_1000base_x
 .text.iomux_doenv
                0x000000002400ce98      0x138 common/built-in.o
                0x000000002400ce98                iomux_doenv
 .text.addr2info
                0x000000002400cfd0       0x2c common/built-in.o
                0x000000002400cfd0                addr2info
 .text.flash_write
                0x000000002400cffc       0xb0 common/built-in.o
                0x000000002400cffc                flash_write
 .text.flash_perror
                0x000000002400d0ac       0x98 common/built-in.o
                0x000000002400d0ac                flash_perror
 .text.cread_add_char
                0x000000002400d144       0x80 common/built-in.o
 .text.delete_char
                0x000000002400d1c4       0x88 common/built-in.o
 .text.cli_readline_into_buffer
                0x000000002400d24c      0x654 common/built-in.o
                0x000000002400d24c                cli_readline_into_buffer
 .text.cli_readline
                0x000000002400d8a0       0x10 common/built-in.o
                0x000000002400d8a0                cli_readline
 .text.console_tstc
                0x000000002400d8b0       0x60 common/built-in.o
 .text.console_putc
                0x000000002400d910       0x38 common/built-in.o
 .text.console_puts
                0x000000002400d948       0x38 common/built-in.o
 .text.on_console
                0x000000002400d980       0x70 common/built-in.o
 .text.serial_printf
                0x000000002400d9f0       0x2c common/built-in.o
                0x000000002400d9f0                serial_printf
 .text.puts     0x000000002400da1c       0x22 common/built-in.o
                0x000000002400da1c                puts
 .text.putc     0x000000002400da3e       0x22 common/built-in.o
                0x000000002400da3e                putc
 .text.tstc     0x000000002400da60       0x1a common/built-in.o
                0x000000002400da60                tstc
 *fill*         0x000000002400da7a        0x2 
 .text.fgetc.part.0
                0x000000002400da7c       0x24 common/built-in.o
 .text.getc     0x000000002400daa0       0x1a common/built-in.o
                0x000000002400daa0                getc
 *fill*         0x000000002400daba        0x2 
 .text.ctrlc    0x000000002400dabc       0x34 common/built-in.o
                0x000000002400dabc                ctrlc
 .text.disable_ctrlc
                0x000000002400daf0       0x10 common/built-in.o
                0x000000002400daf0                disable_ctrlc
 .text.had_ctrlc
                0x000000002400db00        0xc common/built-in.o
                0x000000002400db00                had_ctrlc
 .text.clear_ctrlc
                0x000000002400db0c        0xc common/built-in.o
                0x000000002400db0c                clear_ctrlc
 .text.search_device
                0x000000002400db18       0x16 common/built-in.o
                0x000000002400db18                search_device
 *fill*         0x000000002400db2e        0x2 
 .text.console_assign
                0x000000002400db30       0x84 common/built-in.o
                0x000000002400db30                console_assign
 .text.console_init_f
                0x000000002400dbb4        0xa common/built-in.o
                0x000000002400dbb4                console_init_f
 *fill*         0x000000002400dbbe        0x2 
 .text.stdio_print_current_devices
                0x000000002400dbc0       0x78 common/built-in.o
                0x000000002400dbc0                stdio_print_current_devices
 .text.console_init_r
                0x000000002400dc38      0x10c common/built-in.o
                0x000000002400dc38                console_init_r
 .text.sbrk     0x000000002400dd44       0x40 common/built-in.o
                0x000000002400dd44                sbrk
 .text.mem_malloc_init
                0x000000002400dd84       0x28 common/built-in.o
                0x000000002400dd84                mem_malloc_init
 .text.malloc_trim
                0x000000002400ddac       0x84 common/built-in.o
                0x000000002400ddac                malloc_trim
 .text.free     0x000000002400de30      0x168 common/built-in.o
                0x000000002400de30                free
 .text.malloc   0x000000002400df98      0x420 common/built-in.o
                0x000000002400df98                malloc
 .text.calloc   0x000000002400e3b8       0xb8 common/built-in.o
                0x000000002400e3b8                calloc
 .text.realloc  0x000000002400e470      0x2d4 common/built-in.o
                0x000000002400e470                realloc
 .text.memalign
                0x000000002400e744      0x116 common/built-in.o
                0x000000002400e744                memalign
 .text.initf_malloc
                0x000000002400e85a       0x14 common/built-in.o
                0x000000002400e85a                initf_malloc
 .text.alloc_simple
                0x000000002400e86e       0x36 common/built-in.o
 .text.malloc_simple
                0x000000002400e8a4        0x6 common/built-in.o
                0x000000002400e8a4                malloc_simple
 *fill*         0x000000002400e8aa        0x2 
 .text.on_loadaddr
                0x000000002400e8ac       0x1c common/built-in.o
 .text.image_multi_count
                0x000000002400e8c8       0x12 common/built-in.o
                0x000000002400e8c8                image_multi_count
 .text.image_multi_getimg
                0x000000002400e8da       0x4a common/built-in.o
                0x000000002400e8da                image_multi_getimg
 .text.env_get_bootm_low
                0x000000002400e924       0x24 common/built-in.o
                0x000000002400e924                env_get_bootm_low
 .text.env_get_bootm_size
                0x000000002400e948       0x44 common/built-in.o
                0x000000002400e948                env_get_bootm_size
 .text.env_get_bootm_mapsize
                0x000000002400e98c       0x20 common/built-in.o
                0x000000002400e98c                env_get_bootm_mapsize
 .text.memmove_wd
                0x000000002400e9ac        0xa common/built-in.o
                0x000000002400e9ac                memmove_wd
 *fill*         0x000000002400e9b6        0x2 
 .text.genimg_print_size
                0x000000002400e9b8       0x24 common/built-in.o
                0x000000002400e9b8                genimg_print_size
 .text.get_table_entry
                0x000000002400e9dc       0x12 common/built-in.o
                0x000000002400e9dc                get_table_entry
 .text.get_table_entry_name
                0x000000002400e9ee       0x12 common/built-in.o
                0x000000002400e9ee                get_table_entry_name
 .text.genimg_get_os_name
                0x000000002400ea00       0x14 common/built-in.o
                0x000000002400ea00                genimg_get_os_name
 .text.genimg_get_arch_name
                0x000000002400ea14       0x14 common/built-in.o
                0x000000002400ea14                genimg_get_arch_name
 .text.genimg_get_type_name
                0x000000002400ea28       0x14 common/built-in.o
                0x000000002400ea28                genimg_get_type_name
 .text.genimg_get_comp_name
                0x000000002400ea3c       0x14 common/built-in.o
                0x000000002400ea3c                genimg_get_comp_name
 .text.get_table_entry_id
                0x000000002400ea50       0x26 common/built-in.o
                0x000000002400ea50                get_table_entry_id
 *fill*         0x000000002400ea76        0x2 
 .text.genimg_get_os_id
                0x000000002400ea78       0x14 common/built-in.o
                0x000000002400ea78                genimg_get_os_id
 .text.genimg_get_arch_id
                0x000000002400ea8c       0x14 common/built-in.o
                0x000000002400ea8c                genimg_get_arch_id
 .text.genimg_get_type_id
                0x000000002400eaa0       0x14 common/built-in.o
                0x000000002400eaa0                genimg_get_type_id
 .text.genimg_get_comp_id
                0x000000002400eab4       0x14 common/built-in.o
                0x000000002400eab4                genimg_get_comp_id
 .text.genimg_get_kernel_addr_fit
                0x000000002400eac8       0x3c common/built-in.o
                0x000000002400eac8                genimg_get_kernel_addr_fit
 .text.genimg_get_format
                0x000000002400eb04       0x10 common/built-in.o
                0x000000002400eb04                genimg_get_format
 .text.genimg_has_config
                0x000000002400eb14        0xa common/built-in.o
                0x000000002400eb14                genimg_has_config
 *fill*         0x000000002400eb1e        0x2 
 .text.boot_get_ramdisk
                0x000000002400eb20      0x134 common/built-in.o
                0x000000002400eb20                boot_get_ramdisk
 .text.boot_ramdisk_high
                0x000000002400ec54       0xbc common/built-in.o
                0x000000002400ec54                boot_ramdisk_high
 .text.boot_get_setup
                0x000000002400ed10        0x4 common/built-in.o
                0x000000002400ed10                boot_get_setup
 .text.boot_get_loadable
                0x000000002400ed14       0xe4 common/built-in.o
                0x000000002400ed14                boot_get_loadable
 .text.image_setup_linux
                0x000000002400edf8       0x3a common/built-in.o
                0x000000002400edf8                image_setup_linux
 *fill*         0x000000002400ee32        0x2 
 .text.fdt_error
                0x000000002400ee34       0x24 common/built-in.o
 .text.boot_fdt_add_mem_rsv_regions
                0x000000002400ee58       0xf0 common/built-in.o
                0x000000002400ee58                boot_fdt_add_mem_rsv_regions
 .text.boot_relocate_fdt
                0x000000002400ef48      0x10c common/built-in.o
                0x000000002400ef48                boot_relocate_fdt
 .text.boot_get_fdt
                0x000000002400f054      0x1a4 common/built-in.o
                0x000000002400f054                boot_get_fdt
 .text.ft_verify_fdt
                0x000000002400f1f8        0x4 common/built-in.o
                0x000000002400f1f8                ft_verify_fdt
 .text.image_setup_libfdt
                0x000000002400f1fc       0xb0 common/built-in.o
                0x000000002400f1fc                image_setup_libfdt
 .text.fit_image_get_address
                0x000000002400f2ac       0x3c common/built-in.o
 .text.fit_parse_conf
                0x000000002400f2e8       0x3a common/built-in.o
                0x000000002400f2e8                fit_parse_conf
 .text.fit_parse_subimage
                0x000000002400f322       0x3a common/built-in.o
                0x000000002400f322                fit_parse_subimage
 .text.fit_get_desc
                0x000000002400f35c       0x20 common/built-in.o
                0x000000002400f35c                fit_get_desc
 .text.fit_image_get_node
                0x000000002400f37c       0x24 common/built-in.o
                0x000000002400f37c                fit_image_get_node
 .text.fit_image_get_os
                0x000000002400f3a0       0x28 common/built-in.o
                0x000000002400f3a0                fit_image_get_os
 .text.fit_image_get_arch
                0x000000002400f3c8       0x28 common/built-in.o
                0x000000002400f3c8                fit_image_get_arch
 .text.fit_image_get_type
                0x000000002400f3f0       0x28 common/built-in.o
                0x000000002400f3f0                fit_image_get_type
 .text.fit_image_get_comp
                0x000000002400f418       0x28 common/built-in.o
                0x000000002400f418                fit_image_get_comp
 .text.fit_image_get_load
                0x000000002400f440        0xc common/built-in.o
                0x000000002400f440                fit_image_get_load
 .text.fit_image_get_entry
                0x000000002400f44c        0xc common/built-in.o
                0x000000002400f44c                fit_image_get_entry
 .text.fit_image_get_data
                0x000000002400f458       0x28 common/built-in.o
                0x000000002400f458                fit_image_get_data
 .text.fit_image_get_data_offset
                0x000000002400f480       0x24 common/built-in.o
                0x000000002400f480                fit_image_get_data_offset
 .text.fit_image_get_data_position
                0x000000002400f4a4       0x24 common/built-in.o
                0x000000002400f4a4                fit_image_get_data_position
 .text.fit_image_get_data_size
                0x000000002400f4c8       0x24 common/built-in.o
                0x000000002400f4c8                fit_image_get_data_size
 .text.fit_image_get_data_and_size
                0x000000002400f4ec       0x54 common/built-in.o
                0x000000002400f4ec                fit_image_get_data_and_size
 .text.fit_image_hash_get_algo
                0x000000002400f540       0x20 common/built-in.o
                0x000000002400f540                fit_image_hash_get_algo
 .text.fit_image_hash_get_value
                0x000000002400f560       0x28 common/built-in.o
                0x000000002400f560                fit_image_hash_get_value
 .text.fit_image_print_data
                0x000000002400f588       0xfc common/built-in.o
 .text.fit_image_print_verification_data
                0x000000002400f684       0x60 common/built-in.o
 .text.fit_image_print
                0x000000002400f6e4      0x1fc common/built-in.o
                0x000000002400f6e4                fit_image_print
 .text.fit_print_contents
                0x000000002400f8e0      0x2b0 common/built-in.o
                0x000000002400f8e0                fit_print_contents
 .text.fit_get_end
                0x000000002400fb90        0x8 common/built-in.o
                0x000000002400fb90                fit_get_end
 .text.calculate_hash
                0x000000002400fb98       0xa8 common/built-in.o
                0x000000002400fb98                calculate_hash
 .text.fit_image_verify_with_data
                0x000000002400fc40      0x1a8 common/built-in.o
                0x000000002400fc40                fit_image_verify_with_data
 .text.fit_image_verify
                0x000000002400fde8       0x50 common/built-in.o
                0x000000002400fde8                fit_image_verify
 .text.fit_all_image_verify
                0x000000002400fe38       0xa0 common/built-in.o
                0x000000002400fe38                fit_all_image_verify
 .text.fit_image_check_os
                0x000000002400fed8       0x20 common/built-in.o
                0x000000002400fed8                fit_image_check_os
 .text.fit_image_check_arch
                0x000000002400fef8       0x2c common/built-in.o
                0x000000002400fef8                fit_image_check_arch
 .text.fit_image_check_type
                0x000000002400ff24       0x20 common/built-in.o
                0x000000002400ff24                fit_image_check_type
 .text.fit_image_check_comp
                0x000000002400ff44       0x20 common/built-in.o
                0x000000002400ff44                fit_image_check_comp
 .text.fit_check_format
                0x000000002400ff64       0x28 common/built-in.o
                0x000000002400ff64                fit_check_format
 .text.fit_conf_get_node
                0x000000002400ff8c       0x7c common/built-in.o
                0x000000002400ff8c                fit_conf_get_node
 .text.fit_conf_get_prop_node_index
                0x0000000024010008       0x20 common/built-in.o
                0x0000000024010008                fit_conf_get_prop_node_index
 .text.fit_conf_get_prop_node
                0x0000000024010028        0x6 common/built-in.o
                0x0000000024010028                fit_conf_get_prop_node
 .text.fit_get_node_from_config
                0x000000002401002e       0x2a common/built-in.o
                0x000000002401002e                fit_get_node_from_config
 .text.fit_image_load
                0x0000000024010058      0x3f4 common/built-in.o
                0x0000000024010058                fit_image_load
 .text.boot_get_setup_fit
                0x000000002401044c       0x40 common/built-in.o
                0x000000002401044c                boot_get_setup_fit
 .text.boot_get_fdt_fit
                0x000000002401048c      0x1d0 common/built-in.o
                0x000000002401048c                boot_get_fdt_fit
 .text.rsa_sign
                0x000000002401065c        0x6 common/built-in.o
 .text.rsa_add_verify_data
                0x0000000024010662        0x6 common/built-in.o
 .text.image_get_checksum_algo
                0x0000000024010668       0x4c common/built-in.o
                0x0000000024010668                image_get_checksum_algo
 .text.image_get_crypto_algo
                0x00000000240106b4       0x38 common/built-in.o
                0x00000000240106b4                image_get_crypto_algo
 .text.image_get_padding_algo
                0x00000000240106ec       0x20 common/built-in.o
                0x00000000240106ec                image_get_padding_algo
 .text.fit_image_setup_verify
                0x000000002401070c       0xd0 common/built-in.o
 .text.fit_region_make_list
                0x00000000240107dc       0x38 common/built-in.o
                0x00000000240107dc                fit_region_make_list
 .text.fit_image_check_sig
                0x0000000024010814       0x68 common/built-in.o
                0x0000000024010814                fit_image_check_sig
 .text.fit_image_verify_required_sigs
                0x000000002401087c      0x14c common/built-in.o
                0x000000002401087c                fit_image_verify_required_sigs
 .text.fit_config_check_sig
                0x00000000240109c8      0x1ac common/built-in.o
                0x00000000240109c8                fit_config_check_sig
 .text.fit_config_verify_required_sigs
                0x0000000024010b74      0x124 common/built-in.o
                0x0000000024010b74                fit_config_verify_required_sigs
 .text.fit_config_verify
                0x0000000024010c98        0x8 common/built-in.o
                0x0000000024010c98                fit_config_verify
 .text.get_effective_memsize
                0x0000000024010ca0        0x6 common/built-in.o
                0x0000000024010ca0                get_effective_memsize
 .text.nulldev_putc
                0x0000000024010ca6        0x2 common/built-in.o
 .text.nulldev_puts
                0x0000000024010ca8        0x2 common/built-in.o
 .text.nulldev_input
                0x0000000024010caa        0x4 common/built-in.o
 .text.stdio_serial_tstc
                0x0000000024010cae        0x4 common/built-in.o
 .text.stdio_serial_getc
                0x0000000024010cb2        0x4 common/built-in.o
 .text.stdio_serial_puts
                0x0000000024010cb6        0x6 common/built-in.o
 .text.stdio_serial_putc
                0x0000000024010cbc        0x6 common/built-in.o
 *fill*         0x0000000024010cc2        0x2 
 .text.stdio_get_list
                0x0000000024010cc4        0x8 common/built-in.o
                0x0000000024010cc4                stdio_get_list
 .text.stdio_get_by_name
                0x0000000024010ccc       0xa0 common/built-in.o
                0x0000000024010ccc                stdio_get_by_name
 .text.stdio_clone
                0x0000000024010d6c       0x22 common/built-in.o
                0x0000000024010d6c                stdio_clone
 *fill*         0x0000000024010d8e        0x2 
 .text.stdio_register_dev
                0x0000000024010d90       0x34 common/built-in.o
                0x0000000024010d90                stdio_register_dev
 .text.stdio_register
                0x0000000024010dc4        0x6 common/built-in.o
                0x0000000024010dc4                stdio_register
 *fill*         0x0000000024010dca        0x2 
 .text.stdio_init_tables
                0x0000000024010dcc       0x14 common/built-in.o
                0x0000000024010dcc                stdio_init_tables
 .text.stdio_add_devices
                0x0000000024010de0       0x88 common/built-in.o
                0x0000000024010de0                stdio_add_devices
 .text.run_command
                0x0000000024010e68        0xe common/built-in.o
                0x0000000024010e68                run_command
 .text.run_command_list
                0x0000000024010e76       0x46 common/built-in.o
                0x0000000024010e76                run_command_list
 .text.do_run   0x0000000024010ebc       0x4c common/built-in.o
                0x0000000024010ebc                do_run
 .text.cli_process_fdt
                0x0000000024010f08       0x30 common/built-in.o
                0x0000000024010f08                cli_process_fdt
 .text.cli_secure_boot_cmd
                0x0000000024010f38       0x4c common/built-in.o
                0x0000000024010f38                cli_secure_boot_cmd
 .text.cli_loop
                0x0000000024010f84        0x8 common/built-in.o
                0x0000000024010f84                cli_loop
 .text.cli_init
                0x0000000024010f8c        0x4 common/built-in.o
                0x0000000024010f8c                cli_init
 .text.find_cmd_tbl
                0x0000000024010f90       0x64 common/built-in.o
                0x0000000024010f90                find_cmd_tbl
 .text.find_cmd
                0x0000000024010ff4       0x1c common/built-in.o
                0x0000000024010ff4                find_cmd
 .text.cmd_usage
                0x0000000024011010       0x3c common/built-in.o
                0x0000000024011010                cmd_usage
 .text._do_help
                0x000000002401104c      0x104 common/built-in.o
                0x000000002401104c                _do_help
 .text.var_complete
                0x0000000024011150       0x50 common/built-in.o
                0x0000000024011150                var_complete
 .text.complete_subcmdv
                0x00000000240111a0      0x104 common/built-in.o
                0x00000000240111a0                complete_subcmdv
 .text.cmd_auto_complete
                0x00000000240112a4      0x27c common/built-in.o
                0x00000000240112a4                cmd_auto_complete
 .text.cmd_get_data_size
                0x0000000024011520       0x34 common/built-in.o
                0x0000000024011520                cmd_get_data_size
 .text.cmd_always_repeatable
                0x0000000024011554       0x10 common/built-in.o
                0x0000000024011554                cmd_always_repeatable
 .text.cmd_never_repeatable
                0x0000000024011564       0x10 common/built-in.o
                0x0000000024011564                cmd_never_repeatable
 .text.cmd_discard_repeatable
                0x0000000024011574        0xe common/built-in.o
                0x0000000024011574                cmd_discard_repeatable
 *fill*         0x0000000024011582        0x2 
 .text.cmd_process
                0x0000000024011584       0x9c common/built-in.o
                0x0000000024011584                cmd_process
 .text.cmd_process_error
                0x0000000024011620       0x1c common/built-in.o
                0x0000000024011620                cmd_process_error
 .text.hex1_bin
                0x000000002401163c       0x2c common/built-in.o
 .text.hex2_bin
                0x0000000024011668       0x24 common/built-in.o
 .text.srec_decode
                0x000000002401168c      0x190 common/built-in.o
                0x000000002401168c                srec_decode
 .text.CYGACC_COMM_IF_GETC_TIMEOUT.constprop.0
                0x000000002401181c       0x2e common/built-in.o
 .text.xyzModem_flush
                0x000000002401184a       0x14 common/built-in.o
 *fill*         0x000000002401185e        0x2 
 .text.xyzModem_get_hdr
                0x0000000024011860      0x168 common/built-in.o
 .text.xyzModem_stream_open
                0x00000000240119c8      0x16c common/built-in.o
                0x00000000240119c8                xyzModem_stream_open
 .text.xyzModem_stream_read
                0x0000000024011b34      0x194 common/built-in.o
                0x0000000024011b34                xyzModem_stream_read
 .text.xyzModem_stream_close
                0x0000000024011cc8       0x40 common/built-in.o
                0x0000000024011cc8                xyzModem_stream_close
 .text.xyzModem_stream_terminate
                0x0000000024011d08       0x68 common/built-in.o
                0x0000000024011d08                xyzModem_stream_terminate
 .text.xyzModem_error
                0x0000000024011d70       0x18 common/built-in.o
                0x0000000024011d70                xyzModem_error
 .text.part_driver_lookup_type
                0x0000000024011d88       0x44 disk/built-in.o
 .text.blk_get_dev
                0x0000000024011dcc       0x18 disk/built-in.o
                0x0000000024011dcc                blk_get_dev
 .text.dev_print
                0x0000000024011de4      0x164 disk/built-in.o
                0x0000000024011de4                dev_print
 .text.part_init
                0x0000000024011f48       0x38 disk/built-in.o
                0x0000000024011f48                part_init
 .text.part_print
                0x0000000024011f80       0xb8 disk/built-in.o
                0x0000000024011f80                part_print
 .text.part_get_info
                0x0000000024012038       0x36 disk/built-in.o
                0x0000000024012038                part_get_info
 *fill*         0x000000002401206e        0x2 
 .text.part_get_info_whole_disk
                0x0000000024012070       0x38 disk/built-in.o
                0x0000000024012070                part_get_info_whole_disk
 .text.blk_get_device_by_str
                0x00000000240120a8       0xc0 disk/built-in.o
                0x00000000240120a8                blk_get_device_by_str
 .text.blk_get_device_part_str
                0x0000000024012168      0x280 disk/built-in.o
                0x0000000024012168                blk_get_device_part_str
 .text.part_set_generic_name
                0x00000000240123e8       0x38 disk/built-in.o
                0x00000000240123e8                part_set_generic_name
 .text.test_block_type
                0x0000000024012420       0x4c disk/built-in.o
 .text.print_partition_extended
                0x000000002401246c      0x194 disk/built-in.o
 .text.part_print_dos
                0x0000000024012600       0x20 disk/built-in.o
                0x0000000024012600                part_print_dos
 .text.part_test_dos
                0x0000000024012620       0x48 disk/built-in.o
 .text.part_get_info_extended
                0x0000000024012668      0x1c0 disk/built-in.o
 .text.part_get_info_dos
                0x0000000024012828       0x1a disk/built-in.o
                0x0000000024012828                part_get_info_dos
 *fill*         0x0000000024012842        0x2 
 .text.print_efiname
                0x0000000024012844       0x3c disk/built-in.o
 .text.part_test_efi
                0x0000000024012880       0x72 disk/built-in.o
 *fill*         0x00000000240128f2        0x2 
 .text.validate_gpt_entries
                0x00000000240128f4       0x80 disk/built-in.o
 *fill*         0x0000000024012974        0x4 
 .text.validate_gpt_header
                0x0000000024012978      0x1a8 disk/built-in.o
 .text.is_gpt_valid
                0x0000000024012b20      0x1bc disk/built-in.o
 .text.is_pte_valid
                0x0000000024012cdc       0x38 disk/built-in.o
 .text.part_print_efi
                0x0000000024012d14      0x1f4 disk/built-in.o
                0x0000000024012d14                part_print_efi
 .text.part_get_info_efi
                0x0000000024012f08      0x174 disk/built-in.o
                0x0000000024012f08                part_get_info_efi
 .text.get_disk_guid
                0x000000002401307c       0xa0 disk/built-in.o
                0x000000002401307c                get_disk_guid
 .text.write_gpt_table
                0x000000002401311c      0x36c disk/built-in.o
                0x000000002401311c                write_gpt_table
 .text.gpt_fill_pte
                0x0000000024013488      0x25c disk/built-in.o
                0x0000000024013488                gpt_fill_pte
 .text.gpt_fill_header
                0x00000000240136e4      0x1a0 disk/built-in.o
                0x00000000240136e4                gpt_fill_header
 .text.gpt_restore
                0x0000000024013884       0xc4 disk/built-in.o
                0x0000000024013884                gpt_restore
 .text.gpt_verify_headers
                0x0000000024013948       0x54 disk/built-in.o
                0x0000000024013948                gpt_verify_headers
 .text.gpt_verify_partitions
                0x000000002401399c      0x16c disk/built-in.o
                0x000000002401399c                gpt_verify_partitions
 .text.clk_request
                0x0000000024013b08       0x14 drivers/built-in.o
                0x0000000024013b08                clk_request
 .text.clk_get_by_indexed_prop
                0x0000000024013b1c       0x60 drivers/built-in.o
 .text.clk_get_by_index
                0x0000000024013b7c       0x10 drivers/built-in.o
                0x0000000024013b7c                clk_get_by_index
 .text.clk_get_by_name
                0x0000000024013b8c       0x2c drivers/built-in.o
                0x0000000024013b8c                clk_get_by_name
 .text.clk_free
                0x0000000024013bb8       0x10 drivers/built-in.o
                0x0000000024013bb8                clk_free
 .text.clk_get_rate
                0x0000000024013bc8       0x12 drivers/built-in.o
                0x0000000024013bc8                clk_get_rate
 .text.clk_set_rate
                0x0000000024013bda       0x12 drivers/built-in.o
                0x0000000024013bda                clk_set_rate
 .text.clk_set_parent
                0x0000000024013bec       0x12 drivers/built-in.o
                0x0000000024013bec                clk_set_parent
 *fill*         0x0000000024013bfe        0x2 
 .text.clk_set_defaults
                0x0000000024013c00       0xf4 drivers/built-in.o
                0x0000000024013c00                clk_set_defaults
 .text.clk_enable
                0x0000000024013cf4       0x12 drivers/built-in.o
                0x0000000024013cf4                clk_enable
 .text.clk_disable
                0x0000000024013d06       0x12 drivers/built-in.o
                0x0000000024013d06                clk_disable
 .text.clk_fixed_rate_ofdata_to_platdata
                0x0000000024013d18       0x20 drivers/built-in.o
 .text.clk_fixed_rate_get_rate
                0x0000000024013d38       0x16 drivers/built-in.o
 .text.clk_fixed_factor_get_rate
                0x0000000024013d4e       0x2c drivers/built-in.o
 *fill*         0x0000000024013d7a        0x2 
 .text.clk_fixed_factor_ofdata_to_platdata
                0x0000000024013d7c       0x3c drivers/built-in.o
 .text.stm32_clk_set_rate
                0x0000000024013db8        0x4 drivers/built-in.o
 .text.stm32_clk_of_xlate
                0x0000000024013dbc       0x1c drivers/built-in.o
 .text.stm32_clk_enable
                0x0000000024013dd8       0x30 drivers/built-in.o
 .text.stm32_get_apb_psc.isra.0
                0x0000000024013e08       0x44 drivers/built-in.o
 .text.stm32_get_timer_rate.isra.0
                0x0000000024013e4c       0x88 drivers/built-in.o
 .text.stm32_get_rate
                0x0000000024013ed4       0x7c drivers/built-in.o
 .text.stm32_clk_get_rate
                0x0000000024013f50      0x194 drivers/built-in.o
 .text.configure_clocks
                0x00000000240140e4      0x160 drivers/built-in.o
                0x00000000240140e4                configure_clocks
 .text.stm32_clk_probe
                0x0000000024014244       0x64 drivers/built-in.o
 .text.alloc_priv
                0x00000000240142a8       0x38 drivers/built-in.o
 .text.device_bind_common.constprop.0
                0x00000000240142e0      0x200 drivers/built-in.o
 .text.device_bind_with_driver_data
                0x00000000240144e0       0x16 drivers/built-in.o
                0x00000000240144e0                device_bind_with_driver_data
 .text.device_bind_by_name
                0x00000000240144f6       0x44 drivers/built-in.o
                0x00000000240144f6                device_bind_by_name
 *fill*         0x000000002401453a        0x2 
 .text.device_probe
                0x000000002401453c      0x180 drivers/built-in.o
                0x000000002401453c                device_probe
 .text.dev_get_platdata
                0x00000000240146bc       0x20 drivers/built-in.o
                0x00000000240146bc                dev_get_platdata
 .text.dev_get_parent_platdata
                0x00000000240146dc       0x20 drivers/built-in.o
                0x00000000240146dc                dev_get_parent_platdata
 .text.dev_get_uclass_platdata
                0x00000000240146fc       0x20 drivers/built-in.o
                0x00000000240146fc                dev_get_uclass_platdata
 .text.dev_get_priv
                0x000000002401471c       0x20 drivers/built-in.o
                0x000000002401471c                dev_get_priv
 .text.dev_get_uclass_priv
                0x000000002401473c       0x20 drivers/built-in.o
                0x000000002401473c                dev_get_uclass_priv
 .text.dev_get_parent_priv
                0x000000002401475c       0x20 drivers/built-in.o
                0x000000002401475c                dev_get_parent_priv
 .text.device_find_first_child
                0x000000002401477c       0x12 drivers/built-in.o
                0x000000002401477c                device_find_first_child
 .text.device_find_next_child
                0x000000002401478e       0x16 drivers/built-in.o
                0x000000002401478e                device_find_next_child
 .text.dev_get_parent
                0x00000000240147a4        0x4 drivers/built-in.o
                0x00000000240147a4                dev_get_parent
 .text.dev_get_driver_data
                0x00000000240147a8        0x4 drivers/built-in.o
                0x00000000240147a8                dev_get_driver_data
 .text.device_get_uclass_id
                0x00000000240147ac        0x8 drivers/built-in.o
                0x00000000240147ac                device_get_uclass_id
 .text.device_set_name_alloced
                0x00000000240147b4        0xa drivers/built-in.o
                0x00000000240147b4                device_set_name_alloced
 .text.device_is_compatible
                0x00000000240147be       0x10 drivers/built-in.o
                0x00000000240147be                device_is_compatible
 *fill*         0x00000000240147ce        0x2 
 .text.devfdt_get_addr_index
                0x00000000240147d0       0x7c drivers/built-in.o
                0x00000000240147d0                devfdt_get_addr_index
 .text.devfdt_get_addr
                0x000000002401484c        0x6 drivers/built-in.o
                0x000000002401484c                devfdt_get_addr
 *fill*         0x0000000024014852        0x2 
 .text.lists_driver_lookup_name
                0x0000000024014854       0x2c drivers/built-in.o
                0x0000000024014854                lists_driver_lookup_name
 .text.lists_uclass_lookup
                0x0000000024014880       0x20 drivers/built-in.o
                0x0000000024014880                lists_uclass_lookup
 .text.lists_bind_drivers
                0x00000000240148a0       0x60 drivers/built-in.o
                0x00000000240148a0                lists_bind_drivers
 .text.device_bind_driver_to_node
                0x0000000024014900       0x2c drivers/built-in.o
                0x0000000024014900                device_bind_driver_to_node
 .text.device_bind_driver
                0x000000002401492c       0x12 drivers/built-in.o
                0x000000002401492c                device_bind_driver
 *fill*         0x000000002401493e        0x2 
 .text.lists_bind_fdt
                0x0000000024014940       0xfc drivers/built-in.o
                0x0000000024014940                lists_bind_fdt
 .text.dm_scan_fdt_node
                0x0000000024014a3c       0x9c drivers/built-in.o
 .text.dm_scan_fdt_ofnode_path
                0x0000000024014ad8       0x24 drivers/built-in.o
 .text.dm_root  0x0000000024014afc       0x1c drivers/built-in.o
                0x0000000024014afc                dm_root
 .text.dm_get_translation_offset
                0x0000000024014b18        0xe drivers/built-in.o
                0x0000000024014b18                dm_get_translation_offset
 *fill*         0x0000000024014b26        0x2 
 .text.dm_init  0x0000000024014b28       0x4c drivers/built-in.o
                0x0000000024014b28                dm_init
 .text.dm_remove_devices_flags
                0x0000000024014b74       0x12 drivers/built-in.o
                0x0000000024014b74                dm_remove_devices_flags
 *fill*         0x0000000024014b86        0x2 
 .text.dm_scan_platdata
                0x0000000024014b88       0x20 drivers/built-in.o
                0x0000000024014b88                dm_scan_platdata
 .text.dm_scan_fdt_dev
                0x0000000024014ba8       0x1c drivers/built-in.o
                0x0000000024014ba8                dm_scan_fdt_dev
 .text.dm_scan_fdt
                0x0000000024014bc4       0x14 drivers/built-in.o
                0x0000000024014bc4                dm_scan_fdt
 .text.dm_extended_scan_fdt
                0x0000000024014bd8       0x30 drivers/built-in.o
                0x0000000024014bd8                dm_extended_scan_fdt
 .text.dm_scan_other
                0x0000000024014c08        0x4 drivers/built-in.o
                0x0000000024014c08                dm_scan_other
 .text.dm_init_and_scan
                0x0000000024014c0c       0x2c drivers/built-in.o
                0x0000000024014c0c                dm_init_and_scan
 .text.uclass_find
                0x0000000024014c38       0x2e drivers/built-in.o
                0x0000000024014c38                uclass_find
 .text.uclass_get
                0x0000000024014c66       0xaa drivers/built-in.o
                0x0000000024014c66                uclass_get
 .text.dev_get_uclass_index
                0x0000000024014d10       0x36 drivers/built-in.o
                0x0000000024014d10                dev_get_uclass_index
 .text.uclass_find_device
                0x0000000024014d46       0x42 drivers/built-in.o
                0x0000000024014d46                uclass_find_device
 .text.uclass_find_first_device
                0x0000000024014d88       0x26 drivers/built-in.o
                0x0000000024014d88                uclass_find_first_device
 .text.uclass_find_next_device
                0x0000000024014dae       0x18 drivers/built-in.o
                0x0000000024014dae                uclass_find_next_device
 .text.uclass_find_device_by_name
                0x0000000024014dc6       0x50 drivers/built-in.o
                0x0000000024014dc6                uclass_find_device_by_name
 .text.uclass_find_device_by_seq
                0x0000000024014e16       0x4e drivers/built-in.o
                0x0000000024014e16                uclass_find_device_by_seq
 .text.uclass_find_device_by_of_offset
                0x0000000024014e64       0x40 drivers/built-in.o
                0x0000000024014e64                uclass_find_device_by_of_offset
 .text.uclass_find_device_by_ofnode
                0x0000000024014ea4       0x42 drivers/built-in.o
                0x0000000024014ea4                uclass_find_device_by_ofnode
 .text.uclass_find_device_by_phandle
                0x0000000024014ee6       0x60 drivers/built-in.o
                0x0000000024014ee6                uclass_find_device_by_phandle
 .text.uclass_get_device_tail
                0x0000000024014f46       0x16 drivers/built-in.o
                0x0000000024014f46                uclass_get_device_tail
 .text.uclass_get_device
                0x0000000024014f5c       0x1c drivers/built-in.o
                0x0000000024014f5c                uclass_get_device
 .text.uclass_get_device_by_name
                0x0000000024014f78       0x1c drivers/built-in.o
                0x0000000024014f78                uclass_get_device_by_name
 .text.uclass_get_device_by_seq
                0x0000000024014f94       0x34 drivers/built-in.o
                0x0000000024014f94                uclass_get_device_by_seq
 .text.uclass_get_device_by_of_offset
                0x0000000024014fc8       0x1c drivers/built-in.o
                0x0000000024014fc8                uclass_get_device_by_of_offset
 .text.uclass_get_device_by_ofnode
                0x0000000024014fe4       0x1c drivers/built-in.o
                0x0000000024014fe4                uclass_get_device_by_ofnode
 .text.uclass_get_device_by_phandle
                0x0000000024015000       0x1c drivers/built-in.o
                0x0000000024015000                uclass_get_device_by_phandle
 .text.uclass_first_device
                0x000000002401501c       0x1e drivers/built-in.o
                0x000000002401501c                uclass_first_device
 .text.uclass_first_device_err
                0x000000002401503a       0x16 drivers/built-in.o
                0x000000002401503a                uclass_first_device_err
 .text.uclass_next_device
                0x0000000024015050       0x22 drivers/built-in.o
                0x0000000024015050                uclass_next_device
 .text.uclass_next_device_err
                0x0000000024015072       0x16 drivers/built-in.o
                0x0000000024015072                uclass_next_device_err
 .text.uclass_first_device_check
                0x0000000024015088       0x1e drivers/built-in.o
                0x0000000024015088                uclass_first_device_check
 .text.uclass_next_device_check
                0x00000000240150a6       0x1a drivers/built-in.o
                0x00000000240150a6                uclass_next_device_check
 .text.uclass_bind_device
                0x00000000240150c0       0x3a drivers/built-in.o
                0x00000000240150c0                uclass_bind_device
 .text.uclass_unbind_device
                0x00000000240150fa       0x24 drivers/built-in.o
                0x00000000240150fa                uclass_unbind_device
 *fill*         0x000000002401511e        0x2 
 .text.uclass_resolve_seq
                0x0000000024015120       0x68 drivers/built-in.o
                0x0000000024015120                uclass_resolve_seq
 .text.uclass_pre_probe_device
                0x0000000024015188       0x2e drivers/built-in.o
                0x0000000024015188                uclass_pre_probe_device
 .text.uclass_post_probe_device
                0x00000000240151b6       0x2e drivers/built-in.o
                0x00000000240151b6                uclass_post_probe_device
 .text.uclass_pre_remove_device
                0x00000000240151e4        0xe drivers/built-in.o
                0x00000000240151e4                uclass_pre_remove_device
 .text.dm_warn  0x00000000240151f2       0x1a drivers/built-in.o
                0x00000000240151f2                dm_warn
 .text.dm_ofnode_pre_reloc
                0x000000002401520c       0x34 drivers/built-in.o
                0x000000002401520c                dm_ofnode_pre_reloc
 .text.device_unbind
                0x0000000024015240       0x96 drivers/built-in.o
                0x0000000024015240                device_unbind
 .text.device_chld_unbind
                0x00000000240152d6       0x3c drivers/built-in.o
                0x00000000240152d6                device_chld_unbind
 .text.device_free
                0x0000000024015312       0x44 drivers/built-in.o
                0x0000000024015312                device_free
 *fill*         0x0000000024015356        0x2 
 .text.device_remove
                0x0000000024015358       0xcc drivers/built-in.o
                0x0000000024015358                device_remove
 .text.device_chld_remove
                0x0000000024015424       0x3c drivers/built-in.o
                0x0000000024015424                device_chld_remove
 .text.simple_bus_post_bind
                0x0000000024015460       0x34 drivers/built-in.o
 .text.show_devices
                0x0000000024015494       0xb8 drivers/built-in.o
 .text.dm_dump_all
                0x000000002401554c       0x30 drivers/built-in.o
                0x000000002401554c                dm_dump_all
 .text.dm_dump_uclass
                0x000000002401557c       0xa0 drivers/built-in.o
                0x000000002401557c                dm_dump_uclass
 .text.regmap_init_mem
                0x000000002401561c       0xf8 drivers/built-in.o
                0x000000002401561c                regmap_init_mem
 .text.regmap_get_range
                0x0000000024015714       0x10 drivers/built-in.o
                0x0000000024015714                regmap_get_range
 .text.syscon_pre_probe
                0x0000000024015724       0x24 drivers/built-in.o
 .text.syscon_get_regmap
                0x0000000024015748       0x1c drivers/built-in.o
                0x0000000024015748                syscon_get_regmap
 .text.syscon_get_by_driver_data
                0x0000000024015764       0x42 drivers/built-in.o
                0x0000000024015764                syscon_get_by_driver_data
 .text.syscon_get_regmap_by_driver_data
                0x00000000240157a6       0x18 drivers/built-in.o
                0x00000000240157a6                syscon_get_regmap_by_driver_data
 .text.syscon_get_first_range
                0x00000000240157be       0x18 drivers/built-in.o
                0x00000000240157be                syscon_get_first_range
 .text.ofnode_read_u32
                0x00000000240157d6       0x2e drivers/built-in.o
                0x00000000240157d6                ofnode_read_u32
 .text.ofnode_read_u32_default
                0x0000000024015804       0x12 drivers/built-in.o
                0x0000000024015804                ofnode_read_u32_default
 .text.ofnode_read_string
                0x0000000024015816       0x30 drivers/built-in.o
                0x0000000024015816                ofnode_read_string
 .text.ofnode_find_subnode
                0x0000000024015846       0x12 drivers/built-in.o
                0x0000000024015846                ofnode_find_subnode
 .text.ofnode_read_u32_array
                0x0000000024015858       0x18 drivers/built-in.o
                0x0000000024015858                ofnode_read_u32_array
 .text.ofnode_first_subnode
                0x0000000024015870        0xe drivers/built-in.o
                0x0000000024015870                ofnode_first_subnode
 .text.ofnode_next_subnode
                0x000000002401587e        0xe drivers/built-in.o
                0x000000002401587e                ofnode_next_subnode
 .text.ofnode_get_parent
                0x000000002401588c        0xe drivers/built-in.o
                0x000000002401588c                ofnode_get_parent
 .text.ofnode_get_name
                0x000000002401589a        0xc drivers/built-in.o
                0x000000002401589a                ofnode_get_name
 .text.ofnode_read_size
                0x00000000240158a6       0x20 drivers/built-in.o
                0x00000000240158a6                ofnode_read_size
 .text.ofnode_stringlist_search
                0x00000000240158c6       0x26 drivers/built-in.o
                0x00000000240158c6                ofnode_stringlist_search
 .text.ofnode_parse_phandle_with_args
                0x00000000240158ec       0x3e drivers/built-in.o
                0x00000000240158ec                ofnode_parse_phandle_with_args
 .text.ofnode_count_phandle_with_args
                0x000000002401592a       0x24 drivers/built-in.o
                0x000000002401592a                ofnode_count_phandle_with_args
 .text.ofnode_path
                0x000000002401594e        0xe drivers/built-in.o
                0x000000002401594e                ofnode_path
 .text.ofnode_get_chosen_prop
                0x000000002401595c       0x18 drivers/built-in.o
                0x000000002401595c                ofnode_get_chosen_prop
 .text.ofnode_get_chosen_node
                0x0000000024015974       0x16 drivers/built-in.o
                0x0000000024015974                ofnode_get_chosen_node
 .text.ofnode_get_property
                0x000000002401598a       0x14 drivers/built-in.o
                0x000000002401598a                ofnode_get_property
 .text.ofnode_read_bool
                0x000000002401599e       0x10 drivers/built-in.o
                0x000000002401599e                ofnode_read_bool
 .text.ofnode_read_u8_array_ptr
                0x00000000240159ae       0x14 drivers/built-in.o
                0x00000000240159ae                ofnode_read_u8_array_ptr
 .text.ofnode_read_addr_cells
                0x00000000240159c2        0xa drivers/built-in.o
                0x00000000240159c2                ofnode_read_addr_cells
 .text.ofnode_read_size_cells
                0x00000000240159cc        0xa drivers/built-in.o
                0x00000000240159cc                ofnode_read_size_cells
 *fill*         0x00000000240159d6        0x2 
 .text.ofnode_get_addr_index
                0x00000000240159d8       0x40 drivers/built-in.o
                0x00000000240159d8                ofnode_get_addr_index
 .text.ofnode_get_addr
                0x0000000024015a18        0x6 drivers/built-in.o
                0x0000000024015a18                ofnode_get_addr
 .text.ofnode_read_simple_addr_cells
                0x0000000024015a1e        0x4 drivers/built-in.o
                0x0000000024015a1e                ofnode_read_simple_addr_cells
 .text.ofnode_read_simple_size_cells
                0x0000000024015a22        0x4 drivers/built-in.o
                0x0000000024015a22                ofnode_read_simple_size_cells
 *fill*         0x0000000024015a26        0x2 
 .text.ofnode_read_resource
                0x0000000024015a28       0x40 drivers/built-in.o
                0x0000000024015a28                ofnode_read_resource
 .text.ofnode_read_resource_byname
                0x0000000024015a68       0x24 drivers/built-in.o
                0x0000000024015a68                ofnode_read_resource_byname
 .text.ofnode_device_is_compatible
                0x0000000024015a8c       0x18 drivers/built-in.o
                0x0000000024015a8c                ofnode_device_is_compatible
 .text.pinctrl_post_bind
                0x0000000024015aa4       0x10 drivers/built-in.o
 .text.pinctrl_select_state
                0x0000000024015ab4       0x32 drivers/built-in.o
                0x0000000024015ab4                pinctrl_select_state
 .text.pinctrl_get_pins_count
                0x0000000024015ae6       0x10 drivers/built-in.o
                0x0000000024015ae6                pinctrl_get_pins_count
 .text.pinctrl_get_pin_name
                0x0000000024015af6       0x24 drivers/built-in.o
                0x0000000024015af6                pinctrl_get_pin_name
 .text.pinctrl_get_pin_muxing
                0x0000000024015b1a       0x18 drivers/built-in.o
                0x0000000024015b1a                pinctrl_get_pin_muxing
 .text.stm32_pinctrl_probe
                0x0000000024015b32       0x12 drivers/built-in.o
                0x0000000024015b32                stm32_pinctrl_probe
 .text.stm32_pinctrl_config
                0x0000000024015b44      0x190 drivers/built-in.o
 .text.stm32_pinctrl_set_state_simple
                0x0000000024015cd4       0x5c drivers/built-in.o
 .text.stm32_populate_gpio_dev_list.isra.0
                0x0000000024015d30       0x58 drivers/built-in.o
 .text.stm32_pinctrl_get_pins_count
                0x0000000024015d88       0x3e drivers/built-in.o
 .text.stm32_pinctrl_get_gpio_dev
                0x0000000024015dc6       0x5a drivers/built-in.o
 .text.stm32_pinctrl_get_pin_muxing
                0x0000000024015e20       0xbc drivers/built-in.o
 .text.stm32_pinctrl_get_pin_name
                0x0000000024015edc       0x40 drivers/built-in.o
 .text.stm32_fmc_get_info
                0x0000000024015f1c        0x4 drivers/built-in.o
 .text.stm32_fmc_ofdata_to_platdata
                0x0000000024015f20      0x13c drivers/built-in.o
 .text.stm32_sdram_init
                0x000000002401605c      0x1e2 drivers/built-in.o
                0x000000002401605c                stm32_sdram_init
 *fill*         0x000000002401623e        0x2 
 .text.stm32_fmc_probe
                0x0000000024016240       0x58 drivers/built-in.o
 .text.timer_post_probe
                0x0000000024016298       0x14 drivers/built-in.o
 .text.timer_pre_probe
                0x00000000240162ac       0x44 drivers/built-in.o
 .text.timer_get_count
                0x00000000240162f0       0x10 drivers/built-in.o
                0x00000000240162f0                timer_get_count
 .text.timer_get_rate
                0x0000000024016300        0x6 drivers/built-in.o
                0x0000000024016300                timer_get_rate
 *fill*         0x0000000024016306        0x2 
 .text.dm_timer_init
                0x0000000024016308       0x78 drivers/built-in.o
                0x0000000024016308                dm_timer_init
 .text.stm32_timer_get_count
                0x0000000024016380       0x18 drivers/built-in.o
 .text.stm32_timer_probe
                0x0000000024016398       0x98 drivers/built-in.o
 .text.blk_post_probe
                0x0000000024016430        0xe drivers/built-in.o
 *fill*         0x000000002401643e        0x2 
 .text.blk_get_devnum_by_typename
                0x0000000024016440       0x84 drivers/built-in.o
                0x0000000024016440                blk_get_devnum_by_typename
 .text.blk_select_hwpart
                0x00000000240164c4       0x16 drivers/built-in.o
                0x00000000240164c4                blk_select_hwpart
 .text.blk_dselect_hwpart
                0x00000000240164da        0x6 drivers/built-in.o
                0x00000000240164da                blk_dselect_hwpart
 .text.blk_find_device
                0x00000000240164e0       0x50 drivers/built-in.o
                0x00000000240164e0                blk_find_device
 .text.blk_get_device
                0x0000000024016530       0x16 drivers/built-in.o
                0x0000000024016530                blk_get_device
 .text.blk_get_devnum_by_type
                0x0000000024016546       0x1a drivers/built-in.o
                0x0000000024016546                blk_get_devnum_by_type
 .text.blk_select_hwpart_devnum
                0x0000000024016560       0x18 drivers/built-in.o
                0x0000000024016560                blk_select_hwpart_devnum
 .text.blk_dread
                0x0000000024016578       0x6a drivers/built-in.o
                0x0000000024016578                blk_dread
 .text.blk_dwrite
                0x00000000240165e2       0x3c drivers/built-in.o
                0x00000000240165e2                blk_dwrite
 .text.blk_derase
                0x000000002401661e       0x30 drivers/built-in.o
                0x000000002401661e                blk_derase
 .text.blk_find_max_devnum
                0x000000002401664e       0x46 drivers/built-in.o
                0x000000002401664e                blk_find_max_devnum
 .text.blk_next_free_devnum
                0x0000000024016694       0x18 drivers/built-in.o
                0x0000000024016694                blk_next_free_devnum
 .text.blk_create_device
                0x00000000240166ac       0xa6 drivers/built-in.o
                0x00000000240166ac                blk_create_device
 *fill*         0x0000000024016752        0x2 
 .text.blk_create_devicef
                0x0000000024016754       0x6c drivers/built-in.o
                0x0000000024016754                blk_create_devicef
 .text.blkcache_read
                0x00000000240167c0       0x90 drivers/built-in.o
                0x00000000240167c0                blkcache_read
 .text.blkcache_fill
                0x0000000024016850       0xbc drivers/built-in.o
                0x0000000024016850                blkcache_fill
 .text.blkcache_invalidate
                0x000000002401690c       0x64 drivers/built-in.o
                0x000000002401690c                blkcache_invalidate
 .text.blkcache_configure
                0x0000000024016970       0x60 drivers/built-in.o
                0x0000000024016970                blkcache_configure
 .text.blkcache_stats
                0x00000000240169d0       0x18 drivers/built-in.o
                0x00000000240169d0                blkcache_stats
 .text.bootcount_store
                0x00000000240169e8       0x2c drivers/built-in.o
                0x00000000240169e8                bootcount_store
 .text.bootcount_load
                0x0000000024016a14       0x28 drivers/built-in.o
                0x0000000024016a14                bootcount_load
 .text.rsa_mod_exp
                0x0000000024016a3c       0x18 drivers/built-in.o
                0x0000000024016a3c                rsa_mod_exp
 .text.mod_exp_sw
                0x0000000024016a54        0xc drivers/built-in.o
                0x0000000024016a54                mod_exp_sw
 .text.stm32_rcc_bind
                0x0000000024016a60       0x5c drivers/built-in.o
 .text.mmc_send_ext_csd
                0x0000000024016abc       0x2e drivers/built-in.o
 *fill*         0x0000000024016aea        0x2 
 .text.mmc_send_op_cond_iter
                0x0000000024016aec       0x44 drivers/built-in.o
 .text.mmc_go_idle
                0x0000000024016b30       0x32 drivers/built-in.o
 .text.mmc_set_capacity
                0x0000000024016b62       0x62 drivers/built-in.o
 .text.mmc_read_and_compare_ext_csd
                0x0000000024016bc4       0x78 drivers/built-in.o
 .text.mmc_mode_name
                0x0000000024016c3c       0x18 drivers/built-in.o
                0x0000000024016c3c                mmc_mode_name
 .text.mmc_send_status
                0x0000000024016c54       0x8c drivers/built-in.o
                0x0000000024016c54                mmc_send_status
 .text.__mmc_switch.constprop.0
                0x0000000024016ce0       0x3e drivers/built-in.o
 *fill*         0x0000000024016d1e        0x2 
 .text.mmc_set_card_speed.constprop.0
                0x0000000024016d20       0x68 drivers/built-in.o
 .text.mmc_set_blocklen
                0x0000000024016d88       0x42 drivers/built-in.o
                0x0000000024016d88                mmc_set_blocklen
 *fill*         0x0000000024016dca        0x2 
 .text.mmc_bread
                0x0000000024016dcc       0xe8 drivers/built-in.o
                0x0000000024016dcc                mmc_bread
 .text.mmc_switch
                0x0000000024016eb4        0x8 drivers/built-in.o
                0x0000000024016eb4                mmc_switch
 .text.mmc_startup_v4
                0x0000000024016ebc      0x260 drivers/built-in.o
 .text.mmc_switch_part
                0x000000002401711c       0x40 drivers/built-in.o
                0x000000002401711c                mmc_switch_part
 .text.mmc_hwpart_config
                0x000000002401715c      0x2d8 drivers/built-in.o
                0x000000002401715c                mmc_hwpart_config
 .text.mmc_set_clock
                0x0000000024017434       0x20 drivers/built-in.o
                0x0000000024017434                mmc_set_clock
 .text.mmc_dump_capabilities
                0x0000000024017454        0x2 drivers/built-in.o
                0x0000000024017454                mmc_dump_capabilities
 *fill*         0x0000000024017456        0x2 
 .text.mmc_get_op_cond
                0x0000000024017458      0x174 drivers/built-in.o
                0x0000000024017458                mmc_get_op_cond
 .text.mmc_start_init
                0x00000000240175cc       0x3c drivers/built-in.o
                0x00000000240175cc                mmc_start_init
 .text.mmc_init
                0x0000000024017608      0x934 drivers/built-in.o
                0x0000000024017608                mmc_init
 .text.mmc_set_dsr
                0x0000000024017f3c        0x6 drivers/built-in.o
                0x0000000024017f3c                mmc_set_dsr
 *fill*         0x0000000024017f42        0x2 
 .text.mmc_initialize
                0x0000000024017f44       0x7c drivers/built-in.o
                0x0000000024017f44                mmc_initialize
 .text.mmc_blk_probe
                0x0000000024017fc0       0x14 drivers/built-in.o
 .text.dm_mmc_set_ios
                0x0000000024017fd4       0x10 drivers/built-in.o
                0x0000000024017fd4                dm_mmc_set_ios
 .text.mmc_set_ios
                0x0000000024017fe4        0x8 drivers/built-in.o
                0x0000000024017fe4                mmc_set_ios
 .text.dm_mmc_send_init_stream
                0x0000000024017fec        0xc drivers/built-in.o
                0x0000000024017fec                dm_mmc_send_init_stream
 .text.mmc_send_init_stream
                0x0000000024017ff8        0x8 drivers/built-in.o
                0x0000000024017ff8                mmc_send_init_stream
 .text.dm_mmc_get_wp
                0x0000000024018000       0x10 drivers/built-in.o
                0x0000000024018000                dm_mmc_get_wp
 .text.mmc_getwp
                0x0000000024018010        0x8 drivers/built-in.o
                0x0000000024018010                mmc_getwp
 .text.dm_mmc_get_cd
                0x0000000024018018       0x10 drivers/built-in.o
                0x0000000024018018                dm_mmc_get_cd
 .text.mmc_getcd
                0x0000000024018028        0x8 drivers/built-in.o
                0x0000000024018028                mmc_getcd
 .text.mmc_get_mmc_dev
                0x0000000024018030       0x16 drivers/built-in.o
                0x0000000024018030                mmc_get_mmc_dev
 .text.dm_mmc_send_cmd
                0x0000000024018046       0x26 drivers/built-in.o
                0x0000000024018046                dm_mmc_send_cmd
 .text.mmc_send_cmd
                0x000000002401806c        0x8 drivers/built-in.o
                0x000000002401806c                mmc_send_cmd
 .text.mmc_select_hwpart
                0x0000000024018074       0x3a drivers/built-in.o
 *fill*         0x00000000240180ae        0x2 
 .text.find_mmc_device
                0x00000000240180b0       0x30 drivers/built-in.o
                0x00000000240180b0                find_mmc_device
 .text.get_mmc_num
                0x00000000240180e0       0x10 drivers/built-in.o
                0x00000000240180e0                get_mmc_num
 .text.mmc_get_blk_desc
                0x00000000240180f0       0x1a drivers/built-in.o
                0x00000000240180f0                mmc_get_blk_desc
 .text.mmc_do_preinit
                0x000000002401810a       0x38 drivers/built-in.o
                0x000000002401810a                mmc_do_preinit
 *fill*         0x0000000024018142        0x2 
 .text.print_mmc_devices
                0x0000000024018144       0x9c drivers/built-in.o
                0x0000000024018144                print_mmc_devices
 .text.mmc_bind
                0x00000000240181e0       0x80 drivers/built-in.o
                0x00000000240181e0                mmc_bind
 .text.mmc_berase
                0x0000000024018260      0x114 drivers/built-in.o
                0x0000000024018260                mmc_berase
 .text.mmc_bwrite
                0x0000000024018374      0x10c drivers/built-in.o
                0x0000000024018374                mmc_bwrite
 .text.stm32_sdmmc2_start_cmd
                0x0000000024018480       0x60 drivers/built-in.o
 .text.stm32_sdmmc_bind
                0x00000000240184e0       0x18 drivers/built-in.o
                0x00000000240184e0                stm32_sdmmc_bind
 .text.stm32_sdmmc2_getcd
                0x00000000240184f8       0x18 drivers/built-in.o
 .text.stm32_sdmmc2_reset
                0x0000000024018510       0x26 drivers/built-in.o
 .text.stm32_sdmmc2_set_ios
                0x0000000024018536       0xc6 drivers/built-in.o
 .text.stm32_sdmmc2_end_cmd
                0x00000000240185fc       0xb6 drivers/built-in.o
 *fill*         0x00000000240186b2        0x2 
 .text.stm32_sdmmc2_probe
                0x00000000240186b4      0x150 drivers/built-in.o
 .text.stm32_sdmmc2_send_cmd
                0x0000000024018804      0x1e4 drivers/built-in.o
 .text.gpio_backlight_enable
                0x00000000240189e8       0x10 drivers/built-in.o
 .text.gpio_backlight_probe
                0x00000000240189f8       0x16 drivers/built-in.o
 *fill*         0x0000000024018a0e        0x2 
 .text.gpio_backlight_ofdata_to_platdata
                0x0000000024018a10       0x38 drivers/built-in.o
 .text.console_normal_set_row
                0x0000000024018a48       0x5a drivers/built-in.o
 *fill*         0x0000000024018aa2        0x2 
 .text.console_normal_putc_xy
                0x0000000024018aa4       0xd0 drivers/built-in.o
 .text.console_normal_probe
                0x0000000024018b74       0x28 drivers/built-in.o
 .text.console_normal_move_rows
                0x0000000024018b9c       0x2e drivers/built-in.o
 .text.backlight_enable
                0x0000000024018bca       0x10 drivers/built-in.o
                0x0000000024018bca                backlight_enable
 .text.backlight_set_brightness
                0x0000000024018bda       0x10 drivers/built-in.o
                0x0000000024018bda                backlight_set_brightness
 .text.panel_enable_backlight
                0x0000000024018bea       0x10 drivers/built-in.o
                0x0000000024018bea                panel_enable_backlight
 .text.simple_panel_probe
                0x0000000024018bfa        0xa drivers/built-in.o
 .text.simple_panel_set_backlight
                0x0000000024018c04       0x1e drivers/built-in.o
 .text.simple_panel_enable_backlight
                0x0000000024018c22       0x1a drivers/built-in.o
 .text.simple_panel_ofdata_to_platdata
                0x0000000024018c3c       0x4c drivers/built-in.o
 .text.video_pre_remove
                0x0000000024018c88       0x10 drivers/built-in.o
 .text.video_pre_probe
                0x0000000024018c98       0x20 drivers/built-in.o
 .text.alloc_fb.isra.0
                0x0000000024018cb8       0x24 drivers/built-in.o
 .text.video_post_bind
                0x0000000024018cdc       0x44 drivers/built-in.o
 .text.video_set_flush_dcache
                0x0000000024018d20        0xe drivers/built-in.o
                0x0000000024018d20                video_set_flush_dcache
 .text.video_reserve
                0x0000000024018d2e       0x2e drivers/built-in.o
                0x0000000024018d2e                video_reserve
 .text.video_clear
                0x0000000024018d5c       0x44 drivers/built-in.o
                0x0000000024018d5c                video_clear
 .text.video_set_default_colors
                0x0000000024018da0       0x2e drivers/built-in.o
                0x0000000024018da0                video_set_default_colors
 *fill*         0x0000000024018dce        0x2 
 .text.video_post_probe
                0x0000000024018dd0       0x94 drivers/built-in.o
 .text.video_sync
                0x0000000024018e64       0x24 drivers/built-in.o
                0x0000000024018e64                video_sync
 .text.vidconsole_pre_probe
                0x0000000024018e88       0x1a drivers/built-in.o
 .text.parsenum
                0x0000000024018ea2       0x14 drivers/built-in.o
 *fill*         0x0000000024018eb6        0x2 
 .text.vidconsole_post_probe
                0x0000000024018eb8       0x54 drivers/built-in.o
 .text.vidconsole_putc_xy
                0x0000000024018f0c       0x18 drivers/built-in.o
                0x0000000024018f0c                vidconsole_putc_xy
 .text.vidconsole_move_rows
                0x0000000024018f24       0x18 drivers/built-in.o
                0x0000000024018f24                vidconsole_move_rows
 .text.vidconsole_set_row
                0x0000000024018f3c       0x10 drivers/built-in.o
                0x0000000024018f3c                vidconsole_set_row
 .text.vidconsole_newline
                0x0000000024018f4c       0x58 drivers/built-in.o
 .text.vid_console_color
                0x0000000024018fa4       0x50 drivers/built-in.o
                0x0000000024018fa4                vid_console_color
 .text.vidconsole_put_char
                0x0000000024018ff4      0x2a4 drivers/built-in.o
                0x0000000024018ff4                vidconsole_put_char
 .text.vidconsole_puts
                0x0000000024019298       0x1e drivers/built-in.o
 .text.vidconsole_putc
                0x00000000240192b6       0x16 drivers/built-in.o
 .text.do_video_puts
                0x00000000240192cc       0x3c drivers/built-in.o
 .text.vidconsole_position_cursor
                0x0000000024019308       0x40 drivers/built-in.o
                0x0000000024019308                vidconsole_position_cursor
 .text.do_video_setcursor
                0x0000000024019348       0x44 drivers/built-in.o
 .text.fb_put_byte
                0x000000002401938c       0x12 drivers/built-in.o
                0x000000002401938c                fb_put_byte
 .text.fb_put_word
                0x000000002401939e       0x24 drivers/built-in.o
                0x000000002401939e                fb_put_word
 *fill*         0x00000000240193c2        0x2 
 .text.video_bmp_display
                0x00000000240193c4      0x538 drivers/built-in.o
                0x00000000240193c4                video_bmp_display
 .text.stm32_ltdc_bind
                0x00000000240198fc       0x10 drivers/built-in.o
 .text.stm32_ltdc_probe
                0x000000002401990c      0x2cc drivers/built-in.o
 .text.reset_get_by_index
                0x0000000024019bd8       0x60 drivers/built-in.o
                0x0000000024019bd8                reset_get_by_index
 .text.reset_get_by_name
                0x0000000024019c38       0x2c drivers/built-in.o
                0x0000000024019c38                reset_get_by_name
 .text.reset_free
                0x0000000024019c64        0xa drivers/built-in.o
                0x0000000024019c64                reset_free
 .text.reset_assert
                0x0000000024019c6e        0xa drivers/built-in.o
                0x0000000024019c6e                reset_assert
 .text.reset_deassert
                0x0000000024019c78        0xa drivers/built-in.o
                0x0000000024019c78                reset_deassert
 .text.stm32_reset_request
                0x0000000024019c82        0x4 drivers/built-in.o
 .text.stm32_reset_deassert
                0x0000000024019c86       0x4e drivers/built-in.o
 .text.stm32_reset_assert
                0x0000000024019cd4       0x40 drivers/built-in.o
 .text.stm32_reset_probe
                0x0000000024019d14       0x2c drivers/built-in.o
 .text.stm32_reset_free
                0x0000000024019d40        0x4 drivers/built-in.o
 .text.gpio_post_bind
                0x0000000024019d44        0x4 drivers/gpio/built-in.o
 .text.get_function
                0x0000000024019d48       0x5e drivers/gpio/built-in.o
 .text.gpio_to_device
                0x0000000024019da6       0x4a drivers/gpio/built-in.o
 .text.check_reserved
                0x0000000024019df0       0x4c drivers/gpio/built-in.o
 .text.gpio_renumber
                0x0000000024019e3c       0x46 drivers/gpio/built-in.o
 .text.gpio_pre_remove
                0x0000000024019e82       0x30 drivers/gpio/built-in.o
 .text.gpio_post_probe
                0x0000000024019eb2       0x24 drivers/gpio/built-in.o
 .text.gpio_xlate_offs_flags
                0x0000000024019ed6       0x26 drivers/gpio/built-in.o
                0x0000000024019ed6                gpio_xlate_offs_flags
 .text.dm_gpio_request
                0x0000000024019efc       0x62 drivers/gpio/built-in.o
                0x0000000024019efc                dm_gpio_request
 .text.dm_gpio_requestf
                0x0000000024019f5e       0x2a drivers/gpio/built-in.o
 .text.gpio_request
                0x0000000024019f88       0x18 drivers/gpio/built-in.o
                0x0000000024019f88                gpio_request
 .text._dm_gpio_free
                0x0000000024019fa0       0x42 drivers/gpio/built-in.o
                0x0000000024019fa0                _dm_gpio_free
 *fill*         0x0000000024019fe2        0x2 
 .text.gpio_direction_input
                0x0000000024019fe4       0x2c drivers/gpio/built-in.o
                0x0000000024019fe4                gpio_direction_input
 .text.gpio_direction_output
                0x000000002401a010       0x2c drivers/gpio/built-in.o
                0x000000002401a010                gpio_direction_output
 .text.dm_gpio_get_value
                0x000000002401a03c       0x2c drivers/gpio/built-in.o
                0x000000002401a03c                dm_gpio_get_value
 .text.dm_gpio_set_value
                0x000000002401a068       0x34 drivers/gpio/built-in.o
                0x000000002401a068                dm_gpio_set_value
 .text.dm_gpio_set_dir_flags
                0x000000002401a09c       0x58 drivers/gpio/built-in.o
                0x000000002401a09c                dm_gpio_set_dir_flags
 .text.gpio_request_tail
                0x000000002401a0f4       0x88 drivers/gpio/built-in.o
 .text.gpio_get_value
                0x000000002401a17c       0x16 drivers/gpio/built-in.o
                0x000000002401a17c                gpio_get_value
 .text.gpio_get_raw_function
                0x000000002401a192        0x8 drivers/gpio/built-in.o
                0x000000002401a192                gpio_get_raw_function
 *fill*         0x000000002401a19a        0x2 
 .text.gpio_request_by_name
                0x000000002401a19c       0x48 drivers/gpio/built-in.o
                0x000000002401a19c                gpio_request_by_name
 .text.dm_gpio_free
                0x000000002401a1e4        0xa drivers/gpio/built-in.o
                0x000000002401a1e4                dm_gpio_free
 *fill*         0x000000002401a1ee        0x2 
 .text.gpio_stm32_probe
                0x000000002401a1f0       0xd8 drivers/gpio/built-in.o
 .text.stm32_offset_to_index
                0x000000002401a2c8       0x28 drivers/gpio/built-in.o
                0x000000002401a2c8                stm32_offset_to_index
 .text.stm32_gpio_get_function
                0x000000002401a2f0       0x3a drivers/gpio/built-in.o
 .text.stm32_gpio_set_value
                0x000000002401a32a       0x32 drivers/gpio/built-in.o
 .text.stm32_gpio_get_value
                0x000000002401a35c       0x28 drivers/gpio/built-in.o
 .text.stm32_gpio_direction_output
                0x000000002401a384       0x46 drivers/gpio/built-in.o
 .text.stm32_gpio_direction_input
                0x000000002401a3ca       0x2c drivers/gpio/built-in.o
 .text.mtd_check_oob_ops
                0x000000002401a3f6       0xdc drivers/mtd/built-in.o
 .text.idr_remove
                0x000000002401a4d2       0x14 drivers/mtd/built-in.o
                0x000000002401a4d2                idr_remove
 .text.idr_find
                0x000000002401a4e6        0xe drivers/mtd/built-in.o
                0x000000002401a4e6                idr_find
 .text.idr_get_next
                0x000000002401a4f4       0x22 drivers/mtd/built-in.o
                0x000000002401a4f4                idr_get_next
 .text.idr_alloc
                0x000000002401a516       0x2a drivers/mtd/built-in.o
                0x000000002401a516                idr_alloc
 .text.__mtd_next_device
                0x000000002401a540       0x18 drivers/mtd/built-in.o
                0x000000002401a540                __mtd_next_device
 .text.mtd_dev_list_updated
                0x000000002401a558       0x14 drivers/mtd/built-in.o
                0x000000002401a558                mtd_dev_list_updated
 .text.del_mtd_device
                0x000000002401a56c       0x48 drivers/mtd/built-in.o
                0x000000002401a56c                del_mtd_device
 .text.__get_mtd_device
                0x000000002401a5b4       0x20 drivers/mtd/built-in.o
                0x000000002401a5b4                __get_mtd_device
 .text.get_mtd_device
                0x000000002401a5d4       0x4c drivers/mtd/built-in.o
                0x000000002401a5d4                get_mtd_device
 .text.get_mtd_device_nm
                0x000000002401a620       0x34 drivers/mtd/built-in.o
                0x000000002401a620                get_mtd_device_nm
 .text.__put_mtd_device
                0x000000002401a654       0x44 drivers/mtd/built-in.o
                0x000000002401a654                __put_mtd_device
 .text.put_mtd_device
                0x000000002401a698        0x4 drivers/mtd/built-in.o
                0x000000002401a698                put_mtd_device
 .text.mtd_erase
                0x000000002401a69c       0x64 drivers/mtd/built-in.o
                0x000000002401a69c                mtd_erase
 .text.mtd_read
                0x000000002401a700       0xa0 drivers/mtd/built-in.o
                0x000000002401a700                mtd_read
 .text.mtd_write
                0x000000002401a7a0       0x98 drivers/mtd/built-in.o
                0x000000002401a7a0                mtd_write
 .text.mtd_read_oob
                0x000000002401a838       0x6e drivers/mtd/built-in.o
                0x000000002401a838                mtd_read_oob
 .text.mtd_write_oob
                0x000000002401a8a6       0x62 drivers/mtd/built-in.o
                0x000000002401a8a6                mtd_write_oob
 .text.mtd_unlock
                0x000000002401a908       0x4c drivers/mtd/built-in.o
                0x000000002401a908                mtd_unlock
 .text.add_mtd_device
                0x000000002401a954      0x134 drivers/mtd/built-in.o
                0x000000002401a954                add_mtd_device
 .text.mtd_block_isbad
                0x000000002401aa88       0x28 drivers/mtd/built-in.o
                0x000000002401aa88                mtd_block_isbad
 .text.mtd_block_markbad
                0x000000002401aab0       0x3a drivers/mtd/built-in.o
                0x000000002401aab0                mtd_block_markbad
 *fill*         0x000000002401aaea        0x2 
 .text.get_mtdids
                0x000000002401aaec       0x20 drivers/mtd/built-in.o
 .text.mtd_search_alternate_name
                0x000000002401ab0c       0x74 drivers/mtd/built-in.o
                0x000000002401ab0c                mtd_search_alternate_name
 .text.mtd_probe_devices
                0x000000002401ab80      0x288 drivers/mtd/built-in.o
                0x000000002401ab80                mtd_probe_devices
 .text.mtd_arg_off
                0x000000002401ae08       0x50 drivers/mtd/built-in.o
                0x000000002401ae08                mtd_arg_off
 .text.mtd_arg_off_size
                0x000000002401ae58       0xc0 drivers/mtd/built-in.o
                0x000000002401ae58                mtd_arg_off_size
 .text.mtd_probe
                0x000000002401af18        0xe drivers/mtd/built-in.o
                0x000000002401af18                mtd_probe
 .text.part_get_unmapped_area
                0x000000002401af26       0x16 drivers/mtd/built-in.o
 .text.part_read_user_prot_reg
                0x000000002401af3c        0xa drivers/mtd/built-in.o
 .text.part_get_user_prot_info
                0x000000002401af46        0xe drivers/mtd/built-in.o
 .text.part_read_fact_prot_reg
                0x000000002401af54        0x8 drivers/mtd/built-in.o
 .text.part_get_fact_prot_info
                0x000000002401af5c        0xe drivers/mtd/built-in.o
 .text.part_write
                0x000000002401af6a       0x12 drivers/mtd/built-in.o
 .text.part_panic_write
                0x000000002401af7c       0x12 drivers/mtd/built-in.o
 .text.part_write_oob
                0x000000002401af8e       0x42 drivers/mtd/built-in.o
 .text.part_write_user_prot_reg
                0x000000002401afd0        0xa drivers/mtd/built-in.o
 .text.part_lock_user_prot_reg
                0x000000002401afda        0xa drivers/mtd/built-in.o
 .text.part_lock
                0x000000002401afe4       0x14 drivers/mtd/built-in.o
 .text.part_unlock
                0x000000002401aff8       0x14 drivers/mtd/built-in.o
 .text.part_is_locked
                0x000000002401b00c       0x14 drivers/mtd/built-in.o
 .text.part_sync
                0x000000002401b020        0xa drivers/mtd/built-in.o
 .text.part_block_isreserved
                0x000000002401b02a       0x18 drivers/mtd/built-in.o
 .text.part_block_isbad
                0x000000002401b042       0x18 drivers/mtd/built-in.o
 .text.part_block_markbad
                0x000000002401b05a       0x26 drivers/mtd/built-in.o
 .text.part_read
                0x000000002401b080       0x58 drivers/mtd/built-in.o
 .text.part_read_oob
                0x000000002401b0d8      0x114 drivers/mtd/built-in.o
 .text.mtd_parse_partition
                0x000000002401b1ec      0x160 drivers/mtd/built-in.o
 .text.part_erase
                0x000000002401b34c       0x54 drivers/mtd/built-in.o
 .text.kstrdup  0x000000002401b3a0       0x2a drivers/mtd/built-in.o
                0x000000002401b3a0                kstrdup
 .text.mtd_partitions_used
                0x000000002401b3ca       0x24 drivers/mtd/built-in.o
                0x000000002401b3ca                mtd_partitions_used
 *fill*         0x000000002401b3ee        0x2 
 .text.mtd_parse_partitions
                0x000000002401b3f0      0x118 drivers/mtd/built-in.o
                0x000000002401b3f0                mtd_parse_partitions
 .text.mtd_free_parsed_partitions
                0x000000002401b508       0x22 drivers/mtd/built-in.o
                0x000000002401b508                mtd_free_parsed_partitions
 *fill*         0x000000002401b52a        0x2 
 .text.mtd_erase_callback
                0x000000002401b52c       0x4c drivers/mtd/built-in.o
                0x000000002401b52c                mtd_erase_callback
 .text.del_mtd_partitions
                0x000000002401b578       0x84 drivers/mtd/built-in.o
                0x000000002401b578                del_mtd_partitions
 .text.add_mtd_partitions
                0x000000002401b5fc      0x4d8 drivers/mtd/built-in.o
                0x000000002401b5fc                add_mtd_partitions
 .text.mtd_get_device_size
                0x000000002401bad4       0x12 drivers/mtd/built-in.o
                0x000000002401bad4                mtd_get_device_size
 *fill*         0x000000002401bae6        0x2 
 .text.flash_init
                0x000000002401bae8       0x38 drivers/mtd/built-in.o
                0x000000002401bae8                flash_init
 .text.flash_print_info
                0x000000002401bb20       0x9c drivers/mtd/built-in.o
                0x000000002401bb20                flash_print_info
 .text.flash_erase
                0x000000002401bbbc       0x64 drivers/mtd/built-in.o
                0x000000002401bbbc                flash_erase
 .text.write_buff
                0x000000002401bc20       0x68 drivers/mtd/built-in.o
                0x000000002401bc20                write_buff
 .text.spi_flash_post_bind
                0x000000002401bc88        0x4 drivers/mtd/spi/built-in.o
 .text.spi_flash_read_dm
                0x000000002401bc8c        0xe drivers/mtd/spi/built-in.o
                0x000000002401bc8c                spi_flash_read_dm
 .text.spi_flash_write_dm
                0x000000002401bc9a        0xe drivers/mtd/spi/built-in.o
                0x000000002401bc9a                spi_flash_write_dm
 .text.spi_flash_erase_dm
                0x000000002401bca8        0x8 drivers/mtd/spi/built-in.o
                0x000000002401bca8                spi_flash_erase_dm
 .text.spi_flash_probe_bus_cs
                0x000000002401bcb0       0x50 drivers/mtd/spi/built-in.o
                0x000000002401bcb0                spi_flash_probe_bus_cs
 .text.spi_flash_std_write
                0x000000002401bd00       0x22 drivers/mtd/spi/built-in.o
 .text.spi_flash_std_read
                0x000000002401bd22       0x22 drivers/mtd/spi/built-in.o
 .text.spi_flash_std_get_sw_write_prot
                0x000000002401bd44        0xe drivers/mtd/spi/built-in.o
 *fill*         0x000000002401bd52        0x2 
 .text.spi_flash_std_erase
                0x000000002401bd54       0x54 drivers/mtd/spi/built-in.o
 .text.spi_flash_std_remove
                0x000000002401bda8        0xa drivers/mtd/spi/built-in.o
 *fill*         0x000000002401bdb2        0x2 
 .text.spi_flash_std_probe
                0x000000002401bdb4       0x58 drivers/mtd/spi/built-in.o
 .text.read_sr  0x000000002401be0c       0x1c drivers/mtd/spi/built-in.o
 .text.read_cr  0x000000002401be28       0x1c drivers/mtd/spi/built-in.o
 .text.write_sr
                0x000000002401be44       0x18 drivers/mtd/spi/built-in.o
 .text.stm_get_locked_range
                0x000000002401be5c       0x64 drivers/mtd/spi/built-in.o
 .text.spi_nor_write_data
                0x000000002401bec0       0x9a drivers/mtd/spi/built-in.o
 .text.spi_nor_read_data
                0x000000002401bf5a       0x8a drivers/mtd/spi/built-in.o
 .text.spi_nor_wait_till_ready
                0x000000002401bfe4       0xa0 drivers/mtd/spi/built-in.o
 .text.spi_nor_read_reg
                0x000000002401c084       0x36 drivers/mtd/spi/built-in.o
 .text.write_disable.isra.0
                0x000000002401c0ba       0x12 drivers/mtd/spi/built-in.o
 .text.write_enable.isra.0
                0x000000002401c0cc       0x12 drivers/mtd/spi/built-in.o
 .text.write_sr_and_check.constprop.0
                0x000000002401c0de       0x42 drivers/mtd/spi/built-in.o
 .text.macronix_quad_enable
                0x000000002401c120       0x54 drivers/mtd/spi/built-in.o
 .text.spansion_read_cr_quad_enable
                0x000000002401c174       0x62 drivers/mtd/spi/built-in.o
 .text.write_bar
                0x000000002401c1d6       0x3c drivers/mtd/spi/built-in.o
 .text.clean_bar
                0x000000002401c212       0x34 drivers/mtd/spi/built-in.o
 .text.spi_nor_read
                0x000000002401c246       0x6c drivers/mtd/spi/built-in.o
 .text.spi_nor_write
                0x000000002401c2b2       0xf0 drivers/mtd/spi/built-in.o
 .text.spi_nor_erase
                0x000000002401c3a2       0xae drivers/mtd/spi/built-in.o
 .text.spi_nor_write_reg
                0x000000002401c450       0x38 drivers/mtd/spi/built-in.o
 .text.stm_is_locked_sr
                0x000000002401c488       0x52 drivers/mtd/spi/built-in.o
 .text.stm_is_locked
                0x000000002401c4da       0x2a drivers/mtd/spi/built-in.o
 .text.stm_lock
                0x000000002401c504      0x1f0 drivers/mtd/spi/built-in.o
 .text.stm_is_unlocked_sr
                0x000000002401c6f4       0x4e drivers/mtd/spi/built-in.o
 .text.stm_unlock
                0x000000002401c742      0x1ae drivers/mtd/spi/built-in.o
 .text.spi_nor_scan
                0x000000002401c8f0      0x590 drivers/mtd/spi/built-in.o
                0x000000002401c8f0                spi_nor_scan
 .text.spi_flash_cmd_get_sw_write_prot
                0x000000002401ce80       0x10 drivers/mtd/spi/built-in.o
                0x000000002401ce80                spi_flash_cmd_get_sw_write_prot
 .text.spi_flash_mtd_sync
                0x000000002401ce90        0x2 drivers/mtd/spi/built-in.o
 .text.spi_flash_mtd_write
                0x000000002401ce92       0x26 drivers/mtd/spi/built-in.o
 .text.spi_flash_mtd_read
                0x000000002401ceb8       0x26 drivers/mtd/spi/built-in.o
 .text.spi_flash_mtd_erase
                0x000000002401cede       0x4e drivers/mtd/spi/built-in.o
 .text.spi_flash_mtd_register
                0x000000002401cf2c       0xac drivers/mtd/spi/built-in.o
                0x000000002401cf2c                spi_flash_mtd_register
 .text.spi_flash_mtd_unregister
                0x000000002401cfd8       0x34 drivers/mtd/spi/built-in.o
                0x000000002401cfd8                spi_flash_mtd_unregister
 .text.add_to_list
                0x000000002401d00c       0x8c drivers/mtd/ubi/built-in.o
 .text.validate_vid_hdr
                0x000000002401d098      0x2c4 drivers/mtd/ubi/built-in.o
 .text.alloc_ai
                0x000000002401d35c       0x4a drivers/mtd/ubi/built-in.o
 .text.destroy_ai
                0x000000002401d3a6      0x13a drivers/mtd/ubi/built-in.o
 .text.ubi_compare_lebs
                0x000000002401d4e0      0x1d8 drivers/mtd/ubi/built-in.o
                0x000000002401d4e0                ubi_compare_lebs
 .text.ubi_add_to_av
                0x000000002401d6b8      0x34c drivers/mtd/ubi/built-in.o
                0x000000002401d6b8                ubi_add_to_av
 .text.scan_peb
                0x000000002401da04      0x474 drivers/mtd/ubi/built-in.o
 .text.scan_all
                0x000000002401de78      0x7d8 drivers/mtd/ubi/built-in.o
 .text.ubi_find_av
                0x000000002401e650       0x1e drivers/mtd/ubi/built-in.o
                0x000000002401e650                ubi_find_av
 .text.ubi_remove_av
                0x000000002401e66e       0x48 drivers/mtd/ubi/built-in.o
                0x000000002401e66e                ubi_remove_av
 *fill*         0x000000002401e6b6        0x2 
 .text.ubi_early_get_peb
                0x000000002401e6b8      0x124 drivers/mtd/ubi/built-in.o
                0x000000002401e6b8                ubi_early_get_peb
 .text.ubi_attach
                0x000000002401e7dc      0x24c drivers/mtd/ubi/built-in.o
                0x000000002401e7dc                ubi_attach
 .text.kill_volumes
                0x000000002401ea28       0x24 drivers/mtd/ubi/built-in.o
 .text.ubi_volume_notify
                0x000000002401ea4c       0x3c drivers/mtd/ubi/built-in.o
                0x000000002401ea4c                ubi_volume_notify
 .text.ubi_notify_all
                0x000000002401ea88       0x36 drivers/mtd/ubi/built-in.o
                0x000000002401ea88                ubi_notify_all
 *fill*         0x000000002401eabe        0x2 
 .text.ubi_get_device
                0x000000002401eac0       0x44 drivers/mtd/ubi/built-in.o
                0x000000002401eac0                ubi_get_device
 .text.ubi_put_device
                0x000000002401eb04        0xc drivers/mtd/ubi/built-in.o
                0x000000002401eb04                ubi_put_device
 .text.ubi_free_internal_volumes
                0x000000002401eb10       0x2e drivers/mtd/ubi/built-in.o
                0x000000002401eb10                ubi_free_internal_volumes
 *fill*         0x000000002401eb3e        0x2 
 .text.ubi_attach_mtd_dev
                0x000000002401eb40      0x75c drivers/mtd/ubi/built-in.o
                0x000000002401eb40                ubi_attach_mtd_dev
 .text.ubi_detach_mtd_dev
                0x000000002401f29c       0xf4 drivers/mtd/ubi/built-in.o
                0x000000002401f29c                ubi_detach_mtd_dev
 .text.ubi_init
                0x000000002401f390      0x104 drivers/mtd/ubi/built-in.o
                0x000000002401f390                ubi_init
 .text.ubi_exit
                0x000000002401f494       0x3c drivers/mtd/ubi/built-in.o
                0x000000002401f494                ubi_exit
 .text.kstrtoint
                0x000000002401f4d0       0x16 drivers/mtd/ubi/built-in.o
                0x000000002401f4d0                kstrtoint
 *fill*         0x000000002401f4e6        0x2 
 .text.ubi_mtd_param_parse
                0x000000002401f4e8      0x174 drivers/mtd/ubi/built-in.o
                0x000000002401f4e8                ubi_mtd_param_parse
 .text.ubi_update_layout_vol
                0x000000002401f65c       0x3a drivers/mtd/ubi/built-in.o
 *fill*         0x000000002401f696        0x2 
 .text.vtbl_check
                0x000000002401f698      0x258 drivers/mtd/ubi/built-in.o
 .text.create_vtbl
                0x000000002401f8f0      0x14a drivers/mtd/ubi/built-in.o
 *fill*         0x000000002401fa3a        0x2 
 .text.ubi_change_vtbl_record
                0x000000002401fa3c       0xc4 drivers/mtd/ubi/built-in.o
                0x000000002401fa3c                ubi_change_vtbl_record
 .text.ubi_read_volume_table
                0x000000002401fb00      0x62c drivers/mtd/ubi/built-in.o
                0x000000002401fb00                ubi_read_volume_table
 .text.vol_release
                0x000000002402012c       0x16 drivers/mtd/ubi/built-in.o
 *fill*         0x0000000024020142        0x2 
 .text.self_check_volumes.isra.0
                0x0000000024020144      0x2f4 drivers/mtd/ubi/built-in.o
 .text.ubi_create_volume
                0x0000000024020438      0x354 drivers/mtd/ubi/built-in.o
                0x0000000024020438                ubi_create_volume
 .text.ubi_resize_volume
                0x000000002402078c      0x1d8 drivers/mtd/ubi/built-in.o
                0x000000002402078c                ubi_resize_volume
 .text.ubi_add_volume
                0x0000000024020964       0x20 drivers/mtd/ubi/built-in.o
                0x0000000024020964                ubi_add_volume
 .text.ubi_free_volume
                0x0000000024020984        0xe drivers/mtd/ubi/built-in.o
                0x0000000024020984                ubi_free_volume
 *fill*         0x0000000024020992        0x2 
 .text.clear_update_marker
                0x0000000024020994       0xac drivers/mtd/ubi/built-in.o
 .text.write_leb
                0x0000000024020a40       0x78 drivers/mtd/ubi/built-in.o
 .text.ubi_start_update
                0x0000000024020ab8      0x14c drivers/mtd/ubi/built-in.o
                0x0000000024020ab8                ubi_start_update
 .text.ubi_more_update_data
                0x0000000024020c04      0x1ec drivers/mtd/ubi/built-in.o
                0x0000000024020c04                ubi_more_update_data
 .text.ubi_do_get_device_info
                0x0000000024020df0       0x24 drivers/mtd/ubi/built-in.o
                0x0000000024020df0                ubi_do_get_device_info
 .text.ubi_get_device_info
                0x0000000024020e14       0x28 drivers/mtd/ubi/built-in.o
                0x0000000024020e14                ubi_get_device_info
 .text.ubi_do_get_volume_info
                0x0000000024020e3c       0x46 drivers/mtd/ubi/built-in.o
                0x0000000024020e3c                ubi_do_get_volume_info
 .text.ubi_get_volume_info
                0x0000000024020e82        0xa drivers/mtd/ubi/built-in.o
                0x0000000024020e82                ubi_get_volume_info
 .text.ubi_close_volume
                0x0000000024020e8c       0x44 drivers/mtd/ubi/built-in.o
                0x0000000024020e8c                ubi_close_volume
 .text.ubi_open_volume
                0x0000000024020ed0      0x124 drivers/mtd/ubi/built-in.o
                0x0000000024020ed0                ubi_open_volume
 .text.ubi_open_volume_nm
                0x0000000024020ff4       0x7c drivers/mtd/ubi/built-in.o
                0x0000000024020ff4                ubi_open_volume_nm
 .text.ubi_leb_read
                0x0000000024021070       0x90 drivers/mtd/ubi/built-in.o
                0x0000000024021070                ubi_leb_read
 .text.ubi_leb_write
                0x0000000024021100       0x7c drivers/mtd/ubi/built-in.o
                0x0000000024021100                ubi_leb_write
 .text.ubi_leb_change
                0x000000002402117c       0x70 drivers/mtd/ubi/built-in.o
                0x000000002402117c                ubi_leb_change
 .text.ubi_leb_unmap
                0x00000000240211ec       0x3c drivers/mtd/ubi/built-in.o
                0x00000000240211ec                ubi_leb_unmap
 .text.ubi_leb_map
                0x0000000024021228       0x5a drivers/mtd/ubi/built-in.o
                0x0000000024021228                ubi_leb_map
 .text.ubi_is_mapped
                0x0000000024021282       0x2e drivers/mtd/ubi/built-in.o
                0x0000000024021282                ubi_is_mapped
 .text.is_error_sane
                0x00000000240212b0       0x20 drivers/mtd/ubi/built-in.o
 .text.ltree_lookup.isra.0
                0x00000000240212d0       0x1c drivers/mtd/ubi/built-in.o
 .text.leb_read_unlock
                0x00000000240212ec       0x50 drivers/mtd/ubi/built-in.o
 .text.leb_write_unlock
                0x000000002402133c       0x50 drivers/mtd/ubi/built-in.o
 .text.leb_read_lock
                0x000000002402138c       0xc4 drivers/mtd/ubi/built-in.o
 .text.ubi_next_sqnum
                0x0000000024021450       0x14 drivers/mtd/ubi/built-in.o
                0x0000000024021450                ubi_next_sqnum
 .text.ubi_eba_unmap_leb
                0x0000000024021464       0x58 drivers/mtd/ubi/built-in.o
                0x0000000024021464                ubi_eba_unmap_leb
 .text.ubi_eba_read_leb
                0x00000000240214bc      0x208 drivers/mtd/ubi/built-in.o
                0x00000000240214bc                ubi_eba_read_leb
 .text.ubi_eba_write_leb
                0x00000000240216c4      0x450 drivers/mtd/ubi/built-in.o
                0x00000000240216c4                ubi_eba_write_leb
 .text.ubi_eba_write_leb_st
                0x0000000024021b14      0x29c drivers/mtd/ubi/built-in.o
                0x0000000024021b14                ubi_eba_write_leb_st
 .text.ubi_eba_atomic_leb_change
                0x0000000024021db0      0x258 drivers/mtd/ubi/built-in.o
                0x0000000024021db0                ubi_eba_atomic_leb_change
 .text.ubi_eba_copy_leb
                0x0000000024022008      0x298 drivers/mtd/ubi/built-in.o
                0x0000000024022008                ubi_eba_copy_leb
 .text.self_check_eba
                0x00000000240222a0      0x1c4 drivers/mtd/ubi/built-in.o
                0x00000000240222a0                self_check_eba
 .text.ubi_eba_init
                0x0000000024022464      0x198 drivers/mtd/ubi/built-in.o
                0x0000000024022464                ubi_eba_init
 .text.erase_callback
                0x00000000240225fc        0x2 drivers/mtd/ubi/built-in.o
 *fill*         0x00000000240225fe        0x2 
 .text.validate_ec_hdr
                0x0000000024022600       0xe4 drivers/mtd/ubi/built-in.o
 .text.self_check_ec_hdr.part.0
                0x00000000240226e4       0x68 drivers/mtd/ubi/built-in.o
 .text.self_check_vid_hdr.part.0
                0x000000002402274c       0x74 drivers/mtd/ubi/built-in.o
 .text.ubi_io_is_bad
                0x00000000240227c0       0x68 drivers/mtd/ubi/built-in.o
                0x00000000240227c0                ubi_io_is_bad
 .text.self_check_not_bad
                0x0000000024022828       0x3c drivers/mtd/ubi/built-in.o
 .text.ubi_io_read
                0x0000000024022864      0x168 drivers/mtd/ubi/built-in.o
                0x0000000024022864                ubi_io_read
 .text.self_check_peb_ec_hdr.part.0
                0x00000000240229cc       0xc0 drivers/mtd/ubi/built-in.o
 .text.ubi_io_mark_bad
                0x0000000024022a8c       0x80 drivers/mtd/ubi/built-in.o
                0x0000000024022a8c                ubi_io_mark_bad
 .text.ubi_io_read_ec_hdr
                0x0000000024022b0c      0x110 drivers/mtd/ubi/built-in.o
                0x0000000024022b0c                ubi_io_read_ec_hdr
 .text.ubi_io_read_vid_hdr
                0x0000000024022c1c      0x118 drivers/mtd/ubi/built-in.o
                0x0000000024022c1c                ubi_io_read_vid_hdr
 .text.ubi_self_check_all_ff
                0x0000000024022d34       0xf0 drivers/mtd/ubi/built-in.o
                0x0000000024022d34                ubi_self_check_all_ff
 .text.ubi_io_write
                0x0000000024022e24      0x39c drivers/mtd/ubi/built-in.o
                0x0000000024022e24                ubi_io_write
 .text.ubi_io_write_ec_hdr
                0x00000000240231c0       0xf4 drivers/mtd/ubi/built-in.o
                0x00000000240231c0                ubi_io_write_ec_hdr
 .text.ubi_io_write_vid_hdr
                0x00000000240232b4       0xc8 drivers/mtd/ubi/built-in.o
                0x00000000240232b4                ubi_io_write_vid_hdr
 .text.do_sync_erase
                0x000000002402337c      0x132 drivers/mtd/ubi/built-in.o
 *fill*         0x00000000240234ae        0x2 
 .text.ubi_io_sync_erase
                0x00000000240234b0      0x23c drivers/mtd/ubi/built-in.o
                0x00000000240234b0                ubi_io_sync_erase
 .text.prot_queue_del
                0x00000000240236ec       0x64 drivers/mtd/ubi/built-in.o
 .text.do_work  0x0000000024023750       0x70 drivers/mtd/ubi/built-in.o
 .text.prot_queue_add
                0x00000000240237c0       0x50 drivers/mtd/ubi/built-in.o
 .text.__schedule_ubi_work
                0x0000000024023810       0x48 drivers/mtd/ubi/built-in.o
 .text.shutdown_work
                0x0000000024023858       0x58 drivers/mtd/ubi/built-in.o
 .text.find_wl_entry
                0x00000000240238b0       0x46 drivers/mtd/ubi/built-in.o
 .text.find_anchor_wl_entry
                0x00000000240238f6       0x2a drivers/mtd/ubi/built-in.o
 .text.wl_tree_add
                0x0000000024023920       0x78 drivers/mtd/ubi/built-in.o
 .text.return_unused_pool_pebs
                0x0000000024023998       0x38 drivers/mtd/ubi/built-in.o
 .text.ensure_wear_leveling
                0x00000000240239d0       0x88 drivers/mtd/ubi/built-in.o
 .text.find_mean_wl_entry
                0x0000000024023a58       0x50 drivers/mtd/ubi/built-in.o
 .text.in_wl_tree.isra.0
                0x0000000024023aa8       0x4c drivers/mtd/ubi/built-in.o
 .text.self_check_in_wl_tree.isra.0
                0x0000000024023af4       0x38 drivers/mtd/ubi/built-in.o
 .text.wl_entry_destroy.isra.0
                0x0000000024023b2c       0x10 drivers/mtd/ubi/built-in.o
 .text.tree_destroy.isra.0
                0x0000000024023b3c       0x36 drivers/mtd/ubi/built-in.o
 *fill*         0x0000000024023b72        0x2 
 .text.ubi_do_worker
                0x0000000024023b74       0x58 drivers/mtd/ubi/built-in.o
                0x0000000024023b74                ubi_do_worker
 .text.schedule_erase
                0x0000000024023bcc       0x60 drivers/mtd/ubi/built-in.o
 .text.erase_worker
                0x0000000024023c2c      0x36c drivers/mtd/ubi/built-in.o
 .text.ubi_wl_put_peb
                0x0000000024023f98      0x15c drivers/mtd/ubi/built-in.o
                0x0000000024023f98                ubi_wl_put_peb
 .text.ubi_wl_scrub_peb
                0x00000000240240f4       0xb8 drivers/mtd/ubi/built-in.o
                0x00000000240240f4                ubi_wl_scrub_peb
 .text.ubi_wl_flush
                0x00000000240241ac       0x8c drivers/mtd/ubi/built-in.o
                0x00000000240241ac                ubi_wl_flush
 .text.ubi_wl_init
                0x0000000024024238      0x2c4 drivers/mtd/ubi/built-in.o
                0x0000000024024238                ubi_wl_init
 .text.ubi_wl_close
                0x00000000240244fc       0xb2 drivers/mtd/ubi/built-in.o
                0x00000000240244fc                ubi_wl_close
 .text.update_fastmap_work_fn
                0x00000000240245ae       0x10 drivers/mtd/ubi/built-in.o
                0x00000000240245ae                update_fastmap_work_fn
 .text.get_peb_for_wl
                0x00000000240245be       0x30 drivers/mtd/ubi/built-in.o
 *fill*         0x00000000240245ee        0x2 
 .text.wear_leveling_worker
                0x00000000240245f0      0x41c drivers/mtd/ubi/built-in.o
 .text.ubi_wl_get_fm_peb
                0x0000000024024a0c       0x54 drivers/mtd/ubi/built-in.o
                0x0000000024024a0c                ubi_wl_get_fm_peb
 .text.ubi_refill_pools
                0x0000000024024a60      0x100 drivers/mtd/ubi/built-in.o
                0x0000000024024a60                ubi_refill_pools
 .text.ubi_wl_get_peb
                0x0000000024024b60       0xdc drivers/mtd/ubi/built-in.o
                0x0000000024024b60                ubi_wl_get_peb
 .text.ubi_ensure_anchor_pebs
                0x0000000024024c3c       0x40 drivers/mtd/ubi/built-in.o
                0x0000000024024c3c                ubi_ensure_anchor_pebs
 .text.ubi_wl_put_fm_peb
                0x0000000024024c7c       0x9c drivers/mtd/ubi/built-in.o
                0x0000000024024c7c                ubi_wl_put_fm_peb
 .text.ubi_is_erase_work
                0x0000000024024d18       0x10 drivers/mtd/ubi/built-in.o
                0x0000000024024d18                ubi_is_erase_work
 .text.crc32_le
                0x0000000024024d28       0x94 drivers/mtd/ubi/built-in.o
                0x0000000024024d28                crc32_le
 .text.erase_block
                0x0000000024024dbc       0xd4 drivers/mtd/ubi/built-in.o
 .text.return_fm_pebs
                0x0000000024024e90       0x36 drivers/mtd/ubi/built-in.o
 .text.add_aeb.isra.0
                0x0000000024024ec6       0x6e drivers/mtd/ubi/built-in.o
 .text.scan_pool
                0x0000000024024f34      0x484 drivers/mtd/ubi/built-in.o
 .text.ubi_calc_fm_size
                0x00000000240253b8       0x1e drivers/mtd/ubi/built-in.o
                0x00000000240253b8                ubi_calc_fm_size
 *fill*         0x00000000240253d6        0x2 
 .text.ubi_scan_fastmap
                0x00000000240253d8      0xddc drivers/mtd/ubi/built-in.o
                0x00000000240253d8                ubi_scan_fastmap
 .text.ubi_update_fastmap
                0x00000000240261b4      0xdf4 drivers/mtd/ubi/built-in.o
                0x00000000240261b4                ubi_update_fastmap
 .text.ubi_calc_data_len
                0x0000000024026fa8       0x4c drivers/mtd/ubi/built-in.o
                0x0000000024026fa8                ubi_calc_data_len
 .text.ubi_check_volume
                0x0000000024026ff4       0x7a drivers/mtd/ubi/built-in.o
                0x0000000024026ff4                ubi_check_volume
 *fill*         0x000000002402706e        0x2 
 .text.ubi_update_reserved
                0x0000000024027070       0x3c drivers/mtd/ubi/built-in.o
                0x0000000024027070                ubi_update_reserved
 .text.ubi_calculate_reserved
                0x00000000240270ac       0x14 drivers/mtd/ubi/built-in.o
                0x00000000240270ac                ubi_calculate_reserved
 .text.ubi_check_pattern
                0x00000000240270c0       0x1a drivers/mtd/ubi/built-in.o
                0x00000000240270c0                ubi_check_pattern
 *fill*         0x00000000240270da        0x2 
 .text.ubi_dump_flash
                0x00000000240270dc       0x94 drivers/mtd/ubi/built-in.o
                0x00000000240270dc                ubi_dump_flash
 .text.ubi_dump_ec_hdr
                0x0000000024027170      0x120 drivers/mtd/ubi/built-in.o
                0x0000000024027170                ubi_dump_ec_hdr
 .text.ubi_dump_vid_hdr
                0x0000000024027290      0x194 drivers/mtd/ubi/built-in.o
                0x0000000024027290                ubi_dump_vid_hdr
 .text.ubi_dump_vol_info
                0x0000000024027424       0xfc drivers/mtd/ubi/built-in.o
                0x0000000024027424                ubi_dump_vol_info
 .text.ubi_dump_vtbl_record
                0x0000000024027520      0x120 drivers/mtd/ubi/built-in.o
                0x0000000024027520                ubi_dump_vtbl_record
 .text.ubi_dump_av
                0x0000000024027640       0x74 drivers/mtd/ubi/built-in.o
                0x0000000024027640                ubi_dump_av
 .text.ubi_dump_aeb
                0x00000000240276b4       0x5c drivers/mtd/ubi/built-in.o
                0x00000000240276b4                ubi_dump_aeb
 .text.ubi_debugfs_init
                0x0000000024027710        0x4 drivers/mtd/ubi/built-in.o
                0x0000000024027710                ubi_debugfs_init
 .text.ubi_debugfs_exit
                0x0000000024027714        0x2 drivers/mtd/ubi/built-in.o
                0x0000000024027714                ubi_debugfs_exit
 .text.ubi_debugfs_init_dev
                0x0000000024027716        0x4 drivers/mtd/ubi/built-in.o
                0x0000000024027716                ubi_debugfs_init_dev
 .text.ubi_debugfs_exit_dev
                0x000000002402771a        0x2 drivers/mtd/ubi/built-in.o
                0x000000002402771a                ubi_debugfs_exit_dev
 .text.ubi_dbg_power_cut
                0x000000002402771c        0x4 drivers/mtd/ubi/built-in.o
                0x000000002402771c                ubi_dbg_power_cut
 .text.eqos_inval_desc_tegra186
                0x0000000024027720        0x2 drivers/net/built-in.o
 .text.eqos_start_resets_stm32
                0x0000000024027722        0x4 drivers/net/built-in.o
 .text.eqos_get_interface_tegra186
                0x0000000024027726        0x4 drivers/net/built-in.o
 .text.eqos_recv
                0x000000002402772a       0x44 drivers/net/built-in.o
                0x000000002402772a                eqos_recv
 .text.eqos_free_pkt
                0x000000002402776e       0x72 drivers/net/built-in.o
                0x000000002402776e                eqos_free_pkt
 .text.eqos_disable_calibration_tegra186
                0x00000000240277e0       0x14 drivers/net/built-in.o
 .text.eqos_stop_clks_tegra186
                0x00000000240277f4       0x32 drivers/net/built-in.o
                0x00000000240277f4                eqos_stop_clks_tegra186
 .text.eqos_stop_clks_stm32
                0x0000000024027826       0x30 drivers/net/built-in.o
                0x0000000024027826                eqos_stop_clks_stm32
 *fill*         0x0000000024027856        0x2 
 .text.eqos_stop
                0x0000000024027858       0x9c drivers/net/built-in.o
                0x0000000024027858                eqos_stop
 .text.eqos_send
                0x00000000240278f4       0xa4 drivers/net/built-in.o
                0x00000000240278f4                eqos_send
 .text.eqos_write_hwaddr
                0x0000000024027998       0x38 drivers/net/built-in.o
 .text.eqos_calibrate_pads_tegra186
                0x00000000240279d0       0x94 drivers/net/built-in.o
 .text.eqos_start
                0x0000000024027a64      0x4b8 drivers/net/built-in.o
 .text.eqos_probe_resources_core
                0x0000000024027f1c       0x64 drivers/net/built-in.o
 .text.eqos_remove
                0x0000000024027f80       0x2a drivers/net/built-in.o
 .text.eqos_get_tick_clk_rate_stm32
                0x0000000024027faa       0x10 drivers/net/built-in.o
 .text.eqos_get_tick_clk_rate_tegra186
                0x0000000024027fba       0x10 drivers/net/built-in.o
 *fill*         0x0000000024027fca        0x2 
 .text.eqos_start_clks_stm32
                0x0000000024027fcc       0x98 drivers/net/built-in.o
 .text.eqos_remove_resources_stm32
                0x0000000024028064       0x2e drivers/net/built-in.o
 .text.eqos_flush_buffer_stm32
                0x0000000024028092       0x10 drivers/net/built-in.o
 .text.eqos_inval_buffer_stm32
                0x00000000240280a2       0x10 drivers/net/built-in.o
 .text.eqos_inval_buffer_tegra186
                0x00000000240280b2       0x10 drivers/net/built-in.o
 *fill*         0x00000000240280c2        0x2 
 .text.eqos_get_interface_stm32
                0x00000000240280c4       0x24 drivers/net/built-in.o
 .text.eqos_set_tx_clk_speed_tegra186
                0x00000000240280e8       0x64 drivers/net/built-in.o
 .text.eqos_start_clks_tegra186
                0x000000002402814c       0xd0 drivers/net/built-in.o
 .text.eqos_stop_resets_tegra186
                0x000000002402821c       0x1c drivers/net/built-in.o
 .text.eqos_start_resets_tegra186
                0x0000000024028238       0x78 drivers/net/built-in.o
 .text.eqos_remove_resources_tegra186
                0x00000000240282b0       0x46 drivers/net/built-in.o
 *fill*         0x00000000240282f6        0x2 
 .text.eqos_probe_resources_tegra186
                0x00000000240282f8      0x140 drivers/net/built-in.o
 .text.eqos_flush_buffer_tegra186
                0x0000000024028438        0x4 drivers/net/built-in.o
 .text.eqos_disable_calibration_stm32
                0x000000002402843c        0x4 drivers/net/built-in.o
 .text.eqos_flush_desc_tegra186
                0x0000000024028440        0x2 drivers/net/built-in.o
 *fill*         0x0000000024028442        0x2 
 .text.eqos_probe
                0x0000000024028444      0x100 drivers/net/built-in.o
 .text.eqos_mdio_wait_idle.isra.0
                0x0000000024028544       0x50 drivers/net/built-in.o
 .text.eqos_mdio_read
                0x0000000024028594       0x74 drivers/net/built-in.o
 .text.eqos_mdio_write
                0x0000000024028608       0x78 drivers/net/built-in.o
 .text.eqos_set_tx_clk_speed_stm32
                0x0000000024028680        0x4 drivers/net/built-in.o
 .text.eqos_stop_resets_stm32
                0x0000000024028684        0x4 drivers/net/built-in.o
 .text.eqos_calibrate_pads_stm32
                0x0000000024028688        0x4 drivers/net/built-in.o
 .text.eqos_flush_desc_stm32
                0x000000002402868c        0x2 drivers/net/built-in.o
 .text.eqos_inval_desc_stm32
                0x000000002402868e        0x2 drivers/net/built-in.o
 .text.eqos_probe_resources_stm32
                0x0000000024028690       0xe0 drivers/net/built-in.o
 .text.genphy_shutdown
                0x0000000024028770        0x4 drivers/net/phy/built-in.o
                0x0000000024028770                genphy_shutdown
 .text.genphy_restart_aneg
                0x0000000024028774       0x36 drivers/net/phy/built-in.o
                0x0000000024028774                genphy_restart_aneg
 .text.genphy_config_aneg
                0x00000000240287aa      0x152 drivers/net/phy/built-in.o
                0x00000000240287aa                genphy_config_aneg
 .text.genphy_config
                0x00000000240288fc       0x90 drivers/net/phy/built-in.o
                0x00000000240288fc                genphy_config
 .text.genphy_update_link
                0x000000002402898c       0xe0 drivers/net/phy/built-in.o
                0x000000002402898c                genphy_update_link
 .text.genphy_parse_link
                0x0000000024028a6c      0x100 drivers/net/phy/built-in.o
                0x0000000024028a6c                genphy_parse_link
 .text.genphy_startup
                0x0000000024028b6c       0x16 drivers/net/phy/built-in.o
                0x0000000024028b6c                genphy_startup
 .text.phy_init
                0x0000000024028b82        0xa drivers/net/phy/built-in.o
                0x0000000024028b82                phy_init
 .text.phy_register
                0x0000000024028b8c       0x18 drivers/net/phy/built-in.o
                0x0000000024028b8c                phy_register
 .text.get_phy_id
                0x0000000024028ba4       0x3e drivers/net/phy/built-in.o
                0x0000000024028ba4                get_phy_id
 *fill*         0x0000000024028be2        0x2 
 .text.get_phy_device_by_mask
                0x0000000024028be4      0x1d0 drivers/net/phy/built-in.o
 .text.phy_reset
                0x0000000024028db4       0x74 drivers/net/phy/built-in.o
                0x0000000024028db4                phy_reset
 .text.phy_find_by_mask
                0x0000000024028e28       0x24 drivers/net/phy/built-in.o
                0x0000000024028e28                phy_find_by_mask
 .text.phy_connect_dev
                0x0000000024028e4c       0x30 drivers/net/phy/built-in.o
                0x0000000024028e4c                phy_connect_dev
 .text.phy_connect
                0x0000000024028e7c       0x3c drivers/net/phy/built-in.o
                0x0000000024028e7c                phy_connect
 .text.phy_startup
                0x0000000024028eb8        0xc drivers/net/phy/built-in.o
                0x0000000024028eb8                phy_startup
 .text.board_phy_config
                0x0000000024028ec4        0xc drivers/net/phy/built-in.o
                0x0000000024028ec4                board_phy_config
 .text.phy_config
                0x0000000024028ed0        0x4 drivers/net/phy/built-in.o
                0x0000000024028ed0                phy_config
 .text.phy_shutdown
                0x0000000024028ed4        0xe drivers/net/phy/built-in.o
                0x0000000024028ed4                phy_shutdown
 *fill*         0x0000000024028ee2        0x2 
 .text.phy_get_interface_by_name
                0x0000000024028ee4       0x28 drivers/net/phy/built-in.o
                0x0000000024028ee4                phy_get_interface_by_name
 .text.smsc_startup
                0x0000000024028f0c       0x36 drivers/net/phy/built-in.o
 *fill*         0x0000000024028f42        0x2 
 .text.phy_smsc_init
                0x0000000024028f44       0x44 drivers/net/phy/built-in.o
                0x0000000024028f44                phy_smsc_init
 .text._serial_putc
                0x0000000024028f88       0x22 drivers/serial/built-in.o
 .text.__serial_getc
                0x0000000024028faa       0x1a drivers/serial/built-in.o
 .text.__serial_tstc
                0x0000000024028fc4       0x10 drivers/serial/built-in.o
 .text.serial_stub_putc
                0x0000000024028fd4        0x6 drivers/serial/built-in.o
 .text.serial_stub_puts
                0x0000000024028fda       0x16 drivers/serial/built-in.o
 .text.serial_stub_getc
                0x0000000024028ff0        0x6 drivers/serial/built-in.o
 .text.serial_stub_tstc
                0x0000000024028ff6        0x6 drivers/serial/built-in.o
 .text.serial_pre_remove
                0x0000000024028ffc        0x4 drivers/serial/built-in.o
 .text.serial_post_probe
                0x0000000024029000       0x74 drivers/serial/built-in.o
 .text.serial_init
                0x0000000024029074       0xdc drivers/serial/built-in.o
                0x0000000024029074                serial_init
 .text.serial_initialize
                0x0000000024029150        0x4 drivers/serial/built-in.o
                0x0000000024029150                serial_initialize
 .text.serial_putc
                0x0000000024029154       0x12 drivers/serial/built-in.o
                0x0000000024029154                serial_putc
 .text.serial_puts
                0x0000000024029166       0x1e drivers/serial/built-in.o
                0x0000000024029166                serial_puts
 .text.serial_getc
                0x0000000024029184       0x10 drivers/serial/built-in.o
                0x0000000024029184                serial_getc
 .text.serial_tstc
                0x0000000024029194       0x10 drivers/serial/built-in.o
                0x0000000024029194                serial_tstc
 .text.serial_setbrg
                0x00000000240291a4       0x1e drivers/serial/built-in.o
                0x00000000240291a4                serial_setbrg
 *fill*         0x00000000240291c2        0x2 
 .text.on_baudrate
                0x00000000240291c4       0x9c drivers/serial/built-in.o
 .text.serial_stdio_init
                0x0000000024029260        0x2 drivers/serial/built-in.o
                0x0000000024029260                serial_stdio_init
 *fill*         0x0000000024029262        0x2 
 .text.stm32_serial_setconfig
                0x0000000024029264       0x78 drivers/serial/built-in.o
 .text.stm32_serial_pending
                0x00000000240292dc       0x32 drivers/serial/built-in.o
 .text.stm32_serial_getc
                0x000000002402930e       0x52 drivers/serial/built-in.o
 .text.stm32_serial_ofdata_to_platdata
                0x0000000024029360       0x1e drivers/serial/built-in.o
 *fill*         0x000000002402937e        0x2 
 .text.stm32_serial_probe
                0x0000000024029380       0x9c drivers/serial/built-in.o
 .text.stm32_serial_putc
                0x000000002402941c       0x38 drivers/serial/built-in.o
 .text.stm32_serial_setbrg
                0x0000000024029454       0x5a drivers/serial/built-in.o
 *fill*         0x00000000240294ae        0x2 
 .text.spi_set_speed_mode
                0x00000000240294b0       0x4c drivers/spi/built-in.o
 .text.spi_child_pre_probe
                0x00000000240294fc       0x22 drivers/spi/built-in.o
 *fill*         0x000000002402951e        0x2 
 .text.spi_post_probe
                0x0000000024029520       0x20 drivers/spi/built-in.o
 .text.dm_spi_claim_bus
                0x0000000024029540       0x64 drivers/spi/built-in.o
                0x0000000024029540                dm_spi_claim_bus
 .text.dm_spi_release_bus
                0x00000000240295a4        0xe drivers/spi/built-in.o
                0x00000000240295a4                dm_spi_release_bus
 .text.dm_spi_xfer
                0x00000000240295b2       0x22 drivers/spi/built-in.o
                0x00000000240295b2                dm_spi_xfer
 .text.spi_claim_bus
                0x00000000240295d4        0x6 drivers/spi/built-in.o
                0x00000000240295d4                spi_claim_bus
 .text.spi_release_bus
                0x00000000240295da        0x6 drivers/spi/built-in.o
                0x00000000240295da                spi_release_bus
 .text.spi_xfer
                0x00000000240295e0        0x6 drivers/spi/built-in.o
                0x00000000240295e0                spi_xfer
 .text.spi_find_chip_select
                0x00000000240295e6       0x32 drivers/spi/built-in.o
                0x00000000240295e6                spi_find_chip_select
 .text.spi_find_bus_and_cs
                0x0000000024029618       0x2e drivers/spi/built-in.o
                0x0000000024029618                spi_find_bus_and_cs
 *fill*         0x0000000024029646        0x2 
 .text.spi_get_bus_and_cs
                0x0000000024029648       0xfc drivers/spi/built-in.o
                0x0000000024029648                spi_get_bus_and_cs
 .text.spi_slave_ofdata_to_platdata
                0x0000000024029744       0xf8 drivers/spi/built-in.o
                0x0000000024029744                spi_slave_ofdata_to_platdata
 .text.spi_child_post_bind
                0x000000002402983c       0x1e drivers/spi/built-in.o
 *fill*         0x000000002402985a        0x2 
 .text.spi_check_buswidth_req.isra.0
                0x000000002402985c       0x38 drivers/spi/built-in.o
 .text.spi_mem_default_supports_op
                0x0000000024029894       0x54 drivers/spi/built-in.o
                0x0000000024029894                spi_mem_default_supports_op
 .text.spi_mem_supports_op
                0x00000000240298e8       0x26 drivers/spi/built-in.o
                0x00000000240298e8                spi_mem_supports_op
 *fill*         0x000000002402990e        0x2 
 .text.spi_mem_exec_op
                0x0000000024029910      0x12c drivers/spi/built-in.o
                0x0000000024029910                spi_mem_exec_op
 .text.spi_mem_adjust_op_size
                0x0000000024029a3c       0x64 drivers/spi/built-in.o
                0x0000000024029a3c                spi_mem_adjust_op_size
 .text._stm32_qspi_wait_for_not_busy
                0x0000000024029aa0        0xe drivers/spi/built-in.o
 .text._stm32_qspi_gen_ccr
                0x0000000024029aae       0x6e drivers/spi/built-in.o
 .text.stm32_qspi_remove
                0x0000000024029b1c        0x4 drivers/spi/built-in.o
 .text.stm32_qspi_set_mode
                0x0000000024029b20       0x76 drivers/spi/built-in.o
 *fill*         0x0000000024029b96        0x2 
 .text.stm32_qspi_set_speed
                0x0000000024029b98       0x70 drivers/spi/built-in.o
 .text.stm32_qspi_ofdata_to_platdata
                0x0000000024029c08       0x68 drivers/spi/built-in.o
 .text.stm32_qspi_probe
                0x0000000024029c70       0x98 drivers/spi/built-in.o
 .text._stm32_qspi_gen_ccr_w25n01.isra.0
                0x0000000024029d08       0x88 drivers/spi/built-in.o
 .text.stm32_qspi_claim_bus
                0x0000000024029d90       0x94 drivers/spi/built-in.o
 .text.stm32_qspi_release_bus
                0x0000000024029e24       0x16 drivers/spi/built-in.o
 *fill*         0x0000000024029e3a        0x2 
 .text.stm32_qspi_xfer
                0x0000000024029e3c      0x278 drivers/spi/built-in.o
 .text.env_get_yesno
                0x000000002402a0b4       0x2a env/built-in.o
                0x000000002402a0b4                env_get_yesno
 .text.env_get_default
                0x000000002402a0de       0x2a env/built-in.o
                0x000000002402a0de                env_get_default
 .text.set_default_env
                0x000000002402a108       0x6c env/built-in.o
                0x000000002402a108                set_default_env
 .text.set_default_vars
                0x000000002402a174       0x2c env/built-in.o
                0x000000002402a174                set_default_vars
 .text.env_import
                0x000000002402a1a0       0x8c env/built-in.o
                0x000000002402a1a0                env_import
 .text.env_import_redund
                0x000000002402a22c       0xe4 env/built-in.o
                0x000000002402a22c                env_import_redund
 .text.env_export
                0x000000002402a310       0x64 env/built-in.o
                0x000000002402a310                env_export
 .text.env_relocate
                0x000000002402a374       0x28 env/built-in.o
                0x000000002402a374                env_relocate
 .text.env_complete
                0x000000002402a39c      0x110 env/built-in.o
                0x000000002402a39c                env_complete
 .text.env_get_location
                0x000000002402a4ac        0xe env/built-in.o
                0x000000002402a4ac                env_get_location
 *fill*         0x000000002402a4ba        0x2 
 .text.env_driver_lookup
                0x000000002402a4bc       0x28 env/built-in.o
 .text.env_get_char_spec
                0x000000002402a4e4        0x8 env/built-in.o
                0x000000002402a4e4                env_get_char_spec
 .text.env_get_char
                0x000000002402a4ec       0x14 env/built-in.o
                0x000000002402a4ec                env_get_char
 .text.env_load
                0x000000002402a500       0x6c env/built-in.o
                0x000000002402a500                env_load
 .text.env_save
                0x000000002402a56c       0x58 env/built-in.o
                0x000000002402a56c                env_save
 .text.env_init
                0x000000002402a5c4       0x58 env/built-in.o
                0x000000002402a5c4                env_init
 .text.regex_callback
                0x000000002402a61c       0xd8 env/built-in.o
 .text.env_attr_walk
                0x000000002402a6f4       0xb2 env/built-in.o
                0x000000002402a6f4                env_attr_walk
 *fill*         0x000000002402a7a6        0x2 
 .text.env_attr_lookup
                0x000000002402a7a8       0x4c env/built-in.o
                0x000000002402a7a8                env_attr_lookup
 .text.clear_callback
                0x000000002402a7f4        0x8 env/built-in.o
 .text.find_env_callback
                0x000000002402a7fc       0x38 env/built-in.o
 .text.on_callbacks
                0x000000002402a834       0x38 env/built-in.o
 .text.set_callback
                0x000000002402a86c       0x54 env/built-in.o
 .text.env_callback_init
                0x000000002402a8c0       0x78 env/built-in.o
                0x000000002402a8c0                env_callback_init
 .text.skip_num
                0x000000002402a938       0x3c env/built-in.o
 .text.clear_flags
                0x000000002402a974        0x8 env/built-in.o
 .text.on_flags
                0x000000002402a97c       0x38 env/built-in.o
 .text.env_flags_parse_vartype
                0x000000002402a9b4       0x30 env/built-in.o
                0x000000002402a9b4                env_flags_parse_vartype
 .text.env_flags_parse_varaccess
                0x000000002402a9e4       0x30 env/built-in.o
                0x000000002402a9e4                env_flags_parse_varaccess
 .text.env_parse_flags_to_bin
                0x000000002402aa14       0x20 env/built-in.o
 .text.set_flags
                0x000000002402aa34       0x50 env/built-in.o
 .text.eth_validate_ethaddr_str
                0x000000002402aa84       0x52 env/built-in.o
                0x000000002402aa84                eth_validate_ethaddr_str
 *fill*         0x000000002402aad6        0x2 
 .text.env_flags_init
                0x000000002402aad8       0x7c env/built-in.o
                0x000000002402aad8                env_flags_init
 .text.env_flags_validate
                0x000000002402ab54      0x188 env/built-in.o
                0x000000002402ab54                env_flags_validate
 .text.env_ubi_save
                0x000000002402acdc       0xcc env/built-in.o
 .text.env_ubi_load
                0x000000002402ada8       0xb4 env/built-in.o
 .text.fs_probe_unsupported
                0x000000002402ae5c       0x14 fs/built-in.o
 .text.fs_ls_unsupported
                0x000000002402ae70        0x6 fs/built-in.o
 .text.fs_exists_unsupported
                0x000000002402ae76        0x4 fs/built-in.o
 .text.fs_size_unsupported
                0x000000002402ae7a        0x6 fs/built-in.o
 .text.fs_read_unsupported
                0x000000002402ae80        0x6 fs/built-in.o
 .text.fs_close_unsupported
                0x000000002402ae86        0x2 fs/built-in.o
 .text.fs_opendir_unsupported
                0x000000002402ae88        0x6 fs/built-in.o
 *fill*         0x000000002402ae8e        0x2 
 .text.fs_get_info
                0x000000002402ae90       0x20 fs/built-in.o
 .text.fs_close
                0x000000002402aeb0       0x18 fs/built-in.o
 .text.fs_write_unsupported
                0x000000002402aec8        0x6 fs/built-in.o
 .text.fs_mkdir_unsupported
                0x000000002402aece        0x6 fs/built-in.o
 .text.fs_uuid_unsupported
                0x000000002402aed4        0x6 fs/built-in.o
 .text.fs_unlink_unsupported
                0x000000002402aeda        0x6 fs/built-in.o
 .text.fs_set_blk_dev
                0x000000002402aee0       0x70 fs/built-in.o
                0x000000002402aee0                fs_set_blk_dev
 .text.fs_set_blk_dev_with_part
                0x000000002402af50       0x68 fs/built-in.o
                0x000000002402af50                fs_set_blk_dev_with_part
 .text.fs_ls    0x000000002402afb8       0x24 fs/built-in.o
                0x000000002402afb8                fs_ls
 .text.fs_exists
                0x000000002402afdc       0x20 fs/built-in.o
                0x000000002402afdc                fs_exists
 .text.fs_size  0x000000002402affc       0x24 fs/built-in.o
                0x000000002402affc                fs_size
 .text.fs_opendir
                0x000000002402b020       0x50 fs/built-in.o
                0x000000002402b020                fs_opendir
 .text.fs_readdir
                0x000000002402b070       0x3c fs/built-in.o
                0x000000002402b070                fs_readdir
 .text.fs_closedir
                0x000000002402b0ac       0x2c fs/built-in.o
                0x000000002402b0ac                fs_closedir
 .text.fs_ls_generic
                0x000000002402b0d8       0x78 fs/built-in.o
 .text.do_size  0x000000002402b150       0x40 fs/built-in.o
                0x000000002402b150                do_size
 .text.do_load  0x000000002402b190      0x1fc fs/built-in.o
                0x000000002402b190                do_load
 .text.do_ls    0x000000002402b38c       0x40 fs/built-in.o
                0x000000002402b38c                do_ls
 .text.file_exists
                0x000000002402b3cc       0x1a fs/built-in.o
                0x000000002402b3cc                file_exists
 *fill*         0x000000002402b3e6        0x2 
 .text.downcase
                0x000000002402b3e8       0x24 fs/built-in.o
 .text.disk_read
                0x000000002402b40c       0x30 fs/built-in.o
 .text.get_fatent
                0x000000002402b43c       0xd4 fs/built-in.o
 .text.next_dent
                0x000000002402b510       0xb4 fs/built-in.o
 .text.get_cluster
                0x000000002402b5c4       0xe6 fs/built-in.o
 *fill*         0x000000002402b6aa        0x2 
 .text.read_bootsectandvi
                0x000000002402b6ac       0xc0 fs/built-in.o
 .text.fat_itr_root
                0x000000002402b76c      0x128 fs/built-in.o
 .text.fat_itr_next
                0x000000002402b894      0x1ae fs/built-in.o
 *fill*         0x000000002402ba42        0x2 
 .text.fat_itr_resolve
                0x000000002402ba44      0x118 fs/built-in.o
 .text.fat_set_blk_dev
                0x000000002402bb5c       0x8c fs/built-in.o
                0x000000002402bb5c                fat_set_blk_dev
 .text.file_fat_detectfs
                0x000000002402bbe8       0xd4 fs/built-in.o
                0x000000002402bbe8                file_fat_detectfs
 .text.fat_exists
                0x000000002402bcbc       0x44 fs/built-in.o
                0x000000002402bcbc                fat_exists
 .text.fat_size
                0x000000002402bd00       0x78 fs/built-in.o
                0x000000002402bd00                fat_size
 .text.file_fat_read_at
                0x000000002402bd78      0x2f0 fs/built-in.o
                0x000000002402bd78                file_fat_read_at
 .text.fat_read_file
                0x000000002402c068       0x30 fs/built-in.o
                0x000000002402c068                fat_read_file
 .text.fat_opendir
                0x000000002402c098       0x60 fs/built-in.o
                0x000000002402c098                fat_opendir
 .text.fat_readdir
                0x000000002402c0f8       0x54 fs/built-in.o
                0x000000002402c0f8                fat_readdir
 .text.fat_closedir
                0x000000002402c14c       0x16 fs/built-in.o
                0x000000002402c14c                fat_closedir
 .text.fat_close
                0x000000002402c162        0x2 fs/built-in.o
                0x000000002402c162                fat_close
 .text.gzip_decompress
                0x000000002402c164       0x1a fs/built-in.o
 *fill*         0x000000002402c17e        0x2 
 .text.compr_init
                0x000000002402c180       0x70 fs/built-in.o
 .text.ubifs_findfile
                0x000000002402c1f0      0x2b8 fs/built-in.o
 .text.kmemdup  0x000000002402c4a8       0x1e fs/built-in.o
                0x000000002402c4a8                kmemdup
 *fill*         0x000000002402c4c6        0x2 
 .text.ubifs_decompress
                0x000000002402c4c8       0xec fs/built-in.o
                0x000000002402c4c8                ubifs_decompress
 .text.read_block
                0x000000002402c5b4      0x150 fs/built-in.o
 .text.ubifs_compress
                0x000000002402c704       0x16 fs/built-in.o
                0x000000002402c704                ubifs_compress
 *fill*         0x000000002402c71a        0x2 
 .text.ubifs_compressors_init
                0x000000002402c71c       0x2c fs/built-in.o
                0x000000002402c71c                ubifs_compressors_init
 .text.ubifs_set_blk_dev
                0x000000002402c748       0x18 fs/built-in.o
                0x000000002402c748                ubifs_set_blk_dev
 .text.ubifs_ls
                0x000000002402c760      0x3bc fs/built-in.o
                0x000000002402c760                ubifs_ls
 .text.ubifs_exists
                0x000000002402cb1c       0x40 fs/built-in.o
                0x000000002402cb1c                ubifs_exists
 .text.ubifs_size
                0x000000002402cb5c       0x60 fs/built-in.o
                0x000000002402cb5c                ubifs_size
 .text.ubifs_read
                0x000000002402cbbc      0x240 fs/built-in.o
                0x000000002402cbbc                ubifs_read
 .text.ubifs_set_inode_flags
                0x000000002402cdfc       0x3a fs/built-in.o
                0x000000002402cdfc                ubifs_set_inode_flags
 *fill*         0x000000002402ce36        0x2 
 .text.ubifs_new_inode
                0x000000002402ce38      0x164 fs/built-in.o
                0x000000002402ce38                ubifs_new_inode
 .text.ubifs_create.constprop.0
                0x000000002402cf9c       0xfc fs/built-in.o
 .text.ubifs_rmdir
                0x000000002402d098      0x1d8 fs/built-in.o
                0x000000002402d098                ubifs_rmdir
 .text.ubifs_mkdir
                0x000000002402d270       0x90 fs/built-in.o
                0x000000002402d270                ubifs_mkdir
 .text.ubifs_write
                0x000000002402d300      0x27c fs/built-in.o
                0x000000002402d300                ubifs_write
 .text.ubifs_unlink
                0x000000002402d57c      0x19c fs/built-in.o
                0x000000002402d57c                ubifs_unlink
 .text.ubifs_close
                0x000000002402d718        0x2 fs/built-in.o
                0x000000002402d718                ubifs_close
 *fill*         0x000000002402d71a        0x2 
 .text.ubifs_load
                0x000000002402d71c       0x2c fs/built-in.o
                0x000000002402d71c                ubifs_load
 .text.uboot_ubifs_umount
                0x000000002402d748       0x30 fs/built-in.o
                0x000000002402d748                uboot_ubifs_umount
 .text.ubifs_ro_mode
                0x000000002402d778       0x2a fs/built-in.o
                0x000000002402d778                ubifs_ro_mode
 *fill*         0x000000002402d7a2        0x2 
 .text.next_sqnum
                0x000000002402d7a4       0x50 fs/built-in.o
 .text.ubifs_leb_read
                0x000000002402d7f4       0x58 fs/built-in.o
                0x000000002402d7f4                ubifs_leb_read
 .text.ubifs_leb_write
                0x000000002402d84c       0x88 fs/built-in.o
                0x000000002402d84c                ubifs_leb_write
 .text.ubifs_leb_change
                0x000000002402d8d4       0x78 fs/built-in.o
                0x000000002402d8d4                ubifs_leb_change
 .text.ubifs_leb_unmap
                0x000000002402d94c       0x6c fs/built-in.o
                0x000000002402d94c                ubifs_leb_unmap
 .text.ubifs_leb_map
                0x000000002402d9b8       0x6c fs/built-in.o
                0x000000002402d9b8                ubifs_leb_map
 .text.ubifs_is_mapped
                0x000000002402da24       0x38 fs/built-in.o
                0x000000002402da24                ubifs_is_mapped
 .text.ubifs_check_node
                0x000000002402da5c      0x1a0 fs/built-in.o
                0x000000002402da5c                ubifs_check_node
 .text.ubifs_pad
                0x000000002402dbfc       0xac fs/built-in.o
                0x000000002402dbfc                ubifs_pad
 .text.ubifs_prepare_node
                0x000000002402dca8       0xd0 fs/built-in.o
                0x000000002402dca8                ubifs_prepare_node
 .text.ubifs_prep_grp_node
                0x000000002402dd78       0xac fs/built-in.o
                0x000000002402dd78                ubifs_prep_grp_node
 .text.ubifs_wbuf_sync_nolock
                0x000000002402de24      0x174 fs/built-in.o
                0x000000002402de24                ubifs_wbuf_sync_nolock
 .text.ubifs_wbuf_seek_nolock
                0x000000002402df98       0xb8 fs/built-in.o
                0x000000002402df98                ubifs_wbuf_seek_nolock
 .text.ubifs_wbuf_write_nolock
                0x000000002402e050      0x2e8 fs/built-in.o
                0x000000002402e050                ubifs_wbuf_write_nolock
 .text.ubifs_write_node
                0x000000002402e338       0xcc fs/built-in.o
                0x000000002402e338                ubifs_write_node
 .text.ubifs_read_node
                0x000000002402e404      0x198 fs/built-in.o
                0x000000002402e404                ubifs_read_node
 .text.ubifs_read_node_wbuf
                0x000000002402e59c      0x190 fs/built-in.o
                0x000000002402e59c                ubifs_read_node_wbuf
 .text.ubifs_wbuf_init
                0x000000002402e72c       0x66 fs/built-in.o
                0x000000002402e72c                ubifs_wbuf_init
 .text.ubifs_wbuf_add_ino_nolock
                0x000000002402e792       0x18 fs/built-in.o
                0x000000002402e792                ubifs_wbuf_add_ino_nolock
 .text.ubifs_dirty_inode
                0x000000002402e7aa       0x12 fs/built-in.o
 .text.sb_test  0x000000002402e7bc       0x14 fs/built-in.o
 .text.sb_set   0x000000002402e7d0        0x8 fs/built-in.o
 .text.kill_ubifs_super
                0x000000002402e7d8        0x8 fs/built-in.o
 .text.free_orphans
                0x000000002402e7e0       0x78 fs/built-in.o
 .text.destroy_journal
                0x000000002402e858       0x82 fs/built-in.o
 *fill*         0x000000002402e8da        0x2 
 .text.ubifs_alloc_inode
                0x000000002402e8dc       0x24 fs/built-in.o
 .text.bud_wbuf_callback
                0x000000002402e900       0x10 fs/built-in.o
 .text.free_wbufs.part.0
                0x000000002402e910       0x32 fs/built-in.o
 *fill*         0x000000002402e942        0x2 
 .text.take_gc_lnum
                0x000000002402e944       0x44 fs/built-in.o
 .text.iget_locked
                0x000000002402e988       0x2e fs/built-in.o
                0x000000002402e988                iget_locked
 .text.ubifs_iput
                0x000000002402e9b6       0x1a fs/built-in.o
                0x000000002402e9b6                ubifs_iput
 .text.iput     0x000000002402e9d0       0x38 fs/built-in.o
                0x000000002402e9d0                iput
 .text.clear_nlink
                0x000000002402ea08       0x16 fs/built-in.o
                0x000000002402ea08                clear_nlink
 .text.set_nlink
                0x000000002402ea1e       0x1c fs/built-in.o
                0x000000002402ea1e                set_nlink
 *fill*         0x000000002402ea3a        0x2 
 .text.ubifs_iget
                0x000000002402ea3c      0x440 fs/built-in.o
                0x000000002402ea3c                ubifs_iget
 .text.ubifs_umount
                0x000000002402ee7c      0x1e4 fs/built-in.o
                0x000000002402ee7c                ubifs_umount
 .text.sget     0x000000002402f060       0x68 fs/built-in.o
                0x000000002402f060                sget
 .text.ubifs_mount
                0x000000002402f0c8      0xd40 fs/built-in.o
 .text.ubifs_init
                0x000000002402fe08       0x2c fs/built-in.o
                0x000000002402fe08                ubifs_init
 .text.uboot_ubifs_mount
                0x000000002402fe34       0x44 fs/built-in.o
                0x000000002402fe34                uboot_ubifs_mount
 .text.key_r5_hash
                0x000000002402fe78       0x26 fs/built-in.o
 .text.key_test_hash
                0x000000002402fe9e       0x28 fs/built-in.o
 *fill*         0x000000002402fec6        0x2 
 .text.fixup_leb
                0x000000002402fec8       0x8c fs/built-in.o
 .text.ubifs_read_sb_node
                0x000000002402ff54       0x46 fs/built-in.o
                0x000000002402ff54                ubifs_read_sb_node
 .text.ubifs_write_sb_node
                0x000000002402ff9a       0x2a fs/built-in.o
                0x000000002402ff9a                ubifs_write_sb_node
 .text.ubifs_read_superblock
                0x000000002402ffc4      0x670 fs/built-in.o
                0x000000002402ffc4                ubifs_read_superblock
 .text.ubifs_fixup_free_space
                0x0000000024030634      0x18c fs/built-in.o
                0x0000000024030634                ubifs_fixup_free_space
 .text.ubifs_read_master
                0x00000000240307c0      0x9f8 fs/built-in.o
                0x00000000240307c0                ubifs_read_master
 .text.ubifs_write_master
                0x00000000240311b8       0xb0 fs/built-in.o
                0x00000000240311b8                ubifs_write_master
 .text.do_calc_lpt_geom
                0x0000000024031268      0x368 fs/built-in.o
 .text.calc_nnode_num_from_parent
                0x00000000240315d0       0x20 fs/built-in.o
 .text.validate_nnode
                0x00000000240315f0       0x74 fs/built-in.o
 .text.pack_bits
                0x0000000024031664       0xdc fs/built-in.o
 .text.update_cats
                0x0000000024031740       0x26 fs/built-in.o
 .text.calc_pnode_num_from_parent.isra.0
                0x0000000024031766       0x26 fs/built-in.o
 .text.validate_pnode
                0x000000002403178c       0x6c fs/built-in.o
 .text.ubifs_calc_lpt_geom
                0x00000000240317f8       0x98 fs/built-in.o
                0x00000000240317f8                ubifs_calc_lpt_geom
 .text.ubifs_unpack_bits
                0x0000000024031890      0x13c fs/built-in.o
                0x0000000024031890                ubifs_unpack_bits
 .text.check_lpt_crc
                0x00000000240319cc       0x64 fs/built-in.o
 .text.check_lpt_type.constprop.0
                0x0000000024031a30       0x44 fs/built-in.o
 .text.unpack_pnode
                0x0000000024031a74       0x92 fs/built-in.o
 *fill*         0x0000000024031b06        0x2 
 .text.scan_get_pnode
                0x0000000024031b08      0x144 fs/built-in.o
 .text.ubifs_pack_pnode
                0x0000000024031c4c       0x9a fs/built-in.o
                0x0000000024031c4c                ubifs_pack_pnode
 .text.ubifs_pack_nnode
                0x0000000024031ce6       0x92 fs/built-in.o
                0x0000000024031ce6                ubifs_pack_nnode
 .text.ubifs_pack_ltab
                0x0000000024031d78       0x7a fs/built-in.o
                0x0000000024031d78                ubifs_pack_ltab
 .text.ubifs_pack_lsave
                0x0000000024031df2       0x68 fs/built-in.o
                0x0000000024031df2                ubifs_pack_lsave
 *fill*         0x0000000024031e5a        0x2 
 .text.ubifs_add_lpt_dirt
                0x0000000024031e5c       0x48 fs/built-in.o
                0x0000000024031e5c                ubifs_add_lpt_dirt
 .text.ubifs_add_nnode_dirt
                0x0000000024031ea4       0x44 fs/built-in.o
                0x0000000024031ea4                ubifs_add_nnode_dirt
 .text.dirty_cow_nnode
                0x0000000024031ee8       0xb4 fs/built-in.o
 .text.ubifs_unpack_nnode
                0x0000000024031f9c       0x7a fs/built-in.o
                0x0000000024031f9c                ubifs_unpack_nnode
 .text.scan_get_nnode
                0x0000000024032016       0xb2 fs/built-in.o
 .text.ubifs_read_nnode
                0x00000000240320c8      0x10c fs/built-in.o
                0x00000000240320c8                ubifs_read_nnode
 .text.ubifs_get_nnode
                0x00000000240321d4       0x1a fs/built-in.o
                0x00000000240321d4                ubifs_get_nnode
 *fill*         0x00000000240321ee        0x2 
 .text.ubifs_get_pnode
                0x00000000240321f0      0x184 fs/built-in.o
                0x00000000240321f0                ubifs_get_pnode
 .text.ubifs_lpt_lookup
                0x0000000024032374       0x68 fs/built-in.o
                0x0000000024032374                ubifs_lpt_lookup
 .text.ubifs_lpt_lookup_dirty
                0x00000000240323dc      0x190 fs/built-in.o
                0x00000000240323dc                ubifs_lpt_lookup_dirty
 .text.ubifs_lpt_init
                0x000000002403256c      0x2ea fs/built-in.o
                0x000000002403256c                ubifs_lpt_init
 *fill*         0x0000000024032856        0x2 
 .text.ubifs_lpt_scan_nolock
                0x0000000024032858      0x250 fs/built-in.o
                0x0000000024032858                ubifs_lpt_scan_nolock
 .text.alloc_lpt_leb
                0x0000000024032aa8       0x8c fs/built-in.o
 .text.realloc_lpt_leb
                0x0000000024032b34       0x60 fs/built-in.o
 .text.need_write_all
                0x0000000024032b94       0x6e fs/built-in.o
 .text.lpt_tgc_start
                0x0000000024032c02       0x5a fs/built-in.o
 .text.first_dirty_cnode
                0x0000000024032c5c       0x3c fs/built-in.o
 .text.upd_ltab
                0x0000000024032c98       0x54 fs/built-in.o
 .text.is_a_node
                0x0000000024032cec       0x82 fs/built-in.o
 .text.pnode_lookup
                0x0000000024032d6e       0x58 fs/built-in.o
 .text.free_obsolete_cnodes
                0x0000000024032dc6       0x2e fs/built-in.o
 .text.do_make_pnode_dirty
                0x0000000024032df4       0x56 fs/built-in.o
 *fill*         0x0000000024032e4a        0x2 
 .text.lpt_gc   0x0000000024032e4c      0x288 fs/built-in.o
 .text.ubifs_lpt_post_commit
                0x00000000240330d4       0x60 fs/built-in.o
                0x00000000240330d4                ubifs_lpt_post_commit
 .text.ubifs_lpt_free
                0x0000000024033134      0x10c fs/built-in.o
                0x0000000024033134                ubifs_lpt_free
 .text.ubifs_dump_lpt_lebs
                0x0000000024033240      0x230 fs/built-in.o
                0x0000000024033240                ubifs_dump_lpt_lebs
 .text.ubifs_lpt_start_commit
                0x0000000024033470      0x5bc fs/built-in.o
                0x0000000024033470                ubifs_lpt_start_commit
 .text.ubifs_lpt_end_commit
                0x0000000024033a2c      0x388 fs/built-in.o
                0x0000000024033a2c                ubifs_lpt_end_commit
 .text.ubifs_scan_a_node
                0x0000000024033db4      0x120 fs/built-in.o
                0x0000000024033db4                ubifs_scan_a_node
 .text.ubifs_start_scan
                0x0000000024033ed4       0x90 fs/built-in.o
                0x0000000024033ed4                ubifs_start_scan
 .text.ubifs_end_scan
                0x0000000024033f64       0x38 fs/built-in.o
                0x0000000024033f64                ubifs_end_scan
 .text.ubifs_add_snod
                0x0000000024033f9c       0x98 fs/built-in.o
                0x0000000024033f9c                ubifs_add_snod
 .text.ubifs_scanned_corruption
                0x0000000024034034       0x80 fs/built-in.o
                0x0000000024034034                ubifs_scanned_corruption
 .text.ubifs_scan_destroy
                0x00000000240340b4       0x2c fs/built-in.o
                0x00000000240340b4                ubifs_scan_destroy
 .text.ubifs_scan
                0x00000000240340e0      0x1d8 fs/built-in.o
                0x00000000240340e0                ubifs_scan
 .text.get_heap_comp_val
                0x00000000240342b8       0x18 fs/built-in.o
 .text.adjust_lpt_heap.constprop.0
                0x00000000240342d0       0xee fs/built-in.o
 *fill*         0x00000000240343be        0x2 
 .text.ubifs_remove_from_cat
                0x00000000240343c0      0x114 fs/built-in.o
 .text.move_up_lpt_heap.constprop.0
                0x00000000240344d4       0x4e fs/built-in.o
 *fill*         0x0000000024034522        0x2 
 .text.ubifs_add_to_cat
                0x0000000024034524      0x16c fs/built-in.o
                0x0000000024034524                ubifs_add_to_cat
 .text.ubifs_replace_cat
                0x0000000024034690       0x54 fs/built-in.o
                0x0000000024034690                ubifs_replace_cat
 .text.ubifs_categorize_lprops
                0x00000000240346e4       0x70 fs/built-in.o
                0x00000000240346e4                ubifs_categorize_lprops
 .text.ubifs_ensure_cat
                0x0000000024034754       0x30 fs/built-in.o
                0x0000000024034754                ubifs_ensure_cat
 .text.ubifs_calc_dark
                0x0000000024034784       0x38 fs/built-in.o
                0x0000000024034784                ubifs_calc_dark
 .text.ubifs_change_lp
                0x00000000240347bc      0x364 fs/built-in.o
                0x00000000240347bc                ubifs_change_lp
 .text.ubifs_get_lp_stats
                0x0000000024034b20        0xe fs/built-in.o
                0x0000000024034b20                ubifs_get_lp_stats
 *fill*         0x0000000024034b2e        0x2 
 .text.ubifs_change_one_lp
                0x0000000024034b30       0x90 fs/built-in.o
                0x0000000024034b30                ubifs_change_one_lp
 .text.ubifs_update_one_lp
                0x0000000024034bc0       0x90 fs/built-in.o
                0x0000000024034bc0                ubifs_update_one_lp
 .text.ubifs_read_one_lp
                0x0000000024034c50       0x6c fs/built-in.o
                0x0000000024034c50                ubifs_read_one_lp
 .text.ubifs_fast_find_free
                0x0000000024034cbc       0x40 fs/built-in.o
                0x0000000024034cbc                ubifs_fast_find_free
 .text.ubifs_fast_find_empty
                0x0000000024034cfc       0x64 fs/built-in.o
                0x0000000024034cfc                ubifs_fast_find_empty
 .text.ubifs_fast_find_freeable
                0x0000000024034d60       0x80 fs/built-in.o
                0x0000000024034d60                ubifs_fast_find_freeable
 .text.ubifs_fast_find_frdi_idx
                0x0000000024034de0       0x6c fs/built-in.o
                0x0000000024034de0                ubifs_fast_find_frdi_idx
 .text.dbg_check_cats
                0x0000000024034e4c        0x4 fs/built-in.o
                0x0000000024034e4c                dbg_check_cats
 .text.dbg_check_lprops
                0x0000000024034e50        0x4 fs/built-in.o
                0x0000000024034e50                dbg_check_lprops
 .text.insert_zbranch
                0x0000000024034e54       0xac fs/built-in.o
 .text.lnc_free
                0x0000000024034f00       0x12 fs/built-in.o
 *fill*         0x0000000024034f12        0x2 
 .text.insert_old_idx
                0x0000000024034f14       0x84 fs/built-in.o
 .text.get_znode
                0x0000000024034f98       0x20 fs/built-in.o
 .text.tnc_prev
                0x0000000024034fb8       0x48 fs/built-in.o
 .text.tnc_next
                0x0000000024035000       0x4c fs/built-in.o
 .text.left_znode
                0x000000002403504c       0x32 fs/built-in.o
 *fill*         0x000000002403507e        0x2 
 .text.lookup_znode
                0x0000000024035080      0x1f4 fs/built-in.o
 .text.lnc_add_directly
                0x0000000024035274       0x4c fs/built-in.o
 .text.tnc_read_node_nm
                0x00000000240352c0       0xbc fs/built-in.o
 .text.fallible_read_node
                0x000000002403537c       0xfc fs/built-in.o
 .text.matches_name
                0x0000000024035478       0x80 fs/built-in.o
 .text.resolve_collision
                0x00000000240354f8      0x174 fs/built-in.o
 .text.fallible_matches_name
                0x000000002403566c       0xa0 fs/built-in.o
 .text.fallible_resolve_collision
                0x000000002403570c      0x1c8 fs/built-in.o
 .text.correct_parent_keys.constprop.0
                0x00000000240358d4       0x64 fs/built-in.o
 .text.tnc_insert.constprop.0
                0x0000000024035938      0x2c4 fs/built-in.o
 .text.dirty_cow_znode
                0x0000000024035bfc      0x158 fs/built-in.o
 .text.dirty_cow_bottom_up
                0x0000000024035d54      0x180 fs/built-in.o
 .text.lookup_level0_dirty
                0x0000000024035ed4      0x112 fs/built-in.o
 .text.insert_old_idx_znode
                0x0000000024035fe6       0x32 fs/built-in.o
                0x0000000024035fe6                insert_old_idx_znode
 .text.tnc_delete
                0x0000000024036018      0x238 fs/built-in.o
 .text.destroy_old_idx
                0x0000000024036250       0x28 fs/built-in.o
                0x0000000024036250                destroy_old_idx
 .text.ubifs_lookup_level0
                0x0000000024036278       0xf8 fs/built-in.o
                0x0000000024036278                ubifs_lookup_level0
 .text.ubifs_tnc_locate
                0x0000000024036370      0x108 fs/built-in.o
                0x0000000024036370                ubifs_tnc_locate
 .text.ubifs_tnc_add
                0x0000000024036478       0x88 fs/built-in.o
                0x0000000024036478                ubifs_tnc_add
 .text.ubifs_tnc_replace
                0x0000000024036500      0x19c fs/built-in.o
                0x0000000024036500                ubifs_tnc_replace
 .text.ubifs_tnc_remove
                0x000000002403669c       0x30 fs/built-in.o
                0x000000002403669c                ubifs_tnc_remove
 .text.ubifs_tnc_remove_nm
                0x00000000240366cc       0x7c fs/built-in.o
                0x00000000240366cc                ubifs_tnc_remove_nm
 .text.ubifs_tnc_add_nm
                0x0000000024036748      0x114 fs/built-in.o
                0x0000000024036748                ubifs_tnc_add_nm
 .text.ubifs_tnc_remove_range
                0x000000002403685c      0x188 fs/built-in.o
                0x000000002403685c                ubifs_tnc_remove_range
 .text.ubifs_tnc_next_ent
                0x00000000240369e4       0xc8 fs/built-in.o
                0x00000000240369e4                ubifs_tnc_next_ent
 .text.ubifs_tnc_remove_ino
                0x0000000024036aac       0xd4 fs/built-in.o
                0x0000000024036aac                ubifs_tnc_remove_ino
 .text.ubifs_tnc_close
                0x0000000024036b80       0x8c fs/built-in.o
                0x0000000024036b80                ubifs_tnc_close
 .text.is_idx_node_in_tnc
                0x0000000024036c0c       0x20 fs/built-in.o
                0x0000000024036c0c                is_idx_node_in_tnc
 .text.ubifs_tnc_has_node
                0x0000000024036c2c       0xf8 fs/built-in.o
                0x0000000024036c2c                ubifs_tnc_has_node
 .text.ubifs_dirty_idx_node
                0x0000000024036d24       0x2a fs/built-in.o
                0x0000000024036d24                ubifs_dirty_idx_node
 *fill*         0x0000000024036d4e        0x2 
 .text.ubifs_search_zbranch
                0x0000000024036d50       0xf4 fs/built-in.o
                0x0000000024036d50                ubifs_search_zbranch
 .text.ubifs_tnc_postorder_first
                0x0000000024036e44       0x2a fs/built-in.o
                0x0000000024036e44                ubifs_tnc_postorder_first
 *fill*         0x0000000024036e6e        0x2 
 .text.ubifs_tnc_postorder_next
                0x0000000024036e70       0x44 fs/built-in.o
                0x0000000024036e70                ubifs_tnc_postorder_next
 .text.ubifs_destroy_tnc_subtree
                0x0000000024036eb4       0x74 fs/built-in.o
                0x0000000024036eb4                ubifs_destroy_tnc_subtree
 .text.ubifs_load_znode
                0x0000000024036f28      0x388 fs/built-in.o
                0x0000000024036f28                ubifs_load_znode
 .text.ubifs_tnc_read_node
                0x00000000240372b0       0x78 fs/built-in.o
                0x00000000240372b0                ubifs_tnc_read_node
 .text.dbg_snprintf_key
                0x0000000024037328       0xb0 fs/built-in.o
                0x0000000024037328                dbg_snprintf_key
 .text.dbg_ntype
                0x00000000240373d8       0x18 fs/built-in.o
                0x00000000240373d8                dbg_ntype
 .text.dbg_jhead
                0x00000000240373f0       0x18 fs/built-in.o
                0x00000000240373f0                dbg_jhead
 .text.ubifs_dump_inode
                0x0000000024037408        0x2 fs/built-in.o
                0x0000000024037408                ubifs_dump_inode
 *fill*         0x000000002403740a        0x2 
 .text.ubifs_dump_node
                0x000000002403740c     0x10b8 fs/built-in.o
                0x000000002403740c                ubifs_dump_node
 .text.ubifs_dump_lstats
                0x00000000240384c4       0x58 fs/built-in.o
                0x00000000240384c4                ubifs_dump_lstats
 .text.ubifs_dump_budg
                0x000000002403851c        0x2 fs/built-in.o
                0x000000002403851c                ubifs_dump_budg
 *fill*         0x000000002403851e        0x2 
 .text.ubifs_dump_lprop
                0x0000000024038520      0x16c fs/built-in.o
                0x0000000024038520                ubifs_dump_lprop
 .text.ubifs_dump_lprops
                0x000000002403868c       0x88 fs/built-in.o
                0x000000002403868c                ubifs_dump_lprops
 .text.ubifs_dump_lpt_info
                0x0000000024038714      0x1b0 fs/built-in.o
                0x0000000024038714                ubifs_dump_lpt_info
 .text.ubifs_dump_leb
                0x00000000240388c4       0xf0 fs/built-in.o
                0x00000000240388c4                ubifs_dump_leb
 .text.ubifs_dump_znode
                0x00000000240389b4       0xc8 fs/built-in.o
                0x00000000240389b4                ubifs_dump_znode
 .text.ubifs_dump_pnode
                0x0000000024038a7c       0x68 fs/built-in.o
                0x0000000024038a7c                ubifs_dump_pnode
 .text.dbg_check_dir
                0x0000000024038ae4        0x4 fs/built-in.o
                0x0000000024038ae4                dbg_check_dir
 .text.dbg_debugfs_exit_fs
                0x0000000024038ae8        0x2 fs/built-in.o
                0x0000000024038ae8                dbg_debugfs_exit_fs
 .text.ubifs_debugging_init
                0x0000000024038aea       0x20 fs/built-in.o
                0x0000000024038aea                ubifs_debugging_init
 .text.ubifs_debugging_exit
                0x0000000024038b0a        0x8 fs/built-in.o
                0x0000000024038b0a                ubifs_debugging_exit
 .text.dbg_check_filesystem
                0x0000000024038b12        0x4 fs/built-in.o
                0x0000000024038b12                dbg_check_filesystem
 .text.dbg_debugfs_init_fs
                0x0000000024038b16        0x4 fs/built-in.o
                0x0000000024038b16                dbg_debugfs_init_fs
 .text.dbg_check_tnc
                0x0000000024038b1a        0x4 fs/built-in.o
                0x0000000024038b1a                dbg_check_tnc
 .text.dbg_check_idx_size
                0x0000000024038b1e        0x4 fs/built-in.o
                0x0000000024038b1e                dbg_check_idx_size
 *fill*         0x0000000024038b22        0x2 
 .text.crc16    0x0000000024038b24       0x24 fs/built-in.o
                0x0000000024038b24                crc16
 .text.calc_data_growth
                0x0000000024038b48       0x2e fs/built-in.o
 .text.calc_dd_growth
                0x0000000024038b76       0x3a fs/built-in.o
 .text.ubifs_calc_min_idx_lebs
                0x0000000024038bb0       0x64 fs/built-in.o
                0x0000000024038bb0                ubifs_calc_min_idx_lebs
 .text.ubifs_calc_available
                0x0000000024038c14       0x6a fs/built-in.o
                0x0000000024038c14                ubifs_calc_available
 *fill*         0x0000000024038c7e        0x2 
 .text.ubifs_budget_space
                0x0000000024038c80      0x294 fs/built-in.o
                0x0000000024038c80                ubifs_budget_space
 .text.ubifs_release_budget
                0x0000000024038f14      0x1f4 fs/built-in.o
                0x0000000024038f14                ubifs_release_budget
 .text.ubifs_release_dirty_inode_budget
                0x0000000024039108        0x2 fs/built-in.o
                0x0000000024039108                ubifs_release_dirty_inode_budget
 .text.ubifs_reported_space
                0x000000002403910a       0x46 fs/built-in.o
                0x000000002403910a                ubifs_reported_space
 .text.add_node
                0x0000000024039150       0x96 fs/built-in.o
 .text.destroy_done_tree
                0x00000000240391e6       0x1e fs/built-in.o
 .text.ubifs_search_bud
                0x0000000024039204       0x1c fs/built-in.o
                0x0000000024039204                ubifs_search_bud
 .text.ubifs_get_wbuf
                0x0000000024039220       0x2a fs/built-in.o
                0x0000000024039220                ubifs_get_wbuf
 *fill*         0x000000002403924a        0x2 
 .text.ubifs_add_bud
                0x000000002403924c       0xb0 fs/built-in.o
                0x000000002403924c                ubifs_add_bud
 .text.ubifs_add_bud_to_log
                0x00000000240392fc      0x200 fs/built-in.o
                0x00000000240392fc                ubifs_add_bud_to_log
 .text.ubifs_log_start_commit
                0x00000000240394fc      0x228 fs/built-in.o
                0x00000000240394fc                ubifs_log_start_commit
 .text.ubifs_log_end_commit
                0x0000000024039724       0x22 fs/built-in.o
                0x0000000024039724                ubifs_log_end_commit
 *fill*         0x0000000024039746        0x2 
 .text.ubifs_log_post_commit
                0x0000000024039748       0x78 fs/built-in.o
                0x0000000024039748                ubifs_log_post_commit
 .text.ubifs_consolidate_log
                0x00000000240397c0      0x1e8 fs/built-in.o
                0x00000000240397c0                ubifs_consolidate_log
 .text.ubifs_add_orphan
                0x00000000240399a8       0xd4 fs/built-in.o
                0x00000000240399a8                ubifs_add_orphan
 .text.ubifs_delete_orphan
                0x0000000024039a7c       0xa8 fs/built-in.o
                0x0000000024039a7c                ubifs_delete_orphan
 .text.ubifs_orphan_start_commit
                0x0000000024039b24       0x94 fs/built-in.o
                0x0000000024039b24                ubifs_orphan_start_commit
 .text.ubifs_orphan_end_commit
                0x0000000024039bb8      0x384 fs/built-in.o
                0x0000000024039bb8                ubifs_orphan_end_commit
 .text.ubifs_clear_orphans
                0x0000000024039f3c       0x30 fs/built-in.o
                0x0000000024039f3c                ubifs_clear_orphans
 .text.ubifs_mount_orphans
                0x0000000024039f6c      0x2c8 fs/built-in.o
                0x0000000024039f6c                ubifs_mount_orphans
 .text.is_empty
                0x000000002403a234       0x18 fs/built-in.o
 .text.find_ino
                0x000000002403a24c       0x18 fs/built-in.o
 .text.write_rcvrd_mst_node
                0x000000002403a264       0x84 fs/built-in.o
 .text.get_master_node
                0x000000002403a2e8      0x13c fs/built-in.o
 .text.recover_head
                0x000000002403a424       0x82 fs/built-in.o
 *fill*         0x000000002403a4a6        0x2 
 .text.grab_empty_leb
                0x000000002403a4a8       0x70 fs/built-in.o
 .text.add_ino  0x000000002403a518       0x68 fs/built-in.o
 .text.ubifs_recover_master_node
                0x000000002403a580      0x1f4 fs/built-in.o
                0x000000002403a580                ubifs_recover_master_node
 .text.ubifs_recover_leb
                0x000000002403a774      0x40c fs/built-in.o
                0x000000002403a774                ubifs_recover_leb
 .text.ubifs_recover_log_leb
                0x000000002403ab80      0x200 fs/built-in.o
                0x000000002403ab80                ubifs_recover_log_leb
 .text.ubifs_recover_inl_heads
                0x000000002403ad80       0x50 fs/built-in.o
                0x000000002403ad80                ubifs_recover_inl_heads
 .text.ubifs_rcvry_gc_commit
                0x000000002403add0       0xec fs/built-in.o
                0x000000002403add0                ubifs_rcvry_gc_commit
 .text.ubifs_destroy_size_tree
                0x000000002403aebc       0x32 fs/built-in.o
                0x000000002403aebc                ubifs_destroy_size_tree
 .text.ubifs_recover_size_accum
                0x000000002403aeee       0x96 fs/built-in.o
                0x000000002403aeee                ubifs_recover_size_accum
 .text.ubifs_recover_size
                0x000000002403af84      0x258 fs/built-in.o
                0x000000002403af84                ubifs_recover_size
 .text.replay_entries_cmp
                0x000000002403b1dc       0x4c fs/built-in.o
 .text.insert_node
                0x000000002403b228       0x94 fs/built-in.o
 .text.ubifs_validate_entry
                0x000000002403b2bc      0x100 fs/built-in.o
                0x000000002403b2bc                ubifs_validate_entry
 .text.ubifs_replay_journal
                0x000000002403b3bc      0xc30 fs/built-in.o
                0x000000002403b3bc                ubifs_replay_journal
 .text.nondata_nodes_cmp
                0x000000002403bfec       0xc8 fs/built-in.o
 .text.data_nodes_cmp
                0x000000002403c0b4       0x88 fs/built-in.o
 .text.gc_sync_wbufs
                0x000000002403c13c       0x26 fs/built-in.o
 .text.move_node
                0x000000002403c162       0x5e fs/built-in.o
 .text.switch_gc_head
                0x000000002403c1c0       0x60 fs/built-in.o
 .text.ubifs_garbage_collect_leb
                0x000000002403c220      0x3f4 fs/built-in.o
                0x000000002403c220                ubifs_garbage_collect_leb
 .text.ubifs_garbage_collect
                0x000000002403c614      0x1e4 fs/built-in.o
                0x000000002403c614                ubifs_garbage_collect
 .text.ubifs_gc_start_commit
                0x000000002403c7f8      0x194 fs/built-in.o
                0x000000002403c7f8                ubifs_gc_start_commit
 .text.ubifs_gc_end_commit
                0x000000002403c98c       0x68 fs/built-in.o
                0x000000002403c98c                ubifs_gc_end_commit
 .text.ubifs_destroy_idx_gc
                0x000000002403c9f4       0x30 fs/built-in.o
                0x000000002403c9f4                ubifs_destroy_idx_gc
 .text.ubifs_get_idx_gc_leb
                0x000000002403ca24       0x2c fs/built-in.o
                0x000000002403ca24                ubifs_get_idx_gc_leb
 .text.do_commit
                0x000000002403ca50      0x634 fs/built-in.o
 .text.ubifs_commit_required
                0x000000002403d084       0x1e fs/built-in.o
                0x000000002403d084                ubifs_commit_required
 .text.ubifs_request_bg_commit
                0x000000002403d0a2       0x1e fs/built-in.o
                0x000000002403d0a2                ubifs_request_bg_commit
 .text.ubifs_run_commit
                0x000000002403d0c0       0x38 fs/built-in.o
                0x000000002403d0c0                ubifs_run_commit
 .text.ubifs_gc_should_commit
                0x000000002403d0f8       0x1a fs/built-in.o
                0x000000002403d0f8                ubifs_gc_should_commit
 .text.valuable
                0x000000002403d112       0x6a fs/built-in.o
 .text.scan_for_dirty_cb
                0x000000002403d17c       0x5c fs/built-in.o
 .text.scan_for_free_cb
                0x000000002403d1d8       0x56 fs/built-in.o
 .text.scan_for_idx_cb
                0x000000002403d22e       0x44 fs/built-in.o
 .text.cmp_dirty_idx
                0x000000002403d272       0x14 fs/built-in.o
 .text.swap_dirty_idx
                0x000000002403d286        0xa fs/built-in.o
 .text.scan_dirty_idx_cb
                0x000000002403d290       0x44 fs/built-in.o
 .text.ubifs_find_dirty_leb
                0x000000002403d2d4      0x2d0 fs/built-in.o
                0x000000002403d2d4                ubifs_find_dirty_leb
 .text.ubifs_find_free_space
                0x000000002403d5a4      0x278 fs/built-in.o
                0x000000002403d5a4                ubifs_find_free_space
 .text.ubifs_find_free_leb_for_idx
                0x000000002403d81c      0x19c fs/built-in.o
                0x000000002403d81c                ubifs_find_free_leb_for_idx
 .text.ubifs_save_dirty_idx_lnums
                0x000000002403d9b8       0x7c fs/built-in.o
                0x000000002403d9b8                ubifs_save_dirty_idx_lnums
 .text.ubifs_find_dirty_idx_leb
                0x000000002403da34      0x254 fs/built-in.o
                0x000000002403da34                ubifs_find_dirty_idx_leb
 .text.set_dent_cookie
                0x000000002403dc88       0x14 fs/built-in.o
 .text.make_reservation
                0x000000002403dc9c      0x1c8 fs/built-in.o
 .text.pack_inode
                0x000000002403de64      0x2d2 fs/built-in.o
 .text.mark_inode_clean
                0x000000002403e136       0x1e fs/built-in.o
 .text.get_dent_type
                0x000000002403e154       0x74 fs/built-in.o
 .text.write_head.constprop.0
                0x000000002403e1c8       0x30 fs/built-in.o
 .text.ubifs_jnl_update
                0x000000002403e1f8      0x2cc fs/built-in.o
                0x000000002403e1f8                ubifs_jnl_update
 .text.ubifs_jnl_write_data
                0x000000002403e4c4      0x160 fs/built-in.o
                0x000000002403e4c4                ubifs_jnl_write_data
 .text.ubifs_jnl_write_inode
                0x000000002403e624       0xf0 fs/built-in.o
                0x000000002403e624                ubifs_jnl_write_inode
 .text.free_unused_idx_lebs
                0x000000002403e714       0x4c fs/built-in.o
 .text.fill_gap
                0x000000002403e760      0x23c fs/built-in.o
 .text.find_first_dirty.part.0
                0x000000002403e99c       0x36 fs/built-in.o
 *fill*         0x000000002403e9d2        0x2 
 .text.ubifs_tnc_start_commit
                0x000000002403e9d4      0x5c0 fs/built-in.o
                0x000000002403e9d4                ubifs_tnc_start_commit
 .text.ubifs_tnc_end_commit
                0x000000002403ef94      0x364 fs/built-in.o
                0x000000002403ef94                ubifs_tnc_end_commit
 .text.fdt_check_header
                0x000000002403f2f8       0x4c lib/built-in.o
                0x000000002403f2f8                fdt_check_header
 .text.fdt_offset_ptr
                0x000000002403f344       0x32 lib/built-in.o
                0x000000002403f344                fdt_offset_ptr
 *fill*         0x000000002403f376        0x2 
 .text.fdt_next_tag
                0x000000002403f378       0xc0 lib/built-in.o
                0x000000002403f378                fdt_next_tag
 .text.fdt_check_node_offset_
                0x000000002403f438       0x24 lib/built-in.o
                0x000000002403f438                fdt_check_node_offset_
 .text.fdt_check_prop_offset_
                0x000000002403f45c       0x24 lib/built-in.o
                0x000000002403f45c                fdt_check_prop_offset_
 .text.fdt_next_node
                0x000000002403f480       0x6e lib/built-in.o
                0x000000002403f480                fdt_next_node
 .text.fdt_first_subnode
                0x000000002403f4ee       0x26 lib/built-in.o
                0x000000002403f4ee                fdt_first_subnode
 .text.fdt_next_subnode
                0x000000002403f514       0x2a lib/built-in.o
                0x000000002403f514                fdt_next_subnode
 .text.fdt_find_string_
                0x000000002403f53e       0x30 lib/built-in.o
                0x000000002403f53e                fdt_find_string_
 .text.fdt_move
                0x000000002403f56e       0x2a lib/built-in.o
                0x000000002403f56e                fdt_move
 .text.fdt_setprop_inplace_namelen_partial
                0x000000002403f598       0x30 lib/built-in.o
                0x000000002403f598                fdt_setprop_inplace_namelen_partial
 .text.fdt_setprop_inplace
                0x000000002403f5c8       0x4a lib/built-in.o
                0x000000002403f5c8                fdt_setprop_inplace
 .text.fdt_node_end_offset_
                0x000000002403f612       0x24 lib/built-in.o
                0x000000002403f612                fdt_node_end_offset_
 *fill*         0x000000002403f636        0x2 
 .text.fdt_strerror
                0x000000002403f638       0x3c lib/built-in.o
                0x000000002403f638                fdt_strerror
 .text.fdt_blocks_misordered_
                0x000000002403f674       0x36 lib/built-in.o
 .text.fdt_splice_
                0x000000002403f6aa       0x4a lib/built-in.o
 .text.fdt_splice_mem_rsv_
                0x000000002403f6f4       0x2e lib/built-in.o
 .text.fdt_splice_struct_
                0x000000002403f722       0x26 lib/built-in.o
 .text.fdt_packblocks_
                0x000000002403f748       0x5c lib/built-in.o
 .text.fdt_add_property_
                0x000000002403f7a4       0xc0 lib/built-in.o
 .text.fdt_rw_check_header_
                0x000000002403f864       0x38 lib/built-in.o
 .text.fdt_add_mem_rsv
                0x000000002403f89c       0x56 lib/built-in.o
                0x000000002403f89c                fdt_add_mem_rsv
 .text.fdt_del_mem_rsv
                0x000000002403f8f2       0x3c lib/built-in.o
                0x000000002403f8f2                fdt_del_mem_rsv
 .text.fdt_setprop_placeholder
                0x000000002403f92e       0x6e lib/built-in.o
                0x000000002403f92e                fdt_setprop_placeholder
 .text.fdt_setprop
                0x000000002403f99c       0x26 lib/built-in.o
                0x000000002403f99c                fdt_setprop
 .text.fdt_delprop
                0x000000002403f9c2       0x3e lib/built-in.o
                0x000000002403f9c2                fdt_delprop
 .text.fdt_add_subnode_namelen
                0x000000002403fa00       0x98 lib/built-in.o
                0x000000002403fa00                fdt_add_subnode_namelen
 .text.fdt_add_subnode
                0x000000002403fa98       0x1e lib/built-in.o
                0x000000002403fa98                fdt_add_subnode
 .text.fdt_del_node
                0x000000002403fab6       0x30 lib/built-in.o
                0x000000002403fab6                fdt_del_node
 *fill*         0x000000002403fae6        0x2 
 .text.fdt_open_into
                0x000000002403fae8       0xec lib/built-in.o
                0x000000002403fae8                fdt_open_into
 .text.fdt_pack
                0x000000002403fbd4       0x34 lib/built-in.o
                0x000000002403fbd4                fdt_pack
 .text.fdt_address_cells
                0x000000002403fc08       0x34 lib/built-in.o
                0x000000002403fc08                fdt_address_cells
 .text.fdt_size_cells
                0x000000002403fc3c       0x34 lib/built-in.o
                0x000000002403fc3c                fdt_size_cells
 .text.overlay_phandle_add_offset
                0x000000002403fc70       0x4a lib/built-in.o
 *fill*         0x000000002403fcba        0x2 
 .text.overlay_adjust_node_phandles
                0x000000002403fcbc       0x5c lib/built-in.o
 .text.overlay_update_local_node_references
                0x000000002403fd18       0xfa lib/built-in.o
 *fill*         0x000000002403fe12        0x2 
 .text.overlay_get_target
                0x000000002403fe14       0x7c lib/built-in.o
 .text.overlay_apply_node
                0x000000002403fe90       0xae lib/built-in.o
 *fill*         0x000000002403ff3e        0x2 
 .text.fdt_overlay_apply
                0x000000002403ff40      0x41c lib/built-in.o
                0x000000002403ff40                fdt_overlay_apply
 .text.fdt_path_next_separator
                0x000000002404035c       0x2a lib/built-in.o
 .text._nextprop
                0x0000000024040386       0x32 lib/built-in.o
 .text.fdt_string
                0x00000000240403b8        0xa lib/built-in.o
                0x00000000240403b8                fdt_string
 .text.fdt_get_mem_rsv
                0x00000000240403c2       0x42 lib/built-in.o
                0x00000000240403c2                fdt_get_mem_rsv
 .text.fdt_num_mem_rsv
                0x0000000024040404       0x1a lib/built-in.o
                0x0000000024040404                fdt_num_mem_rsv
 .text.fdt_subnode_offset_namelen
                0x000000002404041e       0x84 lib/built-in.o
                0x000000002404041e                fdt_subnode_offset_namelen
 .text.fdt_subnode_offset
                0x00000000240404a2       0x1e lib/built-in.o
                0x00000000240404a2                fdt_subnode_offset
 .text.fdt_get_name
                0x00000000240404c0       0x3e lib/built-in.o
                0x00000000240404c0                fdt_get_name
 .text.fdt_first_property_offset
                0x00000000240404fe       0x18 lib/built-in.o
                0x00000000240404fe                fdt_first_property_offset
 .text.fdt_next_property_offset
                0x0000000024040516       0x18 lib/built-in.o
                0x0000000024040516                fdt_next_property_offset
 .text.fdt_get_property_by_offset
                0x000000002404052e       0x30 lib/built-in.o
                0x000000002404052e                fdt_get_property_by_offset
 .text.fdt_get_property_namelen
                0x000000002404055e       0x7c lib/built-in.o
                0x000000002404055e                fdt_get_property_namelen
 .text.fdt_get_property
                0x00000000240405da       0x22 lib/built-in.o
                0x00000000240405da                fdt_get_property
 .text.fdt_getprop_namelen
                0x00000000240405fc       0x12 lib/built-in.o
                0x00000000240405fc                fdt_getprop_namelen
 .text.fdt_getprop_by_offset
                0x000000002404060e       0x24 lib/built-in.o
                0x000000002404060e                fdt_getprop_by_offset
 .text.fdt_getprop
                0x0000000024040632       0x22 lib/built-in.o
                0x0000000024040632                fdt_getprop
 .text.fdt_get_phandle
                0x0000000024040654       0x40 lib/built-in.o
                0x0000000024040654                fdt_get_phandle
 .text.fdt_get_max_phandle
                0x0000000024040694       0x42 lib/built-in.o
                0x0000000024040694                fdt_get_max_phandle
 *fill*         0x00000000240406d6        0x2 
 .text.fdt_get_alias_namelen
                0x00000000240406d8       0x2c lib/built-in.o
                0x00000000240406d8                fdt_get_alias_namelen
 .text.fdt_path_offset_namelen
                0x0000000024040704       0x8e lib/built-in.o
                0x0000000024040704                fdt_path_offset_namelen
 .text.fdt_path_offset
                0x0000000024040792       0x1a lib/built-in.o
                0x0000000024040792                fdt_path_offset
 .text.fdt_get_path
                0x00000000240407ac       0xca lib/built-in.o
                0x00000000240407ac                fdt_get_path
 .text.fdt_supernode_atdepth_offset
                0x0000000024040876       0x68 lib/built-in.o
                0x0000000024040876                fdt_supernode_atdepth_offset
 .text.fdt_node_depth
                0x00000000240408de       0x1e lib/built-in.o
                0x00000000240408de                fdt_node_depth
 .text.fdt_parent_offset
                0x00000000240408fc       0x20 lib/built-in.o
                0x00000000240408fc                fdt_parent_offset
 .text.fdt_node_offset_by_prop_value
                0x000000002404091c       0x58 lib/built-in.o
                0x000000002404091c                fdt_node_offset_by_prop_value
 .text.fdt_node_offset_by_phandle
                0x0000000024040974       0x42 lib/built-in.o
                0x0000000024040974                fdt_node_offset_by_phandle
 .text.fdt_stringlist_contains
                0x00000000240409b6       0x46 lib/built-in.o
                0x00000000240409b6                fdt_stringlist_contains
 .text.fdt_stringlist_count
                0x00000000240409fc       0x38 lib/built-in.o
                0x00000000240409fc                fdt_stringlist_count
 .text.fdt_stringlist_search
                0x0000000024040a34       0x66 lib/built-in.o
                0x0000000024040a34                fdt_stringlist_search
 .text.fdt_stringlist_get
                0x0000000024040a9a       0x60 lib/built-in.o
                0x0000000024040a9a                fdt_stringlist_get
 *fill*         0x0000000024040afa        0x2 
 .text.fdt_node_check_compatible
                0x0000000024040afc       0x28 lib/built-in.o
                0x0000000024040afc                fdt_node_check_compatible
 .text.fdt_find_regions
                0x0000000024040b24      0x22e lib/built-in.o
                0x0000000024040b24                fdt_find_regions
 *fill*         0x0000000024040d52        0x2 
 .text.crc16_ccitt
                0x0000000024040d54       0x28 lib/built-in.o
                0x0000000024040d54                crc16_ccitt
 .text.crc16_ccitt_wd_buf
                0x0000000024040d7c       0x24 lib/built-in.o
                0x0000000024040d7c                crc16_ccitt_wd_buf
 .text.fdtdec_get_int
                0x0000000024040da0       0x1c lib/built-in.o
                0x0000000024040da0                fdtdec_get_int
 .text.MD5Transform
                0x0000000024040dbc      0x6c4 lib/built-in.o
 .text.MD5Update
                0x0000000024041480       0x94 lib/built-in.o
 .text.MD5Final
                0x0000000024041514       0x68 lib/built-in.o
 .text.md5_wd   0x000000002404157c       0x44 lib/built-in.o
                0x000000002404157c                md5_wd
 .text.string_to_ip
                0x00000000240415c0       0x48 lib/built-in.o
                0x00000000240415c0                string_to_ip
 .text.rb_insert_color
                0x0000000024041608       0xca lib/built-in.o
                0x0000000024041608                rb_insert_color
 .text.rb_erase
                0x00000000240416d2      0x1c4 lib/built-in.o
                0x00000000240416d2                rb_erase
 .text.rb_first
                0x0000000024041896       0x10 lib/built-in.o
                0x0000000024041896                rb_first
 .text.rb_last  0x00000000240418a6       0x10 lib/built-in.o
                0x00000000240418a6                rb_last
 .text.rb_next  0x00000000240418b6       0x2c lib/built-in.o
                0x00000000240418b6                rb_next
 .text.rb_next_postorder
                0x00000000240418e2       0x28 lib/built-in.o
                0x00000000240418e2                rb_next_postorder
 .text.rb_first_postorder
                0x000000002404190a       0x16 lib/built-in.o
                0x000000002404190a                rb_first_postorder
 .text.merge    0x0000000024041920       0x36 lib/built-in.o
 *fill*         0x0000000024041956        0x2 
 .text.list_sort
                0x0000000024041958       0xec lib/built-in.o
                0x0000000024041958                list_sort
 .text.u32_swap
                0x0000000024041a44        0xa lib/built-in.o
 .text.u64_swap
                0x0000000024041a4e       0x14 lib/built-in.o
 .text.generic_swap
                0x0000000024041a62       0x18 lib/built-in.o
 *fill*         0x0000000024041a7a        0x2 
 .text.sort     0x0000000024041a7c      0x110 lib/built-in.o
                0x0000000024041a7c                sort
 .text.rsa_verify_with_keynode
                0x0000000024041b8c      0x130 lib/built-in.o
 .text.padding_pkcs_15_verify
                0x0000000024041cbc       0x82 lib/built-in.o
                0x0000000024041cbc                padding_pkcs_15_verify
 *fill*         0x0000000024041d3e        0x2 
 .text.rsa_verify
                0x0000000024041d40       0xf8 lib/built-in.o
                0x0000000024041d40                rsa_verify
 .text.hash_calculate
                0x0000000024041e38       0x62 lib/built-in.o
                0x0000000024041e38                hash_calculate
 .text.subtract_modulus
                0x0000000024041e9a       0x30 lib/built-in.o
 .text.montgomery_mul
                0x0000000024041eca       0xa0 lib/built-in.o
 .text.rsa_convert_big_endian
                0x0000000024041f6a       0x1e lib/built-in.o
 .text.rsa_mod_exp_sw
                0x0000000024041f88      0x1f4 lib/built-in.o
                0x0000000024041f88                rsa_mod_exp_sw
 .text.sha1_process
                0x000000002404217c      0xfb4 lib/built-in.o
 .text.sha1_update.part.0
                0x0000000024043130       0x88 lib/built-in.o
 .text.sha1_starts
                0x00000000240431b8       0x34 lib/built-in.o
                0x00000000240431b8                sha1_starts
 .text.sha1_update
                0x00000000240431ec        0x8 lib/built-in.o
                0x00000000240431ec                sha1_update
 .text.sha1_finish
                0x00000000240431f4       0xd0 lib/built-in.o
                0x00000000240431f4                sha1_finish
 .text.sha1_csum_wd
                0x00000000240432c4       0x22 lib/built-in.o
                0x00000000240432c4                sha1_csum_wd
 *fill*         0x00000000240432e6        0x2 
 .text.sha256_process
                0x00000000240432e8     0x1d58 lib/built-in.o
 .text.sha256_update.part.0
                0x0000000024045040       0x88 lib/built-in.o
 .text.sha256_starts
                0x00000000240450c8       0x50 lib/built-in.o
                0x00000000240450c8                sha256_starts
 .text.sha256_update
                0x0000000024045118        0x8 lib/built-in.o
                0x0000000024045118                sha256_update
 .text.sha256_finish
                0x0000000024045120      0x108 lib/built-in.o
                0x0000000024045120                sha256_finish
 .text.sha256_csum_wd
                0x0000000024045228       0x22 lib/built-in.o
                0x0000000024045228                sha256_csum_wd
 .text.zcalloc  0x000000002404524a        0x8 lib/built-in.o
                0x000000002404524a                zcalloc
 .text.zcfree   0x0000000024045252        0x6 lib/built-in.o
                0x0000000024045252                zcfree
 .text.inflate_fast
                0x0000000024045258      0x3b8 lib/built-in.o
                0x0000000024045258                inflate_fast
 .text.inflate_table
                0x0000000024045610      0x314 lib/built-in.o
                0x0000000024045610                inflate_table
 .text.inflateReset
                0x0000000024045924       0x40 lib/built-in.o
                0x0000000024045924                inflateReset
 .text.inflateInit2_
                0x0000000024045964       0x98 lib/built-in.o
                0x0000000024045964                inflateInit2_
 .text.inflateEnd
                0x00000000240459fc       0x2e lib/built-in.o
                0x00000000240459fc                inflateEnd
 .text.adler32  0x0000000024045a2a      0x230 lib/built-in.o
                0x0000000024045a2a                adler32
 *fill*         0x0000000024045c5a        0x2 
 .text.inflate  0x0000000024045c5c      0xd5c lib/built-in.o
                0x0000000024045c5c                inflate
 .text.gzalloc  0x00000000240469b8        0xe lib/built-in.o
                0x00000000240469b8                gzalloc
 .text.gzfree   0x00000000240469c6        0x6 lib/built-in.o
                0x00000000240469c6                gzfree
 .text.gzip_parse_header
                0x00000000240469cc       0x70 lib/built-in.o
                0x00000000240469cc                gzip_parse_header
 .text.zunzip   0x0000000024046a3c       0xa8 lib/built-in.o
                0x0000000024046a3c                zunzip
 .text.gunzip   0x0000000024046ae4       0x2c lib/built-in.o
                0x0000000024046ae4                gunzip
 .text.lzop_is_valid_header
                0x0000000024046b10       0x24 lib/built-in.o
                0x0000000024046b10                lzop_is_valid_header
 .text.lzo1x_decompress_safe
                0x0000000024046b34      0x43c lib/built-in.o
                0x0000000024046b34                lzo1x_decompress_safe
 .text.lzop_decompress
                0x0000000024046f70       0xe8 lib/built-in.o
                0x0000000024046f70                lzop_decompress
 .text.get_prop_check_min_len
                0x0000000024047058       0x26 lib/built-in.o
 *fill*         0x000000002404707e        0x2 
 .text.fdtdec_get_is_enabled
                0x0000000024047080       0x28 lib/built-in.o
                0x0000000024047080                fdtdec_get_is_enabled
 .text.get_next_memory_node
                0x00000000240470a8       0x38 lib/built-in.o
 .text.fdtdec_get_alias_seq
                0x00000000240470e0       0xac lib/built-in.o
                0x00000000240470e0                fdtdec_get_alias_seq
 .text.fdtdec_get_chosen_prop
                0x000000002404718c       0x24 lib/built-in.o
                0x000000002404718c                fdtdec_get_chosen_prop
 .text.fdtdec_get_chosen_node
                0x00000000240471b0       0x1c lib/built-in.o
                0x00000000240471b0                fdtdec_get_chosen_node
 .text.fdtdec_prepare_fdt
                0x00000000240471cc       0x30 lib/built-in.o
                0x00000000240471cc                fdtdec_prepare_fdt
 .text.fdtdec_get_int_array
                0x00000000240471fc       0x36 lib/built-in.o
                0x00000000240471fc                fdtdec_get_int_array
 .text.decode_timing_property
                0x0000000024047232       0x4a lib/built-in.o
 .text.fdtdec_get_int_array_count
                0x000000002404727c       0x38 lib/built-in.o
                0x000000002404727c                fdtdec_get_int_array_count
 .text.fdtdec_get_bool
                0x00000000240472b4       0x14 lib/built-in.o
                0x00000000240472b4                fdtdec_get_bool
 .text.fdtdec_parse_phandle_with_args
                0x00000000240472c8       0xc8 lib/built-in.o
                0x00000000240472c8                fdtdec_parse_phandle_with_args
 .text.fdtdec_locate_byte_array
                0x0000000024047390       0x16 lib/built-in.o
                0x0000000024047390                fdtdec_locate_byte_array
 *fill*         0x00000000240473a6        0x2 
 .text.fdtdec_get_config_int
                0x00000000240473a8       0x28 lib/built-in.o
                0x00000000240473a8                fdtdec_get_config_int
 .text.fdtdec_get_config_string
                0x00000000240473d0       0x28 lib/built-in.o
                0x00000000240473d0                fdtdec_get_config_string
 .text.fdtdec_get_number
                0x00000000240473f8       0x1a lib/built-in.o
                0x00000000240473f8                fdtdec_get_number
 .text.fdtdec_get_addr_size_fixed
                0x0000000024047412       0x6c lib/built-in.o
                0x0000000024047412                fdtdec_get_addr_size_fixed
 .text.fdt_get_resource
                0x000000002404747e       0x92 lib/built-in.o
                0x000000002404747e                fdt_get_resource
 .text.fdtdec_decode_display_timing
                0x0000000024047510      0x1e8 lib/built-in.o
                0x0000000024047510                fdtdec_decode_display_timing
 .text.fdtdec_setup_mem_size_base
                0x00000000240476f8       0x48 lib/built-in.o
                0x00000000240476f8                fdtdec_setup_mem_size_base
 .text.fdtdec_setup_memory_banksize
                0x0000000024047740       0x78 lib/built-in.o
                0x0000000024047740                fdtdec_setup_memory_banksize
 .text.board_fdt_blob_setup
                0x00000000240477b8        0x8 lib/built-in.o
                0x00000000240477b8                board_fdt_blob_setup
 .text.fdtdec_setup
                0x00000000240477c0       0x28 lib/built-in.o
                0x00000000240477c0                fdtdec_setup
 .text.qsort    0x00000000240477e8       0x86 lib/built-in.o
                0x00000000240477e8                qsort
 .text.strcmp_compar
                0x000000002404786e        0x8 lib/built-in.o
                0x000000002404786e                strcmp_compar
 .text.cmpkey   0x0000000024047876        0xc lib/built-in.o
 *fill*         0x0000000024047882        0x2 
 .text.match_string
                0x0000000024047884       0x5c lib/built-in.o
 .text.match_entry
                0x00000000240478e0       0x7c lib/built-in.o
 .text.drop_var_from_set.part.0
                0x000000002404795c       0x30 lib/built-in.o
 .text._hdelete.constprop.0
                0x000000002404798c       0x2e lib/built-in.o
 *fill*         0x00000000240479ba        0x2 
 .text.hcreate_r
                0x00000000240479bc       0x58 lib/built-in.o
                0x00000000240479bc                hcreate_r
 .text.hdestroy_r
                0x0000000024047a14       0x44 lib/built-in.o
                0x0000000024047a14                hdestroy_r
 .text.hmatch_r
                0x0000000024047a58       0x60 lib/built-in.o
                0x0000000024047a58                hmatch_r
 .text.hsearch_r
                0x0000000024047ab8      0x2b0 lib/built-in.o
                0x0000000024047ab8                hsearch_r
 .text.hdelete_r
                0x0000000024047d68       0x94 lib/built-in.o
                0x0000000024047d68                hdelete_r
 .text.hexport_r
                0x0000000024047dfc      0x19c lib/built-in.o
                0x0000000024047dfc                hexport_r
 .text.himport_r
                0x0000000024047f98      0x270 lib/built-in.o
                0x0000000024047f98                himport_r
 .text.hwalk_r  0x0000000024048208       0x30 lib/built-in.o
                0x0000000024048208                hwalk_r
 .text.display_options_get_banner_priv
                0x0000000024048238       0x60 lib/built-in.o
                0x0000000024048238                display_options_get_banner_priv
 .text.display_options_get_banner
                0x0000000024048298        0xa lib/built-in.o
                0x0000000024048298                display_options_get_banner
 *fill*         0x00000000240482a2        0x2 
 .text.display_options
                0x00000000240482a4       0x24 lib/built-in.o
                0x00000000240482a4                display_options
 .text.print_size
                0x00000000240482c8      0x100 lib/built-in.o
                0x00000000240482c8                print_size
 .text.print_buffer
                0x00000000240483c8      0x134 lib/built-in.o
                0x00000000240483c8                print_buffer
 .text.crc32_no_comp
                0x00000000240484fc       0x90 lib/built-in.o
                0x00000000240484fc                crc32_no_comp
 .text.crc32    0x000000002404858c        0xc lib/built-in.o
                0x000000002404858c                crc32
 .text.crc32_wd
                0x0000000024048598        0x4 lib/built-in.o
                0x0000000024048598                crc32_wd
 .text.crc32_wd_buf
                0x000000002404859c       0x22 lib/built-in.o
                0x000000002404859c                crc32_wd_buf
 .text.__div64_32
                0x00000000240485be       0x74 lib/built-in.o
                0x00000000240485be                __div64_32
 *fill*         0x0000000024048632        0x2 
 .text.hang     0x0000000024048634       0x18 lib/built-in.o
                0x0000000024048634                hang
 .text.copy_from_user
                0x000000002404864c        0xa lib/built-in.o
                0x000000002404864c                copy_from_user
 .text.kmalloc  0x0000000024048656       0x26 lib/built-in.o
                0x0000000024048656                kmalloc
 .text.get_mem  0x000000002404867c       0x10 lib/built-in.o
                0x000000002404867c                get_mem
 .text.kmem_cache_alloc
                0x000000002404868c        0xe lib/built-in.o
                0x000000002404868c                kmem_cache_alloc
 *fill*         0x000000002404869a        0x2 
 .text.skip_spaces
                0x000000002404869c       0x18 lib/built-in.o
                0x000000002404869c                skip_spaces
 .text.strim    0x00000000240486b4       0x34 lib/built-in.o
                0x00000000240486b4                strim
 .text.lmb_add_region
                0x00000000240486e8      0x100 lib/built-in.o
 .text.lmb_overlaps_region
                0x00000000240487e8       0x2c lib/built-in.o
 .text.lmb_dump_all
                0x0000000024048814        0x2 lib/built-in.o
                0x0000000024048814                lmb_dump_all
 .text.lmb_add  0x0000000024048816        0x4 lib/built-in.o
                0x0000000024048816                lmb_add
 .text.lmb_free
                0x000000002404881a       0x86 lib/built-in.o
                0x000000002404881a                lmb_free
 .text.lmb_reserve
                0x00000000240488a0        0x6 lib/built-in.o
                0x00000000240488a0                lmb_reserve
 .text.__lmb_alloc_base
                0x00000000240488a6       0x94 lib/built-in.o
                0x00000000240488a6                __lmb_alloc_base
 *fill*         0x000000002404893a        0x2 
 .text.lmb_alloc_base
                0x000000002404893c       0x20 lib/built-in.o
                0x000000002404893c                lmb_alloc_base
 .text.lmb_alloc
                0x000000002404895c        0x6 lib/built-in.o
                0x000000002404895c                lmb_alloc
 .text.lmb_alloc_addr
                0x0000000024048962       0x3e lib/built-in.o
                0x0000000024048962                lmb_alloc_addr
 .text.lmb_get_free_size
                0x00000000240489a0       0x48 lib/built-in.o
                0x00000000240489a0                lmb_get_free_size
 .text.board_lmb_reserve
                0x00000000240489e8        0x2 lib/built-in.o
                0x00000000240489e8                board_lmb_reserve
 .text.lmb_init_and_reserve
                0x00000000240489ea       0x36 lib/built-in.o
                0x00000000240489ea                lmb_init_and_reserve
 .text.lmb_init_and_reserve_range
                0x0000000024048a20       0x30 lib/built-in.o
                0x0000000024048a20                lmb_init_and_reserve_range
 .text.emit     0x0000000024048a50       0x20 lib/built-in.o
 .text.store_char_in_data
                0x0000000024048a70       0x24 lib/built-in.o
 .text.get_escape_char
                0x0000000024048a94       0x54 lib/built-in.o
 .text.relocate
                0x0000000024048ae8       0x2a lib/built-in.o
 *fill*         0x0000000024048b12        0x2 
 .text.match    0x0000000024048b14      0x26c lib/built-in.o
 .text.loop_greedy
                0x0000000024048d80       0x56 lib/built-in.o
 .text.loop_non_greedy
                0x0000000024048dd6       0x52 lib/built-in.o
 .text.fixup_branch.part.0
                0x0000000024048e28       0x24 lib/built-in.o
 .text.quantifier
                0x0000000024048e4c       0x5c lib/built-in.o
 .text.compile  0x0000000024048ea8      0x248 lib/built-in.o
 .text.slre_compile
                0x00000000240490f0       0x72 lib/built-in.o
                0x00000000240490f0                slre_compile
 .text.slre_match
                0x0000000024049162       0x5a lib/built-in.o
                0x0000000024049162                slre_match
 .text.strncasecmp
                0x00000000240491bc       0x44 lib/built-in.o
                0x00000000240491bc                strncasecmp
 .text.strcasecmp
                0x0000000024049200        0x8 lib/built-in.o
                0x0000000024049200                strcasecmp
 .text.strcpy   0x0000000024049208       0x10 lib/built-in.o
                0x0000000024049208                strcpy
 .text.strncpy  0x0000000024049218       0x18 lib/built-in.o
                0x0000000024049218                strncpy
 .text.strcat   0x0000000024049230       0x1e lib/built-in.o
                0x0000000024049230                strcat
 .text.strncat  0x000000002404924e       0x28 lib/built-in.o
                0x000000002404924e                strncat
 .text.strcmp   0x0000000024049276       0x16 lib/built-in.o
                0x0000000024049276                strcmp
 .text.strncmp  0x000000002404928c       0x22 lib/built-in.o
                0x000000002404928c                strncmp
 .text.strchr   0x00000000240492ae       0x1a lib/built-in.o
                0x00000000240492ae                strchr
 .text.strlen   0x00000000240492c8       0x10 lib/built-in.o
                0x00000000240492c8                strlen
 .text.strrchr  0x00000000240492d8       0x20 lib/built-in.o
                0x00000000240492d8                strrchr
 .text.strnlen  0x00000000240492f8       0x18 lib/built-in.o
                0x00000000240492f8                strnlen
 .text.strdup   0x0000000024049310       0x22 lib/built-in.o
                0x0000000024049310                strdup
 .text.strpbrk  0x0000000024049332       0x22 lib/built-in.o
                0x0000000024049332                strpbrk
 .text.strsep   0x0000000024049354       0x1c lib/built-in.o
                0x0000000024049354                strsep
 .text.memmove  0x0000000024049370       0x26 lib/built-in.o
                0x0000000024049370                memmove
 .text.memcmp   0x0000000024049396       0x1e lib/built-in.o
                0x0000000024049396                memcmp
 .text.strstr   0x00000000240493b4       0x40 lib/built-in.o
                0x00000000240493b4                strstr
 .text.memchr   0x00000000240493f4       0x1c lib/built-in.o
                0x00000000240493f4                memchr
 .text.get_tbclk
                0x0000000024049410       0x1c lib/built-in.o
                0x0000000024049410                get_tbclk
 .text.tick_to_time
                0x000000002404942c       0x38 lib/built-in.o
 .text.get_ticks
                0x0000000024049464       0x2a lib/built-in.o
                0x0000000024049464                get_ticks
 .text.timer_init
                0x000000002404948e        0x4 lib/built-in.o
                0x000000002404948e                timer_init
 .text.get_timer
                0x0000000024049492       0x10 lib/built-in.o
                0x0000000024049492                get_timer
 .text.timer_get_us
                0x00000000240494a2       0x18 lib/built-in.o
                0x00000000240494a2                timer_get_us
 *fill*         0x00000000240494ba        0x2 
 .text.__udelay
                0x00000000240494bc       0x84 lib/built-in.o
                0x00000000240494bc                __udelay
 .text.udelay   0x0000000024049540       0x20 lib/built-in.o
                0x0000000024049540                udelay
 .text.print_hex_dump
                0x0000000024049560        0x2 lib/built-in.o
                0x0000000024049560                print_hex_dump
 *fill*         0x0000000024049562        0x2 
 .text.uuid_str_valid
                0x0000000024049564       0x4c lib/built-in.o
                0x0000000024049564                uuid_str_valid
 .text.uuid_str_to_bin
                0x00000000240495b0      0x108 lib/built-in.o
                0x00000000240495b0                uuid_str_to_bin
 .text.uuid_bin_to_str
                0x00000000240496b8       0x74 lib/built-in.o
                0x00000000240496b8                uuid_bin_to_str
 .text.gen_rand_uuid
                0x000000002404972c       0x52 lib/built-in.o
                0x000000002404972c                gen_rand_uuid
 .text.gen_rand_uuid_str
                0x000000002404977e       0x1c lib/built-in.o
                0x000000002404977e                gen_rand_uuid_str
 .text.rand_r   0x000000002404979a       0x14 lib/built-in.o
                0x000000002404979a                rand_r
 *fill*         0x00000000240497ae        0x2 
 .text.rand     0x00000000240497b0        0xc lib/built-in.o
                0x00000000240497b0                rand
 .text.panic_finish
                0x00000000240497bc       0x20 lib/built-in.o
 .text.panic_str
                0x00000000240497dc        0xa lib/built-in.o
                0x00000000240497dc                panic_str
 .text.panic    0x00000000240497e6       0x14 lib/built-in.o
                0x00000000240497e6                panic
 .text.put_dec_trunc
                0x00000000240497fa       0x94 lib/built-in.o
 *fill*         0x000000002404988e        0x2 
 .text.put_dec  0x0000000024049890      0x11c lib/built-in.o
 .text.number   0x00000000240499ac      0x204 lib/built-in.o
 .text.string   0x0000000024049bb0       0x9c lib/built-in.o
 .text.vsnprintf_internal
                0x0000000024049c4c      0x4ec lib/built-in.o
 .text.vscnprintf
                0x000000002404a138       0x16 lib/built-in.o
                0x000000002404a138                vscnprintf
 .text.snprintf
                0x000000002404a14e       0x1a lib/built-in.o
                0x000000002404a14e                snprintf
 .text.vsprintf
                0x000000002404a168        0xc lib/built-in.o
                0x000000002404a168                vsprintf
 .text.sprintf  0x000000002404a174       0x1a lib/built-in.o
                0x000000002404a174                sprintf
 .text.printf   0x000000002404a18e       0x2e lib/built-in.o
                0x000000002404a18e                printf
 .text.vprintf  0x000000002404a1bc       0x22 lib/built-in.o
                0x000000002404a1bc                vprintf
 *fill*         0x000000002404a1de        0x2 
 .text.simple_itoa
                0x000000002404a1e0       0x2c lib/built-in.o
                0x000000002404a1e0                simple_itoa
 .text.str2off  0x000000002404a20c       0x24 lib/built-in.o
                0x000000002404a20c                str2off
 .text._parse_integer_fixup_radix
                0x000000002404a230       0x5c lib/built-in.o
 .text.simple_strtoul
                0x000000002404a28c       0x50 lib/built-in.o
                0x000000002404a28c                simple_strtoul
 .text.strict_strtoul
                0x000000002404a2dc       0x42 lib/built-in.o
                0x000000002404a2dc                strict_strtoul
 .text.simple_strtol
                0x000000002404a31e       0x1a lib/built-in.o
                0x000000002404a31e                simple_strtol
 .text.ustrtoul
                0x000000002404a338       0x4c lib/built-in.o
                0x000000002404a338                ustrtoul
 .text.simple_strtoull
                0x000000002404a384       0x64 lib/built-in.o
                0x000000002404a384                simple_strtoull
 .text.ustrtoull
                0x000000002404a3e8       0x5c lib/built-in.o
                0x000000002404a3e8                ustrtoull
 .text.trailing_strtoln
                0x000000002404a444       0x44 lib/built-in.o
                0x000000002404a444                trailing_strtoln
 .text.trailing_strtol
                0x000000002404a488        0x6 lib/built-in.o
                0x000000002404a488                trailing_strtol
 .text.compute_ip_checksum
                0x000000002404a48e       0x44 net/built-in.o
                0x000000002404a48e                compute_ip_checksum
 .text.ip_checksum_ok
                0x000000002404a4d2       0x14 net/built-in.o
                0x000000002404a4d2                ip_checksum_ok
 *fill*         0x000000002404a4e6        0x2 
 .text.arp_init
                0x000000002404a4e8       0x38 net/built-in.o
                0x000000002404a4e8                arp_init
 .text.arp_raw_request
                0x000000002404a520       0x94 net/built-in.o
                0x000000002404a520                arp_raw_request
 .text.arp_request
                0x000000002404a5b4       0x54 net/built-in.o
                0x000000002404a5b4                arp_request
 .text.arp_timeout_check
                0x000000002404a608       0x58 net/built-in.o
                0x000000002404a608                arp_timeout_check
 .text.arp_receive
                0x000000002404a660      0x17c net/built-in.o
                0x000000002404a660                arp_receive
 .text.arp_is_waiting
                0x000000002404a7dc       0x10 net/built-in.o
                0x000000002404a7dc                arp_is_waiting
 .text.bootp_handler
                0x000000002404a7ec      0x290 net/built-in.o
 .text.bootp_reset
                0x000000002404aa7c       0x2c net/built-in.o
                0x000000002404aa7c                bootp_reset
 .text.bootp_request
                0x000000002404aaa8      0x240 net/built-in.o
                0x000000002404aaa8                bootp_request
 .text.bootp_timeout_handler
                0x000000002404ace8       0x58 net/built-in.o
 .text.eth_get_uclass_priv
                0x000000002404ad40       0x14 net/built-in.o
 .text.eth_pre_remove
                0x000000002404ad54       0x1a net/built-in.o
 *fill*         0x000000002404ad6e        0x2 
 .text.eth_post_probe
                0x000000002404ad70       0xe8 net/built-in.o
 .text.eth_post_bind
                0x000000002404ae58       0x20 net/built-in.o
 .text.eth_write_hwaddr.isra.0
                0x000000002404ae78       0x74 net/built-in.o
 .text.on_ethaddr
                0x000000002404aeec       0x4c net/built-in.o
 .text.eth_set_current_to_next
                0x000000002404af38       0x24 net/built-in.o
                0x000000002404af38                eth_set_current_to_next
 .text.eth_get_dev
                0x000000002404af5c       0x20 net/built-in.o
                0x000000002404af5c                eth_get_dev
 .text.eth_set_dev
                0x000000002404af7c       0x24 net/built-in.o
                0x000000002404af7c                eth_set_dev
 .text.eth_pre_unbind
                0x000000002404afa0       0x18 net/built-in.o
 .text.eth_get_dev_by_name
                0x000000002404afb8       0x88 net/built-in.o
                0x000000002404afb8                eth_get_dev_by_name
 .text.eth_get_ethaddr
                0x000000002404b040       0x12 net/built-in.o
                0x000000002404b040                eth_get_ethaddr
 .text.eth_halt_state_only
                0x000000002404b052       0x16 net/built-in.o
                0x000000002404b052                eth_halt_state_only
 .text.eth_get_dev_index
                0x000000002404b068       0x16 net/built-in.o
                0x000000002404b068                eth_get_dev_index
 *fill*         0x000000002404b07e        0x2 
 .text.eth_init
                0x000000002404b080       0x94 net/built-in.o
                0x000000002404b080                eth_init
 .text.eth_is_active
                0x000000002404b114       0x20 net/built-in.o
                0x000000002404b114                eth_is_active
 .text.eth_halt
                0x000000002404b134       0x24 net/built-in.o
                0x000000002404b134                eth_halt
 .text.eth_send
                0x000000002404b158       0x32 net/built-in.o
                0x000000002404b158                eth_send
 .text.eth_rx   0x000000002404b18a       0x66 net/built-in.o
                0x000000002404b18a                eth_rx
 .text.eth_initialize
                0x000000002404b1f0       0xac net/built-in.o
                0x000000002404b1f0                eth_initialize
 .text.eth_env_get_enetaddr_by_index
                0x000000002404b29c       0x2c net/built-in.o
                0x000000002404b29c                eth_env_get_enetaddr_by_index
 .text.eth_env_set_enetaddr_by_index
                0x000000002404b2c8       0x2c net/built-in.o
                0x000000002404b2c8                eth_env_set_enetaddr_by_index
 .text.eth_common_init
                0x000000002404b2f4       0x14 net/built-in.o
                0x000000002404b2f4                eth_common_init
 .text.eth_mac_skip
                0x000000002404b308       0x2c net/built-in.o
                0x000000002404b308                eth_mac_skip
 .text.eth_get_name
                0x000000002404b334       0x18 net/built-in.o
                0x000000002404b334                eth_get_name
 .text.eth_current_changed
                0x000000002404b34c       0x5c net/built-in.o
                0x000000002404b34c                eth_current_changed
 .text.eth_try_another
                0x000000002404b3a8       0x54 net/built-in.o
                0x000000002404b3a8                eth_try_another
 .text.eth_set_current
                0x000000002404b3fc       0x58 net/built-in.o
                0x000000002404b3fc                eth_set_current
 .text.net_clear_handlers
                0x000000002404b454       0x24 net/built-in.o
 .text.start_again_timeout_handler
                0x000000002404b478        0xc net/built-in.o
 .text.dummy_handler
                0x000000002404b484        0x2 net/built-in.o
 *fill*         0x000000002404b486        0x2 
 .text.on_ipaddr
                0x000000002404b488       0x18 net/built-in.o
 .text.on_gatewayip
                0x000000002404b4a0       0x18 net/built-in.o
 .text.on_netmask
                0x000000002404b4b8       0x18 net/built-in.o
 .text.on_serverip
                0x000000002404b4d0       0x18 net/built-in.o
 .text.net_init_loop
                0x000000002404b4e8       0x20 net/built-in.o
 .text.net_init
                0x000000002404b508       0x50 net/built-in.o
                0x000000002404b508                net_init
 .text.net_start_again
                0x000000002404b558       0xec net/built-in.o
                0x000000002404b558                net_start_again
 .text.net_set_udp_handler
                0x000000002404b644       0x18 net/built-in.o
                0x000000002404b644                net_set_udp_handler
 .text.net_get_arp_handler
                0x000000002404b65c        0xc net/built-in.o
                0x000000002404b65c                net_get_arp_handler
 .text.net_set_timeout_handler
                0x000000002404b668       0x34 net/built-in.o
                0x000000002404b668                net_set_timeout_handler
 .text.net_get_async_tx_pkt_buf
                0x000000002404b69c       0x1c net/built-in.o
                0x000000002404b69c                net_get_async_tx_pkt_buf
 .text.net_process_received_packet
                0x000000002404b6b8      0x1bc net/built-in.o
                0x000000002404b6b8                net_process_received_packet
 .text.net_eth_hdr_size
                0x000000002404b874       0x2c net/built-in.o
                0x000000002404b874                net_eth_hdr_size
 .text.net_set_ether
                0x000000002404b8a0       0x70 net/built-in.o
                0x000000002404b8a0                net_set_ether
 .text.net_update_ether
                0x000000002404b910       0x60 net/built-in.o
                0x000000002404b910                net_update_ether
 .text.net_set_ip_header
                0x000000002404b970       0x74 net/built-in.o
                0x000000002404b970                net_set_ip_header
 .text.net_set_udp_header
                0x000000002404b9e4       0x5c net/built-in.o
                0x000000002404b9e4                net_set_udp_header
 .text.net_send_ip_packet
                0x000000002404ba40       0xc4 net/built-in.o
                0x000000002404ba40                net_send_ip_packet
 .text.net_send_udp_packet
                0x000000002404bb04       0x1c net/built-in.o
                0x000000002404bb04                net_send_udp_packet
 .text.copy_filename
                0x000000002404bb20       0x30 net/built-in.o
                0x000000002404bb20                copy_filename
 .text.is_serverip_in_cmd
                0x000000002404bb50       0x18 net/built-in.o
                0x000000002404bb50                is_serverip_in_cmd
 .text.net_check_prereq
                0x000000002404bb68       0x94 net/built-in.o
 .text.net_auto_load
                0x000000002404bbfc       0x68 net/built-in.o
                0x000000002404bbfc                net_auto_load
 .text.net_loop
                0x000000002404bc64      0x190 net/built-in.o
                0x000000002404bc64                net_loop
 .text.net_parse_bootfile
                0x000000002404bdf4       0x50 net/built-in.o
                0x000000002404bdf4                net_parse_bootfile
 .text.ip_to_string
                0x000000002404be44       0x28 net/built-in.o
                0x000000002404be44                ip_to_string
 .text.string_to_vlan
                0x000000002404be6c       0x28 net/built-in.o
                0x000000002404be6c                string_to_vlan
 .text.on_nvlan
                0x000000002404be94       0x18 net/built-in.o
 .text.on_vlan  0x000000002404beac       0x18 net/built-in.o
 .text.rpc_lookup_reply
                0x000000002404bec4       0x68 net/built-in.o
 .text.nfs_mount_reply
                0x000000002404bf2c       0x60 net/built-in.o
 .text.nfs_umountall_reply
                0x000000002404bf8c       0x58 net/built-in.o
 .text.nfs_lookup_reply
                0x000000002404bfe4       0xac net/built-in.o
 .text.nfs3_get_attributes_offset
                0x000000002404c090        0xc net/built-in.o
 .text.nfs_readlink_reply
                0x000000002404c09c       0xc4 net/built-in.o
 .text.basename
                0x000000002404c160       0x20 net/built-in.o
 .text.rpc_req  0x000000002404c180       0xc4 net/built-in.o
 .text.nfs_mount_req
                0x000000002404c244       0x88 net/built-in.o
 .text.nfs_read_reply.constprop.0
                0x000000002404c2cc      0x108 net/built-in.o
 .text.nfs_readlink_req
                0x000000002404c3d4       0x84 net/built-in.o
 .text.nfs_read_req
                0x000000002404c458       0xa4 net/built-in.o
 .text.nfs_lookup_req
                0x000000002404c4fc      0x10c net/built-in.o
 .text.nfs_umountall_req
                0x000000002404c608       0x54 net/built-in.o
 .text.nfs_send
                0x000000002404c65c       0xe8 net/built-in.o
 .text.nfs_handler
                0x000000002404c744      0x178 net/built-in.o
 .text.nfs_timeout_handler
                0x000000002404c8bc       0x4c net/built-in.o
 .text.nfs_start
                0x000000002404c908      0x168 net/built-in.o
                0x000000002404c908                nfs_start
 .text.tftp_send
                0x000000002404ca70      0x120 net/built-in.o
 .text.tftp_handler
                0x000000002404cb90      0x284 net/built-in.o
 .text.tftp_timeout_handler
                0x000000002404ce14       0x64 net/built-in.o
 .text.tftp_start
                0x000000002404ce78      0x284 net/built-in.o
                0x000000002404ce78                tftp_start
                0x000000002404d0fc                . = ALIGN (0x4)

.rodata         0x000000002404d100    0x1ae57
 *(SORT_BY_ALIGNMENT(SORT_BY_NAME(.rodata*)))
 .rodata.partition_basic_data_guid
                0x000000002404d100       0x10 disk/built-in.o
 .rodata.system_guid
                0x000000002404d110       0x10 disk/built-in.o
 .rodata        0x000000002404d120       0x18 drivers/built-in.o
 .rodata.CSWTCH.185
                0x000000002404d138       0x74 common/built-in.o
 .rodata.CSWTCH.2
                0x000000002404d1ac       0x18 arch/arm/cpu/armv7m/built-in.o
 .rodata.CSWTCH.29
                0x000000002404d1c4       0x20 disk/built-in.o
 .rodata.CSWTCH.32
                0x000000002404d1e4       0x20 common/built-in.o
 .rodata.CSWTCH.50
                0x000000002404d204       0x14 fs/built-in.o
 .rodata.CSWTCH.52
                0x000000002404d218        0xc fs/built-in.o
 .rodata.CSWTCH.56
                0x000000002404d224       0x30 fs/built-in.o
 .rodata.CSWTCH.61
                0x000000002404d254        0xc fs/built-in.o
 .rodata.CSWTCH.68
                0x000000002404d260       0x18 fs/built-in.o
 .rodata.boot_os
                0x000000002404d278       0x60 common/built-in.o
 .rodata.clk_fixed_factor_match
                0x000000002404d2d8       0x10 drivers/built-in.o
 .rodata.clk_fixed_factor_ops
                0x000000002404d2e8       0x20 drivers/built-in.o
                0x000000002404d2e8                clk_fixed_factor_ops
 .rodata.clk_fixed_rate_match
                0x000000002404d308       0x10 drivers/built-in.o
 .rodata.clk_fixed_rate_ops
                0x000000002404d318       0x20 drivers/built-in.o
                0x000000002404d318                clk_fixed_rate_ops
 .rodata.clk_map
                0x000000002404d338      0x510 drivers/built-in.o
 .rodata.colors
                0x000000002404d848       0xc0 drivers/built-in.o
 .rodata.crc32table_le
                0x000000002404d908      0x400 drivers/mtd/ubi/built-in.o
 .rodata.crc_table
                0x000000002404dd08      0x400 lib/built-in.o
 .rodata.desc_and_len_tbl
                0x000000002404e108       0x30 cmd/built-in.o
 .rodata.env_flags_varaccess_mask
                0x000000002404e138       0x10 env/built-in.o
 .rodata.eqos_ids
                0x000000002404e148       0x20 drivers/net/built-in.o
 .rodata.eqos_ops
                0x000000002404e168       0x20 drivers/net/built-in.o
 .rodata.eqos_stm32_config
                0x000000002404e188       0x1c drivers/net/built-in.o
 .rodata.eqos_tegra186_config
                0x000000002404e1a4       0x1c drivers/net/built-in.o
 .rodata.ext_csd_bus_width
                0x000000002404e1c0       0x3c drivers/built-in.o
 .rodata.fbase  0x000000002404e1fc       0x10 drivers/built-in.o
 .rodata.fdt_errtable
                0x000000002404e20c       0x48 lib/built-in.o
 .rodata.fdt_member_table
                0x000000002404e254       0x28 cmd/built-in.o
 .rodata.freqs.3
                0x000000002404e27c       0x34 drivers/built-in.o
 .rodata.generic_simple_bus_ids
                0x000000002404e2b0       0x18 drivers/built-in.o
 .rodata.generic_syscon_ids
                0x000000002404e2c8       0x10 drivers/built-in.o
 .rodata.gpio_backlight_ids
                0x000000002404e2d8       0x10 drivers/built-in.o
 .rodata.gpio_backlight_ops
                0x000000002404e2e8        0x8 drivers/built-in.o
 .rodata.gpio_stm32_ops
                0x000000002404e2f0       0x28 drivers/gpio/built-in.o
 .rodata.hwcaps_pp2cmd.0
                0x000000002404e318       0x38 drivers/mtd/spi/built-in.o
 .rodata.hwcaps_read2cmd.1
                0x000000002404e350       0x78 drivers/mtd/spi/built-in.o
 .rodata.if_type_uclass_id
                0x000000002404e3c8       0x34 drivers/built-in.o
 .rodata.if_typename_str
                0x000000002404e3fc       0x34 drivers/built-in.o
 .rodata.init_sequence_f
                0x000000002404e430       0xb8 common/built-in.o
 .rodata.mmc_blk_ops
                0x000000002404e4e8       0x10 drivers/built-in.o
 .rodata.mmc_modes_by_pref
                0x000000002404e4f8       0x20 drivers/built-in.o
 .rodata.mmc_versions.2
                0x000000002404e518       0x24 drivers/built-in.o
 .rodata.mod_exp_ops_sw
                0x000000002404e53c        0x4 drivers/built-in.o
 .rodata.mon_lengths.8
                0x000000002404e540       0x60 fs/built-in.o
 .rodata.names.4
                0x000000002404e5a0       0x34 drivers/built-in.o
 .rodata.op_adv
                0x000000002404e5d4      0x100 cmd/built-in.o
                0x000000002404e5d4                op_adv
 .rodata.op_table
                0x000000002404e6d4       0x68 cmd/built-in.o
 .rodata.phy_interface_strings
                0x000000002404e73c       0x58 drivers/net/phy/built-in.o
 .rodata.pinmux_mode
                0x000000002404e794       0x14 drivers/built-in.o
 .rodata.pllsrc_name
                0x000000002404e7a8       0x18 drivers/built-in.o
 .rodata.reg_0_5_desc_tbl
                0x000000002404e7c0       0x30 cmd/built-in.o
 .rodata.reg_0_desc_tbl
                0x000000002404e7f0       0x78 cmd/built-in.o
 .rodata.reg_1_desc_tbl
                0x000000002404e868       0xc0 cmd/built-in.o
 .rodata.reg_2_desc_tbl
                0x000000002404e928        0xc cmd/built-in.o
 .rodata.reg_3_desc_tbl
                0x000000002404e934       0x24 cmd/built-in.o
 .rodata.reg_4_desc_tbl
                0x000000002404e958       0x90 cmd/built-in.o
 .rodata.reg_5_desc_tbl
                0x000000002404e9e8       0x90 cmd/built-in.o
 .rodata.root_info
                0x000000002404ea78        0x8 drivers/built-in.o
 .rodata.sd_au_size.1
                0x000000002404ea80       0x40 drivers/built-in.o
 .rodata.sd_modes_by_pref
                0x000000002404eac0       0x10 drivers/built-in.o
 .rodata.simple_panel_ids
                0x000000002404ead0       0x28 drivers/built-in.o
 .rodata.simple_panel_ops
                0x000000002404eaf8        0xc drivers/built-in.o
 .rodata.spi_flash_std_ids
                0x000000002404eb04       0x18 drivers/mtd/spi/built-in.o
 .rodata.spi_flash_std_ops
                0x000000002404eb1c       0x10 drivers/mtd/spi/built-in.o
 .rodata.spi_nor_ids
                0x000000002404eb2c      0x960 drivers/mtd/spi/built-in.o
                0x000000002404eb2c                spi_nor_ids
 .rodata.stm32_fmc_ids
                0x000000002404f48c       0x18 drivers/built-in.o
 .rodata.stm32_gpio_ids
                0x000000002404f4a4       0x10 drivers/gpio/built-in.o
 .rodata.stm32_ltdc_ids
                0x000000002404f4b4       0x10 drivers/built-in.o
 .rodata.stm32_pinctrl_ids
                0x000000002404f4c4       0x38 drivers/built-in.o
 .rodata.stm32_qspi_ids
                0x000000002404f4fc       0x20 drivers/spi/built-in.o
 .rodata.stm32_qspi_ops
                0x000000002404f51c       0x20 drivers/spi/built-in.o
 .rodata.stm32_rcc_ids
                0x000000002404f53c       0x30 drivers/built-in.o
 .rodata.stm32_rcc_ops
                0x000000002404f56c       0x14 drivers/built-in.o
 .rodata.stm32_reset_ops
                0x000000002404f580       0x18 drivers/built-in.o
 .rodata.stm32_sdmmc2_ids
                0x000000002404f598       0x10 drivers/built-in.o
 .rodata.stm32_sdmmc2_ops
                0x000000002404f5a8       0x14 drivers/built-in.o
 .rodata.stm32_serial_id
                0x000000002404f5bc       0x20 drivers/serial/built-in.o
 .rodata.stm32_serial_ops
                0x000000002404f5dc       0x20 drivers/serial/built-in.o
 .rodata.stm32_syscon_ids
                0x000000002404f5fc       0x10 arch/arm/mach-stm32/built-in.o
 .rodata.stm32_timer_ids
                0x000000002404f60c       0x10 drivers/built-in.o
 .rodata.stm32_timer_ops
                0x000000002404f61c        0x4 drivers/built-in.o
 .rodata.ubifs_super_operations
                0x000000002404f620       0x3c fs/built-in.o
                0x000000002404f620                ubifs_super_operations
 .rodata.uimage_arch
                0x000000002404f65c      0x144 common/built-in.o
 .rodata.uimage_comp
                0x000000002404f7a0       0x54 common/built-in.o
 .rodata.uimage_os
                0x000000002404f7f4       0x90 common/built-in.o
 .rodata.uimage_type
                0x000000002404f884      0x1d4 common/built-in.o
 .rodata.year_lengths.9
                0x000000002404fa58        0x8 fs/built-in.o
 .rodata.crc16_tab
                0x000000002404fa60      0x200 lib/built-in.o
 .rodata.crc16_table
                0x000000002404fc60      0x200 fs/built-in.o
                0x000000002404fc60                crc16_table
 .rodata.dbase.2
                0x000000002404fe60       0x40 lib/built-in.o
 .rodata.dext.1
                0x000000002404fea0       0x40 lib/built-in.o
 .rodata.distfix
                0x000000002404fee0       0x80 lib/built-in.o
 .rodata.lbase.4
                0x000000002404ff60       0x3e lib/built-in.o
 .rodata.lenfix
                0x000000002404ff9e      0x800 lib/built-in.o
 .rodata.lext.3
                0x000000002405079e       0x3e lib/built-in.o
 .rodata.order.0
                0x00000000240507dc       0x26 lib/built-in.o
 .rodata        0x0000000024050802        0x3 env/built-in.o
 .rodata        0x0000000024050805       0x20 lib/built-in.o
 .rodata        0x0000000024050825        0x7 net/built-in.o
 .rodata.CSWTCH.65
                0x000000002405082c       0x16 common/built-in.o
 .rodata.__FUNCTION__.0
                0x0000000024050842       0x17 common/built-in.o
 .rodata.__FUNCTION__.2
                0x0000000024050859       0x17 common/built-in.o
 .rodata.__func__.0
                0x0000000024050870       0x16 board/emcraft/stm32h7-som/built-in.o
 .rodata.__func__.0
                0x0000000024050886       0x16 cmd/built-in.o
 .rodata.__func__.0
                0x000000002405089c        0xe common/built-in.o
 .rodata.__func__.0
                0x00000000240508aa       0x38 drivers/built-in.o
 .rodata.__func__.0
                0x00000000240508e2       0x24 drivers/mtd/built-in.o
 .rodata.__func__.0
                0x0000000024050906       0xb9 drivers/mtd/ubi/built-in.o
 .rodata.__func__.0
                0x00000000240509bf      0x130 fs/built-in.o
 .rodata.__func__.1
                0x0000000024050aef       0x13 disk/built-in.o
 .rodata.__func__.1
                0x0000000024050b02       0x14 drivers/built-in.o
 .rodata.__func__.1
                0x0000000024050b16        0xf drivers/mtd/built-in.o
 .rodata.__func__.1
                0x0000000024050b25       0x98 drivers/mtd/ubi/built-in.o
 .rodata.__func__.1
                0x0000000024050bbd      0x12c fs/built-in.o
 .rodata.__func__.10
                0x0000000024050ce9        0xe disk/built-in.o
 .rodata.__func__.10
                0x0000000024050cf7       0x21 drivers/mtd/ubi/built-in.o
 .rodata.__func__.10
                0x0000000024050d18       0x94 fs/built-in.o
 .rodata.__func__.11
                0x0000000024050dac       0x37 drivers/mtd/ubi/built-in.o
 .rodata.__func__.11
                0x0000000024050de3       0x7b fs/built-in.o
 .rodata.__func__.12
                0x0000000024050e5e       0x22 drivers/mtd/ubi/built-in.o
 .rodata.__func__.12
                0x0000000024050e80       0x71 fs/built-in.o
 .rodata.__func__.13
                0x0000000024050ef1       0x21 drivers/mtd/ubi/built-in.o
 .rodata.__func__.13
                0x0000000024050f12       0x66 fs/built-in.o
 .rodata.__func__.14
                0x0000000024050f78       0x22 drivers/mtd/ubi/built-in.o
 .rodata.__func__.14
                0x0000000024050f9a       0x82 fs/built-in.o
 .rodata.__func__.15
                0x000000002405101c       0x1d drivers/mtd/ubi/built-in.o
 .rodata.__func__.15
                0x0000000024051039       0x60 fs/built-in.o
 .rodata.__func__.16
                0x0000000024051099       0x21 drivers/mtd/ubi/built-in.o
 .rodata.__func__.16
                0x00000000240510ba       0x5b fs/built-in.o
 .rodata.__func__.17
                0x0000000024051115       0x27 drivers/mtd/ubi/built-in.o
 .rodata.__func__.17
                0x000000002405113c       0x42 fs/built-in.o
 .rodata.__func__.18
                0x000000002405117e       0x23 drivers/mtd/ubi/built-in.o
 .rodata.__func__.18
                0x00000000240511a1       0x23 fs/built-in.o
 .rodata.__func__.19
                0x00000000240511c4       0x1e drivers/mtd/ubi/built-in.o
 .rodata.__func__.19
                0x00000000240511e2       0x1b fs/built-in.o
 .rodata.__func__.2
                0x00000000240511fd        0xc disk/built-in.o
 .rodata.__func__.2
                0x0000000024051209        0xd drivers/built-in.o
 .rodata.__func__.2
                0x0000000024051216       0x93 drivers/mtd/ubi/built-in.o
 .rodata.__func__.2
                0x00000000240512a9      0x11d fs/built-in.o
 .rodata.__func__.20
                0x00000000240513c6       0x1b drivers/mtd/ubi/built-in.o
 .rodata.__func__.21
                0x00000000240513e1        0x8 drivers/mtd/ubi/built-in.o
 .rodata.__func__.21
                0x00000000240513e9        0xe fs/built-in.o
 .rodata.__func__.22
                0x00000000240513f7        0xe drivers/mtd/ubi/built-in.o
 .rodata.__func__.22
                0x0000000024051405        0x8 fs/built-in.o
 .rodata.__func__.23
                0x000000002405140d       0x11 fs/built-in.o
 .rodata.__func__.24
                0x000000002405141e       0x14 fs/built-in.o
 .rodata.__func__.25
                0x0000000024051432        0xf fs/built-in.o
 .rodata.__func__.3
                0x0000000024051441       0x18 common/built-in.o
 .rodata.__func__.3
                0x0000000024051459       0x13 disk/built-in.o
 .rodata.__func__.3
                0x000000002405146c       0x18 drivers/built-in.o
 .rodata.__func__.3
                0x0000000024051484       0x79 drivers/mtd/ubi/built-in.o
 .rodata.__func__.3
                0x00000000240514fd      0x134 fs/built-in.o
 .rodata.__func__.4
                0x0000000024051631       0x12 disk/built-in.o
 .rodata.__func__.4
                0x0000000024051643       0x18 drivers/built-in.o
 .rodata.__func__.4
                0x000000002405165b       0x96 drivers/mtd/ubi/built-in.o
 .rodata.__func__.4
                0x00000000240516f1      0x13c fs/built-in.o
 .rodata.__func__.5
                0x000000002405182d       0x11 drivers/built-in.o
 .rodata.__func__.5
                0x000000002405183e       0x69 drivers/mtd/ubi/built-in.o
 .rodata.__func__.5
                0x00000000240518a7      0x118 fs/built-in.o
 .rodata.__func__.6
                0x00000000240519bf        0xd disk/built-in.o
 .rodata.__func__.6
                0x00000000240519cc        0xd drivers/built-in.o
 .rodata.__func__.6
                0x00000000240519d9       0x75 drivers/mtd/ubi/built-in.o
 .rodata.__func__.6
                0x0000000024051a4e      0x10a fs/built-in.o
 .rodata.__func__.7
                0x0000000024051b58        0xf disk/built-in.o
 .rodata.__func__.7
                0x0000000024051b67       0x58 drivers/mtd/ubi/built-in.o
 .rodata.__func__.7
                0x0000000024051bbf       0xdb fs/built-in.o
 .rodata.__func__.8
                0x0000000024051c9a       0x17 disk/built-in.o
 .rodata.__func__.8
                0x0000000024051cb1       0x39 drivers/mtd/ubi/built-in.o
 .rodata.__func__.8
                0x0000000024051cea       0xb3 fs/built-in.o
 .rodata.__func__.9
                0x0000000024051d9d        0xd disk/built-in.o
 .rodata.__func__.9
                0x0000000024051daa       0x5b drivers/mtd/ubi/built-in.o
 .rodata.__func__.9
                0x0000000024051e05       0xa6 fs/built-in.o
 .rodata.__put_mtd_device.str1.1
                0x0000000024051eab       0x2f drivers/mtd/built-in.o
 .rodata._ctype
                0x0000000024051eda      0x100 lib/built-in.o
                0x0000000024051eda                _ctype
 .rodata._do_env_set.constprop.0.str1.1
                0x0000000024051fda       0x7c cmd/built-in.o
 .rodata._do_help.str1.1
                0x0000000024052056       0x5f common/built-in.o
 .rodata._stm32_qspi_gen_ccr_w25n01.isra.0.str1.1
                0x00000000240520b5       0x20 drivers/spi/built-in.o
 .rodata.add_mtd_device.str1.1
                0x00000000240520d5       0x28 drivers/mtd/built-in.o
 .rodata.add_mtd_partitions.str1.1
                0x00000000240520fd      0x188 drivers/mtd/built-in.o
 .rodata.add_to_list.str1.1
                0x0000000024052285       0x19 drivers/mtd/ubi/built-in.o
                                         0x32 (size before relaxing)
 .rodata.announce_dram_init.str1.1
                0x000000002405229e        0x8 common/built-in.o
 .rodata.arch_early_init_r.str1.1
                0x00000000240522a6       0x35 board/emcraft/stm32h7-som/built-in.o
 .rodata.arp_receive.str1.1
                0x00000000240522db       0x14 net/built-in.o
 .rodata.arp_request.str1.1
                0x00000000240522ef       0x2a net/built-in.o
 .rodata.arp_timeout_check.str1.1
                0x0000000024052319       0x2b net/built-in.o
 .rodata.autoboot_command.str1.1
                0x0000000024052344       0x31 common/built-in.o
 .rodata.b_addqchr.isra.0.str1.1
                0x0000000024052375        0x5 common/built-in.o
 .rodata.bad_mode.str1.1
                0x000000002405237a       0x13 arch/arm/lib/built-in.o
 .rodata.binary_test.str1.1
                0x000000002405238d       0x17 cmd/built-in.o
 .rodata.blk_create_devicef.str1.1
                0x00000000240523a4        0x6 drivers/built-in.o
 .rodata.blk_get_device_by_str.str1.1
                0x00000000240523aa       0x52 disk/built-in.o
 .rodata.blk_get_device_part_str.str1.1
                0x00000000240523fc      0x10b disk/built-in.o
                                        0x14b (size before relaxing)
 .rodata.blkc_configure.str1.1
                0x0000000024052507       0x30 cmd/built-in.o
 .rodata.blkc_show.str1.1
                0x0000000024052537       0x4c cmd/built-in.o
 .rodata.board_init_f.str1.1
                0x0000000024052583       0x31 common/built-in.o
 .rodata.board_init_r.str1.1
                0x00000000240525b4       0x31 common/built-in.o
 .rodata.board_late_init.str1.1
                0x00000000240525b4       0xc3 board/emcraft/stm32h7-som/built-in.o
 .rodata.boot_fdt_add_mem_rsv_regions.str1.1
                0x0000000024052677       0x52 common/built-in.o
                                         0x56 (size before relaxing)
 .rodata.boot_get_fdt.str1.1
                0x00000000240526c9       0xfd common/built-in.o
                                        0x101 (size before relaxing)
 .rodata.boot_get_fdt_fit.str1.1
                0x00000000240527c6       0x4f common/built-in.o
 .rodata.boot_get_loadable.str1.1
                0x0000000024052815       0x3e common/built-in.o
 .rodata.boot_get_ramdisk.str1.1
                0x0000000024052853       0x64 common/built-in.o
                                         0x6e (size before relaxing)
 .rodata.boot_get_setup_fit.str1.1
                0x00000000240528b7      0x1cd common/built-in.o
                                          0x6 (size before relaxing)
 .rodata.boot_jump_linux.str1.1
                0x00000000240528b7       0x5c arch/arm/lib/built-in.o
                                         0x5d (size before relaxing)
 .rodata.boot_prep_linux.str1.1
                0x0000000024052913       0x20 arch/arm/lib/built-in.o
                                         0x29 (size before relaxing)
 .rodata.boot_prep_vxworks.str1.1
                0x0000000024052933       0x2a arch/arm/lib/built-in.o
 .rodata.boot_ramdisk_high.str1.1
                0x000000002405295d       0x54 common/built-in.o
                                         0x58 (size before relaxing)
 .rodata.boot_relocate_fdt.str1.1
                0x00000000240529b1       0xcf common/built-in.o
                                         0xd3 (size before relaxing)
 .rodata.bootcount_store.str1.1
                0x0000000024052a80       0x12 drivers/built-in.o
                                         0x1c (size before relaxing)
 .rodata.bootdelay_process.str1.1
                0x0000000024052a92       0x8f common/built-in.o
                                         0x99 (size before relaxing)
 .rodata.bootm_decomp_image.str1.1
                0x0000000024052b21       0x99 common/built-in.o
                                         0xc0 (size before relaxing)
 .rodata.bootm_find_images.str1.1
                0x0000000024052bba       0x6c common/built-in.o
 .rodata.bootm_maybe_autostart.str1.1
                0x0000000024052c26       0x3b cmd/built-in.o
 .rodata.bootp_handler.str1.1
                0x0000000024052c61       0x5c net/built-in.o
                                         0x65 (size before relaxing)
 .rodata.bootp_request.str1.1
                0x0000000024052cbd       0x3c net/built-in.o
 .rodata.bootp_timeout_handler.str1.1
                0x0000000024052cf9       0x26 net/built-in.o
 .rodata.calculate_hash.str1.1
                0x0000000024052d1f        0x4 common/built-in.o
                                         0x16 (size before relaxing)
 .rodata.check_lpt_crc.str1.1
                0x0000000024052d23       0x4e fs/built-in.o
 .rodata.check_lpt_type.constprop.0.str1.1
                0x0000000024052d71       0x4a fs/built-in.o
 .rodata.check_reserved.str1.1
                0x0000000024052dbb       0x27 drivers/gpio/built-in.o
                                         0x28 (size before relaxing)
 .rodata.clear_update_marker.str1.1
                0x0000000024052de2       0x28 drivers/mtd/ubi/built-in.o
 .rodata.cli_process_fdt.str1.1
                0x0000000024052de2        0xb common/built-in.o
                                         0x13 (size before relaxing)
 .rodata.cli_readline_into_buffer.str1.1
                0x0000000024052ded        0x7 common/built-in.o
                                          0x8 (size before relaxing)
 .rodata.cli_secure_boot_cmd.str1.1
                0x0000000024052df4       0x50 common/built-in.o
 .rodata.clk_fixed_factor_ofdata_to_platdata.str1.1
                0x0000000024052e44       0x15 drivers/built-in.o
 .rodata.clk_fixed_rate_ofdata_to_platdata.str1.1
                0x0000000024052e59       0x10 drivers/built-in.o
 .rodata.clk_get_by_index.str1.1
                0x0000000024052e69        0xd drivers/built-in.o
                                          0x7 (size before relaxing)
 .rodata.clk_get_by_indexed_prop.str1.1
                0x0000000024052e69        0xd drivers/built-in.o
 .rodata.clk_get_by_name.str1.1
                0x0000000024052e76        0xc drivers/built-in.o
 .rodata.clk_set_defaults.str1.1
                0x0000000024052e82       0x3c drivers/built-in.o
 .rodata.cmd_auto_complete.str1.1
                0x0000000024052ebe       0x5f common/built-in.o
                                         0x1d (size before relaxing)
 .rodata.cmd_process.str1.1
                0x0000000024052ebe       0x3f common/built-in.o
 .rodata.cmd_process_error.str1.1
                0x0000000024052efd       0x1f common/built-in.o
 .rodata.cmd_ubifs_umount.str1.1
                0x0000000024052f1c       0x1a cmd/built-in.o
 .rodata.cmd_usage.str1.1
                0x0000000024052f36       0x36 common/built-in.o
 .rodata.compile.str1.1
                0x0000000024052f6c       0x4a lib/built-in.o
 .rodata.complete_subcmdv.str1.1
                0x0000000024052fb6        0x4 common/built-in.o
 .rodata.console_announce_r.str1.1
                0x0000000024052fb6        0x7 common/built-in.o
 .rodata.cread_add_char.str1.1
                0x0000000024052fbd        0x5 common/built-in.o
 .rodata.day_name.7
                0x0000000024052fc2       0x15 fs/built-in.o
 .rodata.dbg_jhead.str1.1
                0x0000000024052fd7       0x15 fs/built-in.o
 .rodata.dbg_ntype.str1.1
                0x0000000024052fec        0xd fs/built-in.o
 .rodata.dbg_snprintf_key.str1.1
                0x0000000024052ff9       0x67 fs/built-in.o
                                         0x8d (size before relaxing)
 .rodata.dcache_disable.str1.1
                0x0000000024053060       0x1a arch/arm/cpu/armv7m/built-in.o
 .rodata.dcache_enable.str1.1
                0x000000002405307a       0x1a arch/arm/cpu/armv7m/built-in.o
 .rodata.default_environment
                0x0000000024053094      0xaf4 env/built-in.o
                0x0000000024053094                default_environment
 .rodata.del_mtd_device.str1.1
                0x0000000024053b88       0x30 drivers/mtd/built-in.o
 .rodata.del_mtd_partitions.str1.1
                0x0000000024053bb8       0x29 drivers/mtd/built-in.o
 .rodata.dev_get_platdata.str1.1
                0x0000000024053be1       0x11 drivers/built-in.o
 .rodata.dev_print.str1.1
                0x0000000024053bf2      0x165 disk/built-in.o
                                        0x176 (size before relaxing)
 .rodata.devfdt_get_addr_index.str1.1
                0x0000000024053d57        0x4 drivers/built-in.o
 .rodata.device_bind_common.constprop.0.str1.1
                0x0000000024053d57       0x5b drivers/built-in.o
 .rodata.device_probe.str1.1
                0x0000000024053db2       0x30 drivers/built-in.o
                                         0x38 (size before relaxing)
 .rodata.device_remove.str1.1
                0x0000000024053de2       0x98 drivers/built-in.o
 .rodata.digits.1
                0x0000000024053e7a       0x10 lib/built-in.o
 .rodata.display_options.str1.1
                0x0000000024053e8a        0x3 lib/built-in.o
 .rodata.display_options_get_banner_priv.str1.1
                0x0000000024053e8a       0x11 lib/built-in.o
                                         0x15 (size before relaxing)
 .rodata.dm_dump_all.str1.1
                0x0000000024053e9b       0x73 drivers/built-in.o
 .rodata.dm_dump_uclass.str1.1
                0x0000000024053f0e       0x33 drivers/built-in.o
                                         0x35 (size before relaxing)
 .rodata.dm_extended_scan_fdt.str1.1
                0x0000000024053f41       0x12 drivers/built-in.o
 .rodata.dm_fdt_pre_reloc.str1.1
                0x0000000024053f53       0x30 drivers/built-in.o
 .rodata.dm_gpio_get_value.str1.1
                0x0000000024053f83        0xa drivers/gpio/built-in.o
 .rodata.dm_gpio_set_dir_flags.str1.1
                0x0000000024053f8d        0x8 drivers/gpio/built-in.o
 .rodata.dm_gpio_set_value.str1.1
                0x0000000024053f95        0xa drivers/gpio/built-in.o
 .rodata.dm_init.str1.1
                0x0000000024053f9f       0x25 drivers/built-in.o
 .rodata.dm_root.str1.1
                0x0000000024053fc4       0x25 drivers/built-in.o
 .rodata.dm_scan_fdt_node.str1.1
                0x0000000024053fe9       0x1d drivers/built-in.o
                                         0x2d (size before relaxing)
 .rodata.dm_scan_platdata.str1.1
                0x0000000024054006       0x1d drivers/built-in.o
 .rodata.dm_timer_init.str1.1
                0x0000000024054023        0xb drivers/built-in.o
 .rodata.do_bdinfo.str1.1
                0x000000002405402e       0x9e cmd/built-in.o
 .rodata.do_bootd.str1.1
                0x00000000240540cc       0x2a cmd/built-in.o
                                          0x8 (size before relaxing)
 .rodata.do_bootelf.str1.1
                0x00000000240540cc       0x52 cmd/built-in.o
                                         0x5c (size before relaxing)
 .rodata.do_bootm.str1.1
                0x000000002405411e       0x2a cmd/built-in.o
 .rodata.do_bootm_netbsd.str1.1
                0x0000000024054148       0x49 common/built-in.o
                                         0x4a (size before relaxing)
 .rodata.do_bootm_plan9.str1.1
                0x0000000024054191       0x43 common/built-in.o
 .rodata.do_bootm_qnxelf.str1.1
                0x00000000240541d4        0x4 common/built-in.o
 .rodata.do_bootm_rtems.str1.1
                0x00000000240541d4       0x39 common/built-in.o
 .rodata.do_bootm_standalone.str1.1
                0x000000002405420d       0x16 common/built-in.o
 .rodata.do_bootm_states.str1.1
                0x000000002405420d      0x236 common/built-in.o
                                        0x23d (size before relaxing)
 .rodata.do_bootm_vxworks.str1.1
                0x0000000024054443       0x57 common/built-in.o
                                         0x7e (size before relaxing)
 .rodata.do_bootvx.str1.1
                0x000000002405449a      0x1c5 cmd/built-in.o
                                        0x1d0 (size before relaxing)
 .rodata.do_bus_fault.str1.1
                0x000000002405465f        0xb arch/arm/lib/built-in.o
 .rodata.do_clk_dump.str1.1
                0x000000002405466a       0x15 cmd/built-in.o
 .rodata.do_commit.str1.1
                0x000000002405467f       0x3c fs/built-in.o
                                         0x5d (size before relaxing)
 .rodata.do_coninfo.str1.1
                0x00000000240546bb       0x2c cmd/built-in.o
                                         0x30 (size before relaxing)
 .rodata.do_dcache.str1.1
                0x00000000240546e7       0x21 cmd/built-in.o
 .rodata.do_dev.str1.1
                0x0000000024054708       0x4f cmd/built-in.o
 .rodata.do_echo.str1.1
                0x0000000024054757        0x3 cmd/built-in.o
 .rodata.do_env_default.str1.1
                0x000000002405475a       0x25 cmd/built-in.o
 .rodata.do_env_edit.part.0.str1.1
                0x000000002405477f        0x7 cmd/built-in.o
                                          0xa (size before relaxing)
 .rodata.do_env_export.str1.1
                0x0000000024054786       0x6b cmd/built-in.o
                                         0x74 (size before relaxing)
 .rodata.do_env_import.str1.1
                0x00000000240547f1      0x139 cmd/built-in.o
                                        0x13b (size before relaxing)
 .rodata.do_env_print.str1.1
                0x000000002405492a       0x3d cmd/built-in.o
 .rodata.do_fat_fsinfo.str1.1
                0x0000000024054967       0x56 cmd/built-in.o
 .rodata.do_fdt.str1.1
                0x00000000240549bd      0x489 cmd/built-in.o
                                        0x4e5 (size before relaxing)
 .rodata.do_fixup_by_path.str1.1
                0x0000000024054e46       0x29 common/built-in.o
 .rodata.do_flerase.str1.1
                0x0000000024054e6f       0x73 cmd/built-in.o
                                         0x78 (size before relaxing)
 .rodata.do_flinfo.str1.1
                0x0000000024054ee2       0x37 cmd/built-in.o
 .rodata.do_go.str1.1
                0x0000000024054f19       0x4f cmd/built-in.o
 .rodata.do_gpt.str1.1
                0x0000000024054f68       0xd6 cmd/built-in.o
                                         0xef (size before relaxing)
 .rodata.do_hard_fault.str1.1
                0x000000002405503e        0xc arch/arm/lib/built-in.o
 .rodata.do_icache.str1.1
                0x000000002405504a       0x1d cmd/built-in.o
                                         0x20 (size before relaxing)
 .rodata.do_imgextract.str1.1
                0x0000000024055067      0x14b cmd/built-in.o
                                        0x1e2 (size before relaxing)
 .rodata.do_invalid_entry.str1.1
                0x00000000240551b2        0xb arch/arm/lib/built-in.o
 .rodata.do_itest.str1.1
                0x00000000240551bd       0x1e cmd/built-in.o
 .rodata.do_list.str1.1
                0x00000000240551db       0x24 cmd/built-in.o
                                         0x2b (size before relaxing)
 .rodata.do_load.str1.1
                0x00000000240551ff       0x6a fs/built-in.o
                                         0x8f (size before relaxing)
 .rodata.do_load_serial.str1.1
                0x0000000024055269       0x6b cmd/built-in.o
 .rodata.do_load_serial_bin.str1.1
                0x00000000240552d4      0x159 cmd/built-in.o
 .rodata.do_ls.str1.1
                0x000000002405542d        0x2 fs/built-in.o
 .rodata.do_mdio.str1.1
                0x000000002405542d       0x5e cmd/built-in.o
                                         0x65 (size before relaxing)
 .rodata.do_mem_base.str1.1
                0x000000002405548b       0x17 cmd/built-in.o
 .rodata.do_mem_cmp.str1.1
                0x00000000240554a2       0x6e cmd/built-in.o
                                         0x73 (size before relaxing)
 .rodata.do_mem_cp.str1.1
                0x0000000024055510       0x23 cmd/built-in.o
                                         0x29 (size before relaxing)
 .rodata.do_mem_crc.str1.1
                0x0000000024055533        0x6 cmd/built-in.o
 .rodata.do_mem_mtest.str1.1
                0x0000000024055539       0xd4 cmd/built-in.o
                                         0xd5 (size before relaxing)
 .rodata.do_mii.str1.1
                0x000000002405560d      0x294 cmd/built-in.o
                                        0x2b0 (size before relaxing)
 .rodata.do_mm_fault.str1.1
                0x00000000240558a1       0x19 arch/arm/lib/built-in.o
 .rodata.do_mmc_dev.str1.1
                0x00000000240558ba       0x83 cmd/built-in.o
 .rodata.do_mmc_erase.str1.1
                0x000000002405593d       0x67 cmd/built-in.o
 .rodata.do_mmc_hwpartition.str1.1
                0x00000000240559a4      0x126 cmd/built-in.o
                                        0x142 (size before relaxing)
 .rodata.do_mmc_part.str1.1
                0x0000000024055aca       0x15 cmd/built-in.o
 .rodata.do_mmc_read.str1.1
                0x0000000024055adf       0x43 cmd/built-in.o
 .rodata.do_mmc_setdsr.str1.1
                0x0000000024055b22       0x3d cmd/built-in.o
 .rodata.do_mmc_write.str1.1
                0x0000000024055b5f       0x47 cmd/built-in.o
 .rodata.do_mmcinfo.str1.1
                0x0000000024055ba6      0x135 cmd/built-in.o
                                        0x187 (size before relaxing)
 .rodata.do_mmcops.str1.1
                0x0000000024055cdb       0x19 cmd/built-in.o
 .rodata.do_mtd_bad.str1.1
                0x0000000024055cf4       0x58 cmd/built-in.o
 .rodata.do_mtd_erase.str1.1
                0x0000000024055d4c       0xae cmd/built-in.o
 .rodata.do_mtd_io.str1.1
                0x0000000024055dfa      0x1f3 cmd/built-in.o
                                        0x1fe (size before relaxing)
 .rodata.do_mtd_list.str1.1
                0x0000000024055fed      0x16a cmd/built-in.o
                                        0x180 (size before relaxing)
 .rodata.do_protect.str1.1
                0x0000000024056157       0x68 cmd/built-in.o
                                         0x6f (size before relaxing)
 .rodata.do_reset.str1.1
                0x00000000240561bf        0xf arch/arm/lib/built-in.o
 .rodata.do_run.str1.1
                0x00000000240561ce       0x1c common/built-in.o
 .rodata.do_showvar.str1.1
                0x00000000240561ce        0xc common/built-in.o
                                         0x2f (size before relaxing)
 .rodata.do_size.str1.1
                0x00000000240561da        0x9 fs/built-in.o
 .rodata.do_source.str1.1
                0x00000000240561da       0x1e cmd/built-in.o
 .rodata.do_spi_flash.str1.1
                0x00000000240561f8      0x1b2 cmd/built-in.o
                                        0x1de (size before relaxing)
 .rodata.do_status.str1.1
                0x00000000240563aa       0x26 cmd/built-in.o
                                         0x45 (size before relaxing)
 .rodata.do_sync_erase.str1.1
                0x00000000240563d0       0x87 drivers/mtd/ubi/built-in.o
 .rodata.do_timer.str1.1
                0x0000000024056457        0xa cmd/built-in.o
                                         0x14 (size before relaxing)
 .rodata.do_ubi.str1.1
                0x0000000024056461      0x497 cmd/built-in.o
                                        0x4b8 (size before relaxing)
 .rodata.do_ubifs_ls.str1.1
                0x00000000240568f8       0x53 cmd/built-in.o
                                         0x55 (size before relaxing)
 .rodata.do_ubifs_mkdir.str1.1
                0x000000002405694b       0x50 cmd/built-in.o
 .rodata.do_ubifs_write.str1.1
                0x000000002405699b       0x51 cmd/built-in.o
 .rodata.do_usage_fault.str1.1
                0x00000000240569ec        0xd arch/arm/lib/built-in.o
 .rodata.do_version.str1.1
                0x00000000240569f9       0x67 cmd/built-in.o
 .rodata.do_work.str1.1
                0x0000000024056a60       0x31 drivers/mtd/ubi/built-in.o
                                         0x59 (size before relaxing)
 .rodata.dram_init.str1.1
                0x0000000024056a91       0x25 board/emcraft/stm32h7-som/built-in.o
                                         0x2d (size before relaxing)
 .rodata.dump_regs.str1.1
                0x0000000024056ab6       0x6b arch/arm/lib/built-in.o
 .rodata.emit.str1.1
                0x0000000024056b21       0x1f lib/built-in.o
 .rodata.env_callback_init.str1.1
                0x0000000024056b40        0xb env/built-in.o
 .rodata.env_complete.str1.1
                0x0000000024056b4b        0x7 env/built-in.o
                                         0x10 (size before relaxing)
 .rodata.env_export.str1.1
                0x0000000024056b52       0x8d env/built-in.o
                                         0x27 (size before relaxing)
 .rodata.env_flags_init.str1.1
                0x0000000024056b52        0x7 env/built-in.o
 .rodata.env_flags_parse_varaccess.str1.1
                0x0000000024056b59       0x3d env/built-in.o
 .rodata.env_flags_parse_vartype.str1.1
                0x0000000024056b96       0x34 env/built-in.o
 .rodata.env_flags_validate.str1.1
                0x0000000024056bca       0xb2 env/built-in.o
                                         0xb3 (size before relaxing)
 .rodata.env_flags_varaccess_rep
                0x0000000024056c7c        0x5 env/built-in.o
 .rodata.env_flags_vartype_rep
                0x0000000024056c81        0x7 env/built-in.o
 .rodata.env_get_bootm_low.str1.1
                0x0000000024056c88        0xa common/built-in.o
 .rodata.env_get_bootm_mapsize.str1.1
                0x0000000024056c92        0xe common/built-in.o
 .rodata.env_get_bootm_size.str1.1
                0x0000000024056ca0        0xb common/built-in.o
 .rodata.env_get_f.str1.1
                0x0000000024056cab       0x30 cmd/built-in.o
 .rodata.env_import.str1.1
                0x0000000024056cdb       0x3d env/built-in.o
 .rodata.env_import_redund.str1.1
                0x0000000024056d18       0x8d env/built-in.o
 .rodata.env_load.str1.1
                0x0000000024056da5       0x20 env/built-in.o
                                         0x24 (size before relaxing)
 .rodata.env_print.str1.1
                0x0000000024056dc5       0x2c cmd/built-in.o
 .rodata.env_save.str1.1
                0x0000000024056df1       0x2a env/built-in.o
 .rodata.env_set.str1.1
                0x0000000024056e1b        0x7 cmd/built-in.o
 .rodata.env_set_hex.str1.1
                0x0000000024056e22        0x4 cmd/built-in.o
 .rodata.env_ubi_load.str1.1
                0x0000000024056e26       0x56 env/built-in.o
 .rodata.env_ubi_save.str1.1
                0x0000000024056e7c       0x83 env/built-in.o
                                         0x90 (size before relaxing)
 .rodata.eqos_calibrate_pads_tegra186.str1.1
                0x0000000024056eff       0x2f drivers/net/built-in.o
 .rodata.eqos_get_interface_stm32.str1.1
                0x0000000024056f2e        0x9 drivers/net/built-in.o
 .rodata.eqos_mdio_read.str1.1
                0x0000000024056f37       0x31 drivers/net/built-in.o
 .rodata.eqos_mdio_wait_idle.isra.0.str1.1
                0x0000000024056f68       0x91 drivers/net/built-in.o
                                          0x7 (size before relaxing)
 .rodata.eqos_probe.str1.1
                0x0000000024056f68       0x91 drivers/net/built-in.o
 .rodata.eqos_probe_resources_stm32.str1.1
                0x0000000024056ff9       0x60 drivers/net/built-in.o
 .rodata.eqos_probe_resources_tegra186.str1.1
                0x0000000024057059      0x129 drivers/net/built-in.o
                                        0x134 (size before relaxing)
 .rodata.eqos_set_tx_clk_speed_tegra186.str1.1
                0x0000000024057182       0x25 drivers/net/built-in.o
 .rodata.eqos_start.str1.1
                0x00000000240571a7      0x146 drivers/net/built-in.o
 .rodata.eqos_start_clks_stm32.str1.1
                0x00000000240572ed       0x80 drivers/net/built-in.o
 .rodata.eqos_start_clks_tegra186.str1.1
                0x000000002405736d       0x6d drivers/net/built-in.o
 .rodata.eqos_start_resets_tegra186.str1.1
                0x00000000240573da       0x98 drivers/net/built-in.o
 .rodata.erase_seq
                0x0000000024057472        0x4 common/built-in.o
 .rodata.erase_worker.str1.1
                0x0000000024057476      0x151 drivers/mtd/ubi/built-in.o
                                        0x180 (size before relaxing)
 .rodata.eth_current_changed.str1.1
                0x00000000240575c7       0x14 net/built-in.o
 .rodata.eth_env_get_enetaddr_by_index.str1.1
                0x00000000240575c7       0x10 net/built-in.o
 .rodata.eth_env_set_enetaddr.str1.1
                0x00000000240575d7        0x4 cmd/built-in.o
 .rodata.eth_get_name.str1.1
                0x00000000240575db        0x8 net/built-in.o
 .rodata.eth_init.str1.1
                0x00000000240575db       0x11 net/built-in.o
                                         0x28 (size before relaxing)
 .rodata.eth_initialize.str1.1
                0x00000000240575ec       0x1c net/built-in.o
                                         0x1f (size before relaxing)
 .rodata.eth_mac_skip.str1.1
                0x0000000024057608       0x18 net/built-in.o
 .rodata.eth_post_bind.str1.1
                0x0000000024057620       0x2b net/built-in.o
 .rodata.eth_post_probe.str1.1
                0x000000002405764b       0xaf net/built-in.o
                                         0xb3 (size before relaxing)
 .rodata.eth_set_current.str1.1
                0x00000000240576fa        0x9 net/built-in.o
 .rodata.eth_write_hwaddr.isra.0.str1.1
                0x00000000240576fa       0x4e net/built-in.o
 .rodata.extract_env.str1.1
                0x0000000024057748        0x3 cmd/built-in.o
 .rodata.extract_val.str1.1
                0x000000002405774b      0x14b cmd/built-in.o
                                          0x4 (size before relaxing)
 .rodata.fallible_read_node.str1.1
                0x000000002405774b       0x56 fs/built-in.o
 .rodata.fat_itr_resolve.str1.1
                0x00000000240577a1       0x85 fs/built-in.o
                                          0x5 (size before relaxing)
 .rodata.fat_itr_root.str1.1
                0x00000000240577a1       0x85 fs/built-in.o
 .rodata.fat_read_file.str1.1
                0x0000000024057826       0x1e fs/built-in.o
 .rodata.fat_set_blk_dev.str1.1
                0x0000000024057844        0x3 fs/built-in.o
                                          0xd (size before relaxing)
 .rodata.fdt_address_cells.str1.1
                0x0000000024057847        0xf lib/built-in.o
 .rodata.fdt_chosen.str1.1
                0x0000000024057856       0x35 common/built-in.o
                                         0x3e (size before relaxing)
 .rodata.fdt_error.str1.1
                0x000000002405788b       0x2d common/built-in.o
 .rodata.fdt_find_or_add_subnode.str1.1
                0x00000000240578b8        0xc common/built-in.o
 .rodata.fdt_fixup_ethernet.str1.1
                0x00000000240578c4       0x2e common/built-in.o
                                         0x42 (size before relaxing)
 .rodata.fdt_fixup_memory_banks.str1.1
                0x00000000240578f2       0x81 common/built-in.o
                                         0x94 (size before relaxing)
 .rodata.fdt_get_alias_namelen.str1.1
                0x0000000024057973        0x9 lib/built-in.o
 .rodata.fdt_get_phandle.str1.1
                0x0000000024057973       0x16 lib/built-in.o
 .rodata.fdt_initrd.str1.1
                0x0000000024057973       0x90 common/built-in.o
                                         0x97 (size before relaxing)
 .rodata.fdt_node_check_compatible.str1.1
                0x0000000024057a03        0xb lib/built-in.o
 .rodata.fdt_overlay_apply.str1.1
                0x0000000024057a03       0x38 lib/built-in.o
                                         0x51 (size before relaxing)
 .rodata.fdt_overlay_apply_verbose.str1.1
                0x0000000024057a3b       0x83 common/built-in.o
 .rodata.fdt_root.str1.1
                0x0000000024057abe       0x4e common/built-in.o
 .rodata.fdt_size_cells.str1.1
                0x0000000024057b0c        0xc lib/built-in.o
 .rodata.fdt_strerror.str1.1
                0x0000000024057b0c       0x31 lib/built-in.o
 .rodata.fdt_support_default_count_cells.str1.1
                0x0000000024057b3d        0xc common/built-in.o
 .rodata.fdt_translate_address.str1.1
                0x0000000024057b49       0x1b common/built-in.o
                                         0x22 (size before relaxing)
 .rodata.fdt_valid.str1.1
                0x0000000024057b64       0x79 cmd/built-in.o
                                         0x7b (size before relaxing)
 .rodata.fdtdec_add_aliases_for_id.str1.1
                0x0000000024057bdd        0x9 lib/built-in.o
 .rodata.fdtdec_decode_display_timing.str1.1
                0x0000000024057bdd       0xba lib/built-in.o
                                         0xca (size before relaxing)
 .rodata.fdtdec_get_chosen_prop.str1.1
                0x0000000024057c97        0x8 lib/built-in.o
 .rodata.fdtdec_get_config_int.str1.1
                0x0000000024057c97        0x8 lib/built-in.o
 .rodata.fdtdec_get_is_enabled.str1.1
                0x0000000024057c9f        0x5 lib/built-in.o
                                          0xc (size before relaxing)
 .rodata.fdtdec_prepare_fdt.str1.1
                0x0000000024057ca4       0x96 lib/built-in.o
 .rodata.fdtdec_setup.str1.1
                0x0000000024057d3a        0xf lib/built-in.o
 .rodata.fdtdec_setup_mem_size_base.str1.1
                0x0000000024057d3a        0xc lib/built-in.o
 .rodata.file_fat_detectfs.str1.1
                0x0000000024057d3a       0x64 fs/built-in.o
                                         0x84 (size before relaxing)
 .rodata.file_fat_read_at.str1.1
                0x0000000024057d9e       0x2a fs/built-in.o
 .rodata.file_get.str1.1
                0x0000000024057dc8       0x16 common/built-in.o
                                         0x19 (size before relaxing)
 .rodata.fill_gap.str1.1
                0x0000000024057dde       0x35 fs/built-in.o
                                         0x56 (size before relaxing)
 .rodata.find_mmc_device.str1.1
                0x0000000024057e13       0x19 drivers/built-in.o
 .rodata.first_dirty_cnode.str1.1
                0x0000000024057e2c       0x21 fs/built-in.o
 .rodata.fit_all_image_verify.str1.1
                0x0000000024057e2c       0x51 common/built-in.o
 .rodata.fit_config_check_sig.str1.1
                0x0000000024057e7d       0xd4 common/built-in.o
                                         0xd9 (size before relaxing)
 .rodata.fit_config_verify_required_sigs.str1.1
                0x0000000024057f51       0x38 common/built-in.o
 .rodata.fit_get_desc.str1.1
                0x0000000024057f89        0xc common/built-in.o
 .rodata.fit_image_check_sig.str1.1
                0x0000000024057f95       0x14 common/built-in.o
                                         0x32 (size before relaxing)
 .rodata.fit_image_get_address.str1.1
                0x0000000024057fa9       0x1d common/built-in.o
 .rodata.fit_image_get_arch.str1.1
                0x0000000024057fc6        0x5 common/built-in.o
 .rodata.fit_image_get_comp.str1.1
                0x0000000024057fcb        0xc common/built-in.o
 .rodata.fit_image_get_data.str1.1
                0x0000000024057fcb        0x5 common/built-in.o
 .rodata.fit_image_get_data_offset.str1.1
                0x0000000024057fd0        0xc common/built-in.o
 .rodata.fit_image_get_data_position.str1.1
                0x0000000024057fdc        0xe common/built-in.o
 .rodata.fit_image_get_data_size.str1.1
                0x0000000024057fea        0xa common/built-in.o
 .rodata.fit_image_get_entry.str1.1
                0x0000000024057ff4        0x5 common/built-in.o
                                          0x6 (size before relaxing)
 .rodata.fit_image_get_load.str1.1
                0x0000000024057ff4        0x5 common/built-in.o
 .rodata.fit_image_get_node.str1.1
                0x0000000024057ff4        0x8 common/built-in.o
 .rodata.fit_image_get_os.str1.1
                0x0000000024057ff4        0xc common/built-in.o
                                          0x3 (size before relaxing)
 .rodata.fit_image_get_type.str1.1
                0x0000000024057ff4        0x5 common/built-in.o
 .rodata.fit_image_hash_get_algo.str1.1
                0x0000000024057ff4        0x5 common/built-in.o
 .rodata.fit_image_hash_get_value.str1.1
                0x0000000024057ff9        0x5 common/built-in.o
                                          0x6 (size before relaxing)
 .rodata.fit_image_load.str1.1
                0x0000000024057ff9      0x1cd common/built-in.o
                                        0x1e0 (size before relaxing)
 .rodata.fit_image_print.str1.1
                0x00000000240581c6       0xd2 common/built-in.o
                                         0xdf (size before relaxing)
 .rodata.fit_image_print_data.str1.1
                0x0000000024058298       0x7a common/built-in.o
                                         0x91 (size before relaxing)
 .rodata.fit_image_print_verification_data.str1.1
                0x0000000024058312        0xa common/built-in.o
                                         0x19 (size before relaxing)
 .rodata.fit_image_setup_verify.str1.1
                0x000000002405831c       0x40 common/built-in.o
                                         0x73 (size before relaxing)
 .rodata.fit_image_verify.str1.1
                0x000000002405835c       0x1a common/built-in.o
                                         0x4b (size before relaxing)
 .rodata.fit_image_verify_required_sigs.str1.1
                0x0000000024058376       0x2a common/built-in.o
                                         0x98 (size before relaxing)
 .rodata.fit_image_verify_with_data.str1.1
                0x00000000240583a0      0x104 common/built-in.o
                                        0x108 (size before relaxing)
 .rodata.fit_print_contents.str1.1
                0x00000000240584a4      0x127 common/built-in.o
                                        0x15e (size before relaxing)
 .rodata.fixup_branch.part.0.str1.1
                0x00000000240585cb       0x17 lib/built-in.o
 .rodata.fixup_leb.str1.1
                0x00000000240585e2       0x21 fs/built-in.o
 .rodata.flash_fill_sect_ranges.str1.1
                0x00000000240585e2       0xc8 cmd/built-in.o
 .rodata.flash_perror.str1.1
                0x00000000240586aa      0x12e common/built-in.o
 .rodata.flash_print_info.str1.1
                0x00000000240587d8       0x62 drivers/mtd/built-in.o
                                         0x89 (size before relaxing)
 .rodata.flash_sect_erase.str1.1
                0x000000002405883a       0x4b cmd/built-in.o
 .rodata.flash_sect_protect.str1.1
                0x0000000024058885       0x1c cmd/built-in.o
                                         0x1d (size before relaxing)
 .rodata.flash_sect_roundb.str1.1
                0x00000000240588a1       0x2c cmd/built-in.o
 .rodata.free_orphans.str1.1
                0x00000000240588cd       0x45 fs/built-in.o
 .rodata.fs_ls_generic.str1.1
                0x0000000024058912       0x37 fs/built-in.o
 .rodata.fs_probe_unsupported.str1.1
                0x0000000024058949       0x24 fs/built-in.o
 .rodata.genimg_get_arch_id.str1.1
                0x000000002405896d       0x14 common/built-in.o
                                          0x4 (size before relaxing)
 .rodata.genimg_get_arch_name.str1.1
                0x000000002405896d       0x15 common/built-in.o
 .rodata.genimg_get_comp_id.str1.1
                0x0000000024058982       0x14 common/built-in.o
                                          0xc (size before relaxing)
 .rodata.genimg_get_comp_name.str1.1
                0x0000000024058982       0x14 common/built-in.o
 .rodata.genimg_get_os_id.str1.1
                0x0000000024058996       0x14 common/built-in.o
                                          0x3 (size before relaxing)
 .rodata.genimg_get_os_name.str1.1
                0x0000000024058996        0xb common/built-in.o
 .rodata.genimg_get_type_id.str1.1
                0x00000000240589a1       0x14 common/built-in.o
                                          0x6 (size before relaxing)
 .rodata.genimg_get_type_name.str1.1
                0x00000000240589a1        0xe common/built-in.o
 .rodata.genimg_print_size.str1.1
                0x00000000240589af        0xc common/built-in.o
                                          0xe (size before relaxing)
 .rodata.genphy_update_link.str1.1
                0x00000000240589bb       0x54 drivers/net/phy/built-in.o
                                         0x56 (size before relaxing)
 .rodata.get_dent_type.str1.1
                0x0000000024058a0f       0x13 fs/built-in.o
                                         0x2c (size before relaxing)
 .rodata.get_fatent.str1.1
                0x0000000024058a22       0x22 fs/built-in.o
 .rodata.get_local_var.str1.1
                0x0000000024058a44        0x3 common/built-in.o
 .rodata.get_mtd_by_name.str1.1
                0x0000000024058a47       0x22 cmd/built-in.o
 .rodata.get_mtdids.str1.1
                0x0000000024058a69        0x7 drivers/mtd/built-in.o
                                          0x8 (size before relaxing)
 .rodata.get_next_memory_node.str1.1
                0x0000000024058a70       0x13 lib/built-in.o
 .rodata.get_phy_device_by_mask.str1.1
                0x0000000024058a70       0x29 drivers/net/phy/built-in.o
 .rodata.gpio_backlight_ofdata_to_platdata.str1.1
                0x0000000024058a99        0xb drivers/built-in.o
                                         0x11 (size before relaxing)
 .rodata.gpio_direction_input.str1.1
                0x0000000024058aa4        0xa drivers/gpio/built-in.o
 .rodata.gpio_direction_output.str1.1
                0x0000000024058aae        0xb drivers/gpio/built-in.o
 .rodata.gpio_request_by_name_nodev.str1.1
                0x0000000024058ab9        0xc drivers/gpio/built-in.o
 .rodata.gpio_request_tail.str1.1
                0x0000000024058ac5        0x8 drivers/gpio/built-in.o
                                          0xe (size before relaxing)
 .rodata.gpio_stm32_probe.str1.1
                0x0000000024058acd       0x19 drivers/gpio/built-in.o
                                         0x31 (size before relaxing)
 .rodata.gpt_fill_header.str1.1
                0x0000000024058ae6       0x24 disk/built-in.o
 .rodata.gpt_fill_pte.str1.1
                0x0000000024058b0a       0x5b disk/built-in.o
 .rodata.gpt_verify_partitions.str1.1
                0x0000000024058b65       0xa3 disk/built-in.o
 .rodata.grab_empty_leb.str1.1
                0x0000000024058c08       0x40 fs/built-in.o
 .rodata.gzip_parse_header.str1.1
                0x0000000024058c48       0x3e lib/built-in.o
 .rodata.hang.str1.1
                0x0000000024058c86       0x2a lib/built-in.o
 .rodata.hash_command.str1.1
                0x0000000024058cb0       0x58 common/built-in.o
                                         0x5f (size before relaxing)
 .rodata.hex_asc
                0x0000000024058d08       0x11 lib/built-in.o
                0x0000000024058d08                hex_asc
 .rodata.hexport_r.str1.1
                0x0000000024058d19       0x30 lib/built-in.o
 .rodata.himport_r.str1.1
                0x0000000024058d49       0x99 lib/built-in.o
 .rodata.image_info.str1.1
                0x0000000024058de2       0x7b cmd/built-in.o
 .rodata.image_setup_libfdt.str1.1
                0x0000000024058e5d       0x8f common/built-in.o
 .rodata.inflate.str1.1
                0x0000000024058eec      0x158 lib/built-in.o
 .rodata.inflate_fast.str1.1
                0x0000000024059044       0x50 lib/built-in.o
 .rodata.init_baud_rate.str1.1
                0x0000000024059094        0x9 common/built-in.o
 .rodata.initr_env.str1.1
                0x000000002405909d       0x20 common/built-in.o
                                         0x29 (size before relaxing)
 .rodata.initr_ethaddr.str1.1
                0x00000000240590bd        0x8 common/built-in.o
 .rodata.initr_flash.str1.1
                0x00000000240590c5       0x2a common/built-in.o
                                         0x2b (size before relaxing)
 .rodata.initr_mem.str1.1
                0x00000000240590ef        0x9 common/built-in.o
                                          0xe (size before relaxing)
 .rodata.initr_mmc.str1.1
                0x00000000240590f8        0x8 common/built-in.o
 .rodata.initr_net.str1.1
                0x0000000024059100        0x8 common/built-in.o
 .rodata.insert_old_idx.str1.1
                0x0000000024059108       0x39 fs/built-in.o
 .rodata.insert_var_value_sub.str1.1
                0x0000000024059141        0x6 common/built-in.o
 .rodata.insert_zbranch.str1.1
                0x0000000024059147       0x21 fs/built-in.o
 .rodata.invalidate_dcache_all.str1.1
                0x0000000024059147       0x1e arch/arm/cpu/armv7m/built-in.o
 .rodata.ip_to_string.str1.1
                0x0000000024059165        0xc net/built-in.o
 .rodata.is_gpt_valid.str1.1
                0x0000000024059171       0xea disk/built-in.o
 .rodata.leb_read_unlock.str1.1
                0x000000002405925b       0x28 drivers/mtd/ubi/built-in.o
 .rodata.list_sort.str1.1
                0x000000002405925b       0x34 lib/built-in.o
 .rodata.lists_bind_drivers.str1.1
                0x000000002405928f       0x1a drivers/built-in.o
 .rodata.lists_bind_fdt.str1.1
                0x00000000240592a9       0x4a drivers/built-in.o
 .rodata.lmb_alloc_base.str1.1
                0x00000000240592f3       0x34 lib/built-in.o
 .rodata.load_serial.str1.1
                0x0000000024059327       0x6e cmd/built-in.o
 .rodata.load_serial_ymodem.isra.0.str1.1
                0x0000000024059395       0x28 cmd/built-in.o
                                         0x2c (size before relaxing)
 .rodata.lzop_magic
                0x00000000240593bd        0x9 lib/built-in.o
 .rodata.macronix_quad_enable.str1.1
                0x00000000240593c6       0x1b drivers/mtd/spi/built-in.o
 .rodata.main_loop.str1.1
                0x00000000240593e1       0x11 common/built-in.o
 .rodata.make_reservation.str1.1
                0x00000000240593f2       0x90 fs/built-in.o
                                         0xb1 (size before relaxing)
 .rodata.match.str1.1
                0x0000000024059482       0x18 lib/built-in.o
 .rodata.match_entry.str1.1
                0x000000002405949a       0x1b lib/built-in.o
 .rodata.match_string.str1.1
                0x000000002405949a       0x2c lib/built-in.o
 .rodata.mdio_list_devices.str1.1
                0x00000000240594c6       0x12 common/built-in.o
                                         0x19 (size before relaxing)
 .rodata.mdio_phydev_for_ethname.str1.1
                0x00000000240594d8       0x1c common/built-in.o
 .rodata.mdio_register.str1.1
                0x00000000240594f4       0x2c common/built-in.o
 .rodata.miiphy_duplex.str1.1
                0x0000000024059520       0x4f common/built-in.o
 .rodata.miiphy_get_dev_by_name.str1.1
                0x000000002405956f       0x13 common/built-in.o
 .rodata.miiphy_listdev.str1.1
                0x0000000024059582       0x2a common/built-in.o
 .rodata.miiphy_set_current_dev.str1.1
                0x00000000240595ac       0x14 common/built-in.o
 .rodata.miiphy_speed.str1.1
                0x00000000240595c0       0x49 common/built-in.o
 .rodata.mmc_berase.str1.1
                0x0000000024059609       0x6f drivers/built-in.o
 .rodata.mmc_bind.str1.1
                0x0000000024059678        0x8 drivers/built-in.o
                                          0xc (size before relaxing)
 .rodata.mmc_bread.str1.1
                0x0000000024059680       0x47 drivers/built-in.o
 .rodata.mmc_bwrite.str1.1
                0x00000000240596c7       0x12 drivers/built-in.o
                                         0x59 (size before relaxing)
 .rodata.mmc_get_op_cond.str1.1
                0x00000000240596d9       0x29 drivers/built-in.o
 .rodata.mmc_hwpart_config.str1.1
                0x0000000024059702      0x19f drivers/built-in.o
 .rodata.mmc_init.str1.1
                0x00000000240598a1       0x67 drivers/built-in.o
                                         0x6d (size before relaxing)
 .rodata.mmc_initialize.str1.1
                0x0000000024059908       0x17 drivers/built-in.o
 .rodata.mmc_mode_name.str1.1
                0x000000002405991f        0xd drivers/built-in.o
 .rodata.mmc_send_status.str1.1
                0x000000002405992c       0x32 drivers/built-in.o
 .rodata.mmc_start_init.str1.1
                0x000000002405995e       0x16 drivers/built-in.o
 .rodata.mod_mem.part.0.str1.1
                0x0000000024059974       0x1d cmd/built-in.o
 .rodata.mon_name.6
                0x0000000024059991       0x24 fs/built-in.o
 .rodata.mtd_arg_off.str1.1
                0x00000000240599b5       0x38 drivers/mtd/built-in.o
 .rodata.mtd_arg_off_size.str1.1
                0x00000000240599ed       0x5b drivers/mtd/built-in.o
                                         0x71 (size before relaxing)
 .rodata.mtd_dump_buf.str1.1
                0x0000000024059a48        0xf cmd/built-in.o
                                         0x13 (size before relaxing)
 .rodata.mtd_name_complete.str1.1
                0x0000000024059a57      0x16a cmd/built-in.o
                                          0x4 (size before relaxing)
 .rodata.mtd_parse_partition.str1.1
                0x0000000024059a57       0xcf drivers/mtd/built-in.o
 .rodata.mtd_parse_partitions.str1.1
                0x0000000024059b26       0x58 drivers/mtd/built-in.o
 .rodata.mtd_probe_devices.str1.1
                0x0000000024059b7e       0xf1 drivers/mtd/built-in.o
 .rodata.mtd_show_parts.str1.1
                0x0000000024059c6f       0x20 cmd/built-in.o
                                         0x22 (size before relaxing)
 .rodata.multipliers
                0x0000000024059c8f       0x10 drivers/built-in.o
 .rodata.names.0
                0x0000000024059c9f        0x6 lib/built-in.o
 .rodata.net_auto_load.str1.1
                0x0000000024059ca5       0x45 net/built-in.o
 .rodata.net_bcast_ethaddr
                0x0000000024059cea        0x6 net/built-in.o
                0x0000000024059cea                net_bcast_ethaddr
 .rodata.net_check_prereq.str1.1
                0x0000000024059cf0       0x99 net/built-in.o
 .rodata.net_loop.str1.1
                0x0000000024059d89       0x29 net/built-in.o
                                         0x3b (size before relaxing)
 .rodata.net_null_ethaddr
                0x0000000024059db2        0x6 net/built-in.o
                0x0000000024059db2                net_null_ethaddr
 .rodata.net_process_received_packet.str1.1
                0x0000000024059db8       0x1d net/built-in.o
 .rodata.net_start_again.str1.1
                0x0000000024059dd5        0xe net/built-in.o
                                         0x15 (size before relaxing)
 .rodata.netboot_common.str1.1
                0x0000000024059de3       0x16 cmd/built-in.o
                                         0x53 (size before relaxing)
 .rodata.next_sqnum.str1.1
                0x0000000024059df9       0x4f fs/built-in.o
 .rodata.nfs_handler.str1.1
                0x0000000024059e48       0x56 net/built-in.o
 .rodata.nfs_lookup_reply.str1.1
                0x0000000024059e9e       0x25 net/built-in.o
                                         0x27 (size before relaxing)
 .rodata.nfs_read_reply.constprop.0.str1.1
                0x0000000024059ec3        0x4 net/built-in.o
 .rodata.nfs_readlink_reply.str1.1
                0x0000000024059ec7        0x2 net/built-in.o
 .rodata.nfs_start.str1.1
                0x0000000024059ec7      0x104 net/built-in.o
                                        0x105 (size before relaxing)
 .rodata.nfs_timeout_handler.str1.1
                0x0000000024059fcb       0x2a net/built-in.o
 .rodata.nondata_nodes_cmp.str1.1
                0x0000000024059ff5       0x21 fs/built-in.o
 .rodata.ofnode_get_addr_index.str1.1
                0x0000000024059ff5        0x4 drivers/built-in.o
 .rodata.ofnode_get_chosen_prop.str1.1
                0x0000000024059ff5        0x8 drivers/built-in.o
 .rodata.ofnode_read_resource_byname.str1.1
                0x0000000024059ff5        0xa drivers/built-in.o
 .rodata.on_baudrate.str1.1
                0x0000000024059fff       0x42 drivers/serial/built-in.o
                                         0x74 (size before relaxing)
 .rodata.on_callbacks.str1.1
                0x000000002405a041      0x105 env/built-in.o
 .rodata.on_console.str1.1
                0x000000002405a146        0x7 common/built-in.o
                                         0x27 (size before relaxing)
 .rodata.on_flags.str1.1
                0x000000002405a146       0x5b env/built-in.o
 .rodata.overlay_adjust_node_phandles.str1.1
                0x000000002405a1a1        0xe lib/built-in.o
                                         0x16 (size before relaxing)
 .rodata.overlay_get_target.str1.1
                0x000000002405a1af       0x13 lib/built-in.o
 .rodata.pack_bits.str1.1
                0x000000002405a1c2       0x21 fs/built-in.o
 .rodata.parse_argv.str1.1
                0x000000002405a1c2        0x6 cmd/built-in.o
                                          0xd (size before relaxing)
 .rodata.parse_stream_outer.str1.1
                0x000000002405a1c8       0x4d common/built-in.o
 .rodata.parse_string_outer.str1.1
                0x000000002405a215        0x2 common/built-in.o
 .rodata.part_get_info_efi.str1.1
                0x000000002405a215        0xa disk/built-in.o
 .rodata.part_get_info_extended.str1.1
                0x000000002405a215        0xa disk/built-in.o
                                         0x11 (size before relaxing)
 .rodata.part_get_info_whole_disk.str1.1
                0x000000002405a21f        0xb disk/built-in.o
                                         0x12 (size before relaxing)
 .rodata.part_print.str1.1
                0x000000002405a22a       0x93 disk/built-in.o
                                         0x97 (size before relaxing)
 .rodata.part_print_dos.str1.1
                0x000000002405a2bd       0x2a disk/built-in.o
 .rodata.part_print_efi.str1.1
                0x000000002405a2e7       0xf9 disk/built-in.o
 .rodata.part_set_generic_name.str1.1
                0x000000002405a3e0        0xa disk/built-in.o
 .rodata.patterns
                0x000000002405a3ea        0x3 drivers/mtd/ubi/built-in.o
 .rodata.phy_connect.str1.1
                0x000000002405a3ed       0x23 drivers/net/phy/built-in.o
 .rodata.phy_connect_dev.str1.1
                0x000000002405a410       0x2f drivers/net/phy/built-in.o
 .rodata.phy_reset.str1.1
                0x000000002405a43f       0x15 drivers/net/phy/built-in.o
 .rodata.print_buffer.str1.1
                0x000000002405a454        0x6 lib/built-in.o
                                         0x17 (size before relaxing)
 .rodata.print_data.part.0.str1.1
                0x000000002405a45a       0x27 cmd/built-in.o
                                         0x32 (size before relaxing)
 .rodata.print_freq.str1.1
                0x000000002405a481       0x1b lib/built-in.o
 .rodata.print_mmc_devices.str1.1
                0x000000002405a49c       0x12 drivers/built-in.o
                                         0x1c (size before relaxing)
 .rodata.print_num.str1.1
                0x000000002405a4ae       0x10 cmd/built-in.o
 .rodata.print_partition_extended.str1.1
                0x000000002405a4be       0x83 disk/built-in.o
                                         0x84 (size before relaxing)
 .rodata.print_size.str1.1
                0x000000002405a541       0x15 lib/built-in.o
 .rodata.prot_queue_del.str1.1
                0x000000002405a556       0x45 drivers/mtd/ubi/built-in.o
 .rodata.read_block.str1.1
                0x000000002405a59b       0x48 fs/built-in.o
 .rodata.read_bootsectandvi.str1.1
                0x000000002405a5e3       0x1b fs/built-in.o
 .rodata.realloc.str1.1
                0x000000002405a5fe       0x25 common/built-in.o
 .rodata.regex_callback.str1.1
                0x000000002405a623       0x20 env/built-in.o
 .rodata.regmap_init_mem.str1.1
                0x000000002405a643       0x27 drivers/built-in.o
                                         0x2b (size before relaxing)
 .rodata.replay_entries_cmp.str1.1
                0x000000002405a66a       0x21 fs/built-in.o
 .rodata.reserve_pram.str1.1
                0x000000002405a66a       0x31 common/built-in.o
                                          0x5 (size before relaxing)
 .rodata.reset_get_by_index.str1.1
                0x000000002405a66a       0x14 drivers/built-in.o
 .rodata.reset_get_by_name.str1.1
                0x000000002405a67e        0xc drivers/built-in.o
 .rodata.rsa_verify.str1.1
                0x000000002405a68a        0x7 lib/built-in.o
                                         0x11 (size before relaxing)
 .rodata.rsa_verify_with_keynode.str1.1
                0x000000002405a691       0x6f lib/built-in.o
 .rodata.run_list_real.str1.1
                0x000000002405a700       0x45 common/built-in.o
                                         0x4b (size before relaxing)
 .rodata.scan_all.str1.1
                0x000000002405a745      0x503 drivers/mtd/ubi/built-in.o
                                        0x586 (size before relaxing)
 .rodata.scan_peb.str1.1
                0x000000002405ac48      0x342 drivers/mtd/ubi/built-in.o
                                        0x343 (size before relaxing)
 .rodata.scan_pool.str1.1
                0x000000002405af8a      0x109 drivers/mtd/ubi/built-in.o
                                        0x131 (size before relaxing)
 .rodata.self_check_eba.str1.1
                0x000000002405b093       0x35 drivers/mtd/ubi/built-in.o
 .rodata.self_check_ec_hdr.part.0.str1.1
                0x000000002405b0c8       0x60 drivers/mtd/ubi/built-in.o
 .rodata.self_check_in_wl_tree.isra.0.str1.1
                0x000000002405b128       0x43 drivers/mtd/ubi/built-in.o
 .rodata.self_check_peb_ec_hdr.part.0.str1.1
                0x000000002405b16b       0x38 drivers/mtd/ubi/built-in.o
 .rodata.self_check_vid_hdr.part.0.str1.1
                0x000000002405b1a3       0x46 drivers/mtd/ubi/built-in.o
 .rodata.self_check_volumes.isra.0.str1.1
                0x000000002405b1e9      0x27f drivers/mtd/ubi/built-in.o
                                        0x2df (size before relaxing)
 .rodata.serial_init.str1.1
                0x000000002405b468       0x23 drivers/serial/built-in.o
                                         0x2b (size before relaxing)
 .rodata.set_default_env.str1.1
                0x000000002405b48b       0x2e env/built-in.o
                                         0x5f (size before relaxing)
 .rodata.set_gpt_info.constprop.0.str1.1
                0x000000002405b4b9       0x9c cmd/built-in.o
                                         0xb0 (size before relaxing)
 .rodata.set_local_var.str1.1
                0x000000002405b555       0x59 common/built-in.o
 .rodata.set_working_fdt_addr.str1.1
                0x000000002405b5ae        0x8 cmd/built-in.o
 .rodata.sha1_der_prefix
                0x000000002405b5b6        0xf lib/built-in.o
                0x000000002405b5b6                sha1_der_prefix
 .rodata.sha1_padding
                0x000000002405b5c5       0x40 lib/built-in.o
 .rodata.sha256_der_prefix
                0x000000002405b605       0x13 lib/built-in.o
                0x000000002405b605                sha256_der_prefix
 .rodata.show_board_info.str1.1
                0x000000002405b618       0x11 common/built-in.o
 .rodata.show_devices.str1.1
                0x000000002405b629       0x33 drivers/built-in.o
                                         0x3c (size before relaxing)
 .rodata.show_dram_config.str1.1
                0x000000002405b65c        0x1 common/built-in.o
 .rodata.show_pinmux.str1.1
                0x000000002405b65c       0x6d cmd/built-in.o
 .rodata.simple_bus_post_bind.str1.1
                0x000000002405b6c9        0x7 drivers/built-in.o
 .rodata.simple_panel_ofdata_to_platdata.str1.1
                0x000000002405b6c9        0xd drivers/built-in.o
                                         0x17 (size before relaxing)
 .rodata.soc_clk_dump.str1.1
                0x000000002405b6d6       0x24 cmd/built-in.o
 .rodata.source.str1.1
                0x000000002405b6fa       0xce cmd/built-in.o
                                         0xd6 (size before relaxing)
 .rodata.spi_flash_mtd_register.str1.1
                0x000000002405b7c8        0x6 drivers/mtd/spi/built-in.o
 .rodata.spi_flash_mtd_unregister.str1.1
                0x000000002405b7ce       0x5c drivers/mtd/spi/built-in.o
 .rodata.spi_flash_probe_bus_cs.str1.1
                0x000000002405b82a       0x1e drivers/mtd/spi/built-in.o
 .rodata.spi_flash_std_erase.str1.1
                0x000000002405b848       0x34 drivers/mtd/spi/built-in.o
 .rodata.spi_flash_std_probe.str1.1
                0x000000002405b87c       0x1c drivers/mtd/spi/built-in.o
 .rodata.spi_get_bus_and_cs.str1.1
                0x000000002405b898       0x64 drivers/spi/built-in.o
 .rodata.spi_nor_scan.str1.1
                0x000000002405b8fc       0xa4 drivers/mtd/spi/built-in.o
                                         0xa7 (size before relaxing)
 .rodata.spi_nor_wait_till_ready.str1.1
                0x000000002405b9a0       0x1b drivers/mtd/spi/built-in.o
 .rodata.spi_post_probe.str1.1
                0x000000002405b9bb       0x12 drivers/spi/built-in.o
 .rodata.spi_set_speed_mode.str1.1
                0x000000002405b9cd       0x35 drivers/spi/built-in.o
 .rodata.spi_slave_ofdata_to_platdata.str1.1
                0x000000002405ba02       0xa0 drivers/spi/built-in.o
                                         0xa4 (size before relaxing)
 .rodata.stdio_add_devices.str1.1
                0x000000002405baa2        0x8 common/built-in.o
                                          0xf (size before relaxing)
 .rodata.stdio_get_by_name.str1.1
                0x000000002405baaa        0xb common/built-in.o
 .rodata.stdio_print_current_devices.str1.1
                0x000000002405bab5       0x70 common/built-in.o
                                         0x74 (size before relaxing)
 .rodata.stm32_clk_get_rate.str1.1
                0x000000002405bb25       0x4d drivers/built-in.o
 .rodata.stm32_clk_probe.str1.1
                0x000000002405bb72       0x3f drivers/built-in.o
 .rodata.stm32_fmc_ofdata_to_platdata.str1.1
                0x000000002405bbb1       0xcc drivers/built-in.o
                                         0xe7 (size before relaxing)
 .rodata.stm32_fmc_probe.str1.1
                0x000000002405bc7d       0x18 drivers/built-in.o
 .rodata.stm32_get_rate.str1.1
                0x000000002405bc95       0x31 drivers/built-in.o
 .rodata.stm32_get_timer_rate.isra.0.str1.1
                0x000000002405bcc6       0x21 drivers/built-in.o
 .rodata.stm32_pinctrl_config.str1.1
                0x000000002405bce7       0x37 drivers/built-in.o
                                         0x3e (size before relaxing)
 .rodata.stm32_pinctrl_get_pin_muxing.str1.1
                0x000000002405bd1e       0x20 drivers/built-in.o
                                         0x24 (size before relaxing)
 .rodata.stm32_pinctrl_get_pin_name.str1.1
                0x000000002405bd3e        0x6 drivers/built-in.o
                                          0xb (size before relaxing)
 .rodata.stm32_pinctrl_set_state_simple.str1.1
                0x000000002405bd44       0x33 drivers/built-in.o
 .rodata.stm32_populate_gpio_dev_list.isra.0.str1.1
                0x000000002405bd77       0x13 drivers/built-in.o
 .rodata.stm32_qspi_ofdata_to_platdata.str1.1
                0x000000002405bd8a       0x1d drivers/spi/built-in.o
                                         0x34 (size before relaxing)
 .rodata.stm32_qspi_probe.str1.1
                0x000000002405bda7       0x15 drivers/spi/built-in.o
                                         0x2d (size before relaxing)
 .rodata.stm32_rcc_bind.str1.1
                0x000000002405bdbc       0x25 drivers/built-in.o
                                         0x35 (size before relaxing)
 .rodata.stm32_sdmmc2_probe.str1.1
                0x000000002405bde1       0x61 drivers/built-in.o
                                         0x79 (size before relaxing)
 .rodata.stm32_sdmmc2_send_cmd.str1.1
                0x000000002405be42       0x21 drivers/built-in.o
 .rodata.stm32_serial_probe.str1.1
                0x000000002405be63       0x18 drivers/serial/built-in.o
 .rodata.stm32_syscon_probe.str1.1
                0x000000002405be63       0x54 arch/arm/mach-stm32/built-in.o
 .rodata.stm32_timer_probe.str1.1
                0x000000002405beb7       0x18 drivers/built-in.o
 .rodata.store_char_in_data.str1.1
                0x000000002405beb7       0x1f lib/built-in.o
 .rodata.str1.1
                0x000000002405bed6       0x1d arch/arm/mach-stm32/built-in.o
 .rodata.str1.1
                0x000000002405bef3     0x30c4 cmd/built-in.o
                                       0x31cc (size before relaxing)
 .rodata.str1.1
                0x000000002405efb7      0x8af common/built-in.o
                                        0x92c (size before relaxing)
 .rodata.str1.1
                0x000000002405f866       0x1b disk/built-in.o
                                         0x1e (size before relaxing)
 .rodata.str1.1
                0x000000002405f881      0x6f6 drivers/built-in.o
                                        0x79f (size before relaxing)
 .rodata.str1.1
                0x000000002405ff77       0x25 drivers/gpio/built-in.o
                                         0x3f (size before relaxing)
 .rodata.str1.1
                0x000000002405ff9c        0x4 drivers/mtd/built-in.o
 .rodata.str1.1
                0x000000002405ff9c      0x3d9 drivers/mtd/spi/built-in.o
                                        0x3e7 (size before relaxing)
 .rodata.str1.1
                0x0000000024060375       0x40 drivers/net/built-in.o
 .rodata.str1.1
                0x00000000240603b5       0xe4 drivers/net/phy/built-in.o
                                         0xfd (size before relaxing)
 .rodata.str1.1
                0x0000000024060499       0x3b drivers/serial/built-in.o
                                         0x4b (size before relaxing)
 .rodata.str1.1
                0x00000000240604d4       0x47 drivers/spi/built-in.o
                                         0x4b (size before relaxing)
 .rodata.str1.1
                0x000000002406051b        0xb env/built-in.o
                                         0x14 (size before relaxing)
 .rodata.str1.1
                0x000000002406051b      0x1c5 fs/built-in.o
                                        0x1d4 (size before relaxing)
 .rodata.str1.1
                0x00000000240606e0      0x491 lib/built-in.o
                                        0x49c (size before relaxing)
 .rodata.str1.1
                0x0000000024060b71        0x6 net/built-in.o
                                         0x35 (size before relaxing)
 .rodata.string.str1.1
                0x0000000024060b77        0x7 lib/built-in.o
 .rodata.syntax_err.str1.1
                0x0000000024060b7e        0xe common/built-in.o
 .rodata.syscon_node_to_regmap.str1.1
                0x0000000024060b8c       0x27 drivers/built-in.o
                                          0x7 (size before relaxing)
 .rodata.tab_seq
                0x0000000024060b8c        0x9 common/built-in.o
 .rodata.take_gc_lnum.str1.1
                0x0000000024060b95       0x32 fs/built-in.o
 .rodata.test_block_type.str1.1
                0x0000000024060bc7        0xa disk/built-in.o
 .rodata.tftp_handler.str1.1
                0x0000000024060bd1       0x9a net/built-in.o
                                         0xa8 (size before relaxing)
 .rodata.tftp_send.str1.1
                0x0000000024060c6b       0x36 net/built-in.o
                                         0x42 (size before relaxing)
 .rodata.tftp_start.str1.1
                0x0000000024060ca1       0xe8 net/built-in.o
                                        0x17d (size before relaxing)
 .rodata.tftp_timeout_handler.str1.1
                0x0000000024060d89       0x2a net/built-in.o
                                         0x2d (size before relaxing)
 .rodata.timer_pre_probe.str1.1
                0x0000000024060db3       0x10 drivers/built-in.o
 .rodata.u_boot_hush_start.str1.1
                0x0000000024060db3       0x12 common/built-in.o
 .rodata.ubi_add_to_av.str1.1
                0x0000000024060dc5       0x3a drivers/mtd/ubi/built-in.o
 .rodata.ubi_attach_mtd_dev.str1.1
                0x0000000024060dff      0x60d drivers/mtd/ubi/built-in.o
 .rodata.ubi_calc_data_len.str1.1
                0x000000002406140c       0x28 drivers/mtd/ubi/built-in.o
 .rodata.ubi_change_vtbl_record.str1.1
                0x000000002406140c       0x3b drivers/mtd/ubi/built-in.o
                                         0x7c (size before relaxing)
 .rodata.ubi_compare_lebs.str1.1
                0x0000000024061447       0x7f drivers/mtd/ubi/built-in.o
 .rodata.ubi_create_volume.str1.1
                0x00000000240614c6       0xe5 drivers/mtd/ubi/built-in.o
                                        0x11a (size before relaxing)
 .rodata.ubi_detach_mtd_dev.str1.1
                0x00000000240615ab       0x6a drivers/mtd/ubi/built-in.o
 .rodata.ubi_do_worker.str1.1
                0x0000000024061615       0x35 drivers/mtd/ubi/built-in.o
 .rodata.ubi_dump_aeb.str1.1
                0x000000002406164a       0x70 drivers/mtd/ubi/built-in.o
 .rodata.ubi_dump_av.str1.1
                0x00000000240616ba       0xc4 drivers/mtd/ubi/built-in.o
 .rodata.ubi_dump_ec_hdr.str1.1
                0x000000002406177e       0xcf drivers/mtd/ubi/built-in.o
 .rodata.ubi_dump_flash.str1.1
                0x000000002406184d       0x38 drivers/mtd/ubi/built-in.o
                                         0x88 (size before relaxing)
 .rodata.ubi_dump_vid_hdr.str1.1
                0x0000000024061885       0xfd drivers/mtd/ubi/built-in.o
 .rodata.ubi_dump_vol_info.str1.1
                0x0000000024061982      0x154 drivers/mtd/ubi/built-in.o
 .rodata.ubi_dump_vtbl_record.str1.1
                0x0000000024061ad6       0x4d drivers/mtd/ubi/built-in.o
 .rodata.ubi_early_get_peb.str1.1
                0x0000000024061b23       0x60 drivers/mtd/ubi/built-in.o
 .rodata.ubi_eba_init.str1.1
                0x0000000024061b83       0x3f drivers/mtd/ubi/built-in.o
                                         0x74 (size before relaxing)
 .rodata.ubi_eba_read_leb.str1.1
                0x0000000024061bc2       0x1c drivers/mtd/ubi/built-in.o
 .rodata.ubi_eba_write_leb.str1.1
                0x0000000024061bde       0x7e drivers/mtd/ubi/built-in.o
 .rodata.ubi_find_volume.str1.1
                0x0000000024061c5c       0x16 cmd/built-in.o
 .rodata.ubi_get_device.str1.1
                0x0000000024061c72       0x28 drivers/mtd/ubi/built-in.o
 .rodata.ubi_init.str1.1
                0x0000000024061c9a       0xa5 drivers/mtd/ubi/built-in.o
 .rodata.ubi_io_is_bad.str1.1
                0x0000000024061d3f       0x3b drivers/mtd/ubi/built-in.o
                                         0x63 (size before relaxing)
 .rodata.ubi_io_mark_bad.str1.1
                0x0000000024061d7a       0x54 drivers/mtd/ubi/built-in.o
 .rodata.ubi_io_read.str1.1
                0x0000000024061dce       0x8c drivers/mtd/ubi/built-in.o
                                         0x8d (size before relaxing)
 .rodata.ubi_io_read_ec_hdr.str1.1
                0x0000000024061e5a       0x2f drivers/mtd/ubi/built-in.o
 .rodata.ubi_io_sync_erase.str1.1
                0x0000000024061e89      0x155 drivers/mtd/ubi/built-in.o
 .rodata.ubi_io_write.str1.1
                0x0000000024061fde      0x1dd drivers/mtd/ubi/built-in.o
 .rodata.ubi_mtd_param_parse.str1.1
                0x00000000240621bb      0x114 drivers/mtd/ubi/built-in.o
                                        0x116 (size before relaxing)
 .rodata.ubi_open_volume.str1.1
                0x00000000240622cf       0x3d drivers/mtd/ubi/built-in.o
 .rodata.ubi_part.str1.1
                0x000000002406230c       0x79 cmd/built-in.o
                                         0x7c (size before relaxing)
 .rodata.ubi_read_volume_table.str1.1
                0x0000000024062385      0x249 drivers/mtd/ubi/built-in.o
 .rodata.ubi_refill_pools.str1.1
                0x00000000240625ce       0x26 drivers/mtd/ubi/built-in.o
 .rodata.ubi_resize_volume.str1.1
                0x00000000240625ce       0x78 drivers/mtd/ubi/built-in.o
 .rodata.ubi_scan_fastmap.str1.1
                0x0000000024062646      0x5cd drivers/mtd/ubi/built-in.o
                                        0x5e5 (size before relaxing)
 .rodata.ubi_self_check_all_ff.str1.1
                0x0000000024062c13      0x107 drivers/mtd/ubi/built-in.o
 .rodata.ubi_update_fastmap.str1.1
                0x0000000024062d1a      0x20e drivers/mtd/ubi/built-in.o
 .rodata.ubi_update_reserved.str1.1
                0x0000000024062f28       0x33 drivers/mtd/ubi/built-in.o
 .rodata.ubi_volume_begin_write.str1.1
                0x0000000024062f5b       0x3b cmd/built-in.o
 .rodata.ubi_volume_continue_write.str1.1
                0x0000000024062f96       0x21 cmd/built-in.o
 .rodata.ubi_volume_notify.str1.1
                0x0000000024062fb7       0x2a drivers/mtd/ubi/built-in.o
 .rodata.ubi_volume_read.str1.1
                0x0000000024062fe1       0xb2 cmd/built-in.o
                                         0xbb (size before relaxing)
 .rodata.ubi_wl_get_peb.str1.1
                0x0000000024063093       0x3d drivers/mtd/ubi/built-in.o
                                         0x67 (size before relaxing)
 .rodata.ubi_wl_init.str1.1
                0x00000000240630d0        0xb drivers/mtd/ubi/built-in.o
                                         0x7f (size before relaxing)
 .rodata.ubi_wl_put_peb.str1.1
                0x00000000240630db       0x23 drivers/mtd/ubi/built-in.o
 .rodata.ubi_wl_scrub_peb.str1.1
                0x00000000240630fe       0x26 drivers/mtd/ubi/built-in.o
 .rodata.ubifs_add_bud.str1.1
                0x0000000024063124       0x21 fs/built-in.o
 .rodata.ubifs_add_orphan.str1.1
                0x0000000024063124       0x33 fs/built-in.o
 .rodata.ubifs_budget_space.str1.1
                0x0000000024063157       0x42 fs/built-in.o
                                         0x63 (size before relaxing)
 .rodata.ubifs_calc_lpt_geom.str1.1
                0x0000000024063199       0x6a fs/built-in.o
 .rodata.ubifs_change_one_lp.str1.1
                0x0000000024063203       0x51 fs/built-in.o
 .rodata.ubifs_check_node.str1.1
                0x0000000024063254      0x134 fs/built-in.o
 .rodata.ubifs_consolidate_log.str1.1
                0x0000000024063388       0x34 fs/built-in.o
 .rodata.ubifs_create.constprop.0.str1.1
                0x00000000240633bc       0x49 fs/built-in.o
 .rodata.ubifs_decompress.str1.1
                0x0000000024063405       0xde fs/built-in.o
 .rodata.ubifs_delete_orphan.str1.1
                0x00000000240634e3       0x3b fs/built-in.o
 .rodata.ubifs_dump_leb.str1.1
                0x000000002406351e       0xa2 fs/built-in.o
                                         0xe1 (size before relaxing)
 .rodata.ubifs_dump_lprop.str1.1
                0x00000000240635c0       0xff fs/built-in.o
                                        0x111 (size before relaxing)
 .rodata.ubifs_dump_lprops.str1.1
                0x00000000240636bf       0x91 fs/built-in.o
 .rodata.ubifs_dump_lpt_info.str1.1
                0x0000000024063750      0x215 fs/built-in.o
 .rodata.ubifs_dump_lpt_lebs.str1.1
                0x0000000024063965      0x1e8 fs/built-in.o
                                        0x1f3 (size before relaxing)
 .rodata.ubifs_dump_lstats.str1.1
                0x0000000024063b4d       0xa6 fs/built-in.o
 .rodata.ubifs_dump_node.str1.1
                0x0000000024063bf3      0x81e fs/built-in.o
                                        0x833 (size before relaxing)
 .rodata.ubifs_dump_pnode.str1.1
                0x0000000024064411       0x87 fs/built-in.o
 .rodata.ubifs_dump_sleb.str1.1
                0x0000000024064498       0x56 fs/built-in.o
 .rodata.ubifs_dump_znode.str1.1
                0x00000000240644ee       0xa5 fs/built-in.o
 .rodata.ubifs_end_scan.str1.1
                0x0000000024064593       0x21 fs/built-in.o
 .rodata.ubifs_find_dirty_leb.str1.1
                0x0000000024064593       0x21 fs/built-in.o
 .rodata.ubifs_findfile.str1.1
                0x0000000024064593       0x67 fs/built-in.o
                                         0x68 (size before relaxing)
 .rodata.ubifs_garbage_collect.str1.1
                0x00000000240645fa       0x1c fs/built-in.o
 .rodata.ubifs_get_pnode.str1.1
                0x0000000024064616       0x75 fs/built-in.o
 .rodata.ubifs_iget.str1.1
                0x000000002406468b      0x10f fs/built-in.o
                                        0x130 (size before relaxing)
 .rodata.ubifs_is_mapped.str1.1
                0x000000002406479a       0x4e fs/built-in.o
 .rodata.ubifs_leb_change.str1.1
                0x00000000240647e8       0x51 fs/built-in.o
 .rodata.ubifs_leb_map.str1.1
                0x0000000024064839       0x44 fs/built-in.o
 .rodata.ubifs_leb_read.str1.1
                0x000000002406487d       0x55 fs/built-in.o
 .rodata.ubifs_leb_unmap.str1.1
                0x00000000240648d2       0x42 fs/built-in.o
 .rodata.ubifs_leb_write.str1.1
                0x0000000024064914       0x53 fs/built-in.o
                                         0x74 (size before relaxing)
 .rodata.ubifs_load.str1.1
                0x0000000024064967        0x9 fs/built-in.o
 .rodata.ubifs_load_znode.str1.1
                0x0000000024064967      0x299 fs/built-in.o
 .rodata.ubifs_lpt_end_commit.str1.1
                0x0000000024064c00       0x73 fs/built-in.o
 .rodata.ubifs_lpt_start_commit.str1.1
                0x0000000024064c73       0x6a fs/built-in.o
 .rodata.ubifs_ls.str1.1
                0x0000000024064cdd       0x93 fs/built-in.o
                                         0x95 (size before relaxing)
 .rodata.ubifs_mount.str1.1
                0x0000000024064d70      0x380 fs/built-in.o
                                        0x386 (size before relaxing)
 .rodata.ubifs_mount_orphans.str1.1
                0x00000000240650f0       0xad fs/built-in.o
 .rodata.ubifs_new_inode.str1.1
                0x000000002406519d       0x4a fs/built-in.o
                                         0x63 (size before relaxing)
 .rodata.ubifs_orphan_end_commit.str1.1
                0x00000000240651e7       0x40 fs/built-in.o
 .rodata.ubifs_orphan_start_commit.str1.1
                0x0000000024065227       0x21 fs/built-in.o
 .rodata.ubifs_rcvry_gc_commit.str1.1
                0x0000000024065227       0x38 fs/built-in.o
 .rodata.ubifs_read.str1.1
                0x000000002406525f       0x50 fs/built-in.o
 .rodata.ubifs_read_master.str1.1
                0x00000000240652af       0xd6 fs/built-in.o
 .rodata.ubifs_read_nnode.str1.1
                0x0000000024065385       0x44 fs/built-in.o
 .rodata.ubifs_read_node.str1.1
                0x00000000240653c9      0x116 fs/built-in.o
 .rodata.ubifs_read_one_lp.str1.1
                0x00000000240654df       0x4f fs/built-in.o
 .rodata.ubifs_read_superblock.str1.1
                0x000000002406552e      0x390 fs/built-in.o
 .rodata.ubifs_recover_leb.str1.1
                0x00000000240658be       0xcc fs/built-in.o
                                        0x128 (size before relaxing)
 .rodata.ubifs_recover_log_leb.str1.1
                0x000000002406598a      0x149 fs/built-in.o
 .rodata.ubifs_recover_master_node.str1.1
                0x0000000024065ad3       0xbf fs/built-in.o
 .rodata.ubifs_remove_from_cat.str1.1
                0x0000000024065b92       0x21 fs/built-in.o
 .rodata.ubifs_replay_journal.str1.1
                0x0000000024065b92      0x3c8 fs/built-in.o
 .rodata.ubifs_scan.str1.1
                0x0000000024065f5a      0x19a fs/built-in.o
 .rodata.ubifs_scan_a_node.str1.1
                0x00000000240660f4       0x7d fs/built-in.o
 .rodata.ubifs_scanned_corruption.str1.1
                0x0000000024066171       0x7e fs/built-in.o
                                         0x7f (size before relaxing)
 .rodata.ubifs_start_scan.str1.1
                0x00000000240661ef       0x52 fs/built-in.o
 .rodata.ubifs_tnc_add_nm.str1.1
                0x0000000024066241        0x1 fs/built-in.o
 .rodata.ubifs_tnc_end_commit.str1.1
                0x0000000024066241       0x73 fs/built-in.o
 .rodata.ubifs_tnc_has_node.str1.1
                0x00000000240662b4        0xf fs/built-in.o
                                         0x28 (size before relaxing)
 .rodata.ubifs_tnc_levelorder_next.str1.1
                0x00000000240662c3       0x21 fs/built-in.o
 .rodata.ubifs_tnc_read_node.str1.1
                0x00000000240662c3       0x41 fs/built-in.o
 .rodata.ubifs_tnc_start_commit.str1.1
                0x0000000024066304       0x31 fs/built-in.o
 .rodata.ubifs_umount.str1.1
                0x0000000024066335       0x4a fs/built-in.o
 .rodata.ubifs_update_one_lp.str1.1
                0x000000002406637f       0x51 fs/built-in.o
 .rodata.ubifs_validate_entry.str1.1
                0x00000000240663d0       0x8d fs/built-in.o
 .rodata.ubifs_wbuf_write_nolock.str1.1
                0x000000002406645d       0x51 fs/built-in.o
 .rodata.ubifs_write.str1.1
                0x00000000240664ae       0x51 fs/built-in.o
 .rodata.ubifs_write_master.str1.1
                0x00000000240664ff       0x21 fs/built-in.o
 .rodata.uboot_ubifs_mount.str1.1
                0x00000000240664ff       0x33 fs/built-in.o
 .rodata.uboot_ubifs_umount.str1.1
                0x0000000024066532       0x1d fs/built-in.o
 .rodata.uclass_resolve_seq.str1.1
                0x000000002406654f       0x27 drivers/built-in.o
 .rodata.uuid_bin_to_str.str1.1
                0x0000000024066576        0x5 lib/built-in.o
 .rodata.valid_elf_image.str1.1
                0x0000000024066576       0x52 cmd/built-in.o
 .rodata.validate_ec_hdr.str1.1
                0x00000000240665c8      0x11b drivers/mtd/ubi/built-in.o
 .rodata.validate_gpt_entries.str1.1
                0x00000000240666e3       0x40 disk/built-in.o
 .rodata.validate_gpt_header.str1.1
                0x0000000024066723       0xe1 disk/built-in.o
 .rodata.validate_vid_hdr.str1.1
                0x0000000024066804      0x2bf drivers/mtd/ubi/built-in.o
 .rodata.var_complete.str1.1
                0x0000000024066ac3        0x1 common/built-in.o
 .rodata.version_string
                0x0000000024066ac3       0x51 cmd/built-in.o
                0x0000000024066ac3                version_string
 .rodata.vidconsole_post_probe.str1.1
                0x0000000024066b14       0x18 drivers/built-in.o
 .rodata.video_bmp_display.str1.1
                0x0000000024066b14       0x72 drivers/built-in.o
 .rodata.video_fontdata
                0x0000000024066b86     0x1000 drivers/built-in.o
 .rodata.video_post_bind.str1.1
                0x0000000024067b86       0x66 drivers/built-in.o
 .rodata.video_post_probe.str1.1
                0x0000000024067bec       0x10 drivers/built-in.o
                                         0x1d (size before relaxing)
 .rodata.vtbl_check.str1.1
                0x0000000024067bfc      0x11e drivers/mtd/ubi/built-in.o
 .rodata.wear_leveling_worker.str1.1
                0x0000000024067d1a      0x12e drivers/mtd/ubi/built-in.o
 .rodata.write_gpt_table.str1.1
                0x0000000024067e48       0x55 disk/built-in.o
 .rodata.xmalloc.str1.1
                0x0000000024067e9d       0x1e common/built-in.o
 .rodata.xyzModem_error.str1.1
                0x0000000024067ebb        0xe common/built-in.o
 .rodata.xyzModem_stream_close.str1.1
                0x0000000024067ec9       0x47 common/built-in.o
                                         0x4b (size before relaxing)
 .rodata.xyzModem_stream_open.str1.1
                0x0000000024067f10        0x2 common/built-in.o
 .rodata.zunzip.str1.1
                0x0000000024067f10       0x47 lib/built-in.o

.hash           0x0000000024067f58       0x18
 .hash          0x0000000024067f58       0x18 arch/arm/cpu/armv7m/start.o
                0x0000000024067f70                . = ALIGN (0x4)

.data           0x0000000024067f70     0x2334
 *(.data*)
 .data.rel.ro   0x0000000024067f70        0x0 arch/arm/cpu/armv7m/start.o
 .data.bootm_help_text
                0x0000000024067f70      0x4cf cmd/built-in.o
 *fill*         0x000000002406843f        0x1 
 .data.cmd_bootm_sub
                0x0000000024068440       0xfc cmd/built-in.o
 .data.source_help_text
                0x000000002406853c       0xac cmd/built-in.o
 .data.cmd_blkc_sub
                0x00000000240685e8       0x38 cmd/built-in.o
 .data.clk_help_text
                0x0000000024068620       0x1f cmd/built-in.o
 *fill*         0x000000002406863f        0x1 
 .data.cmd_clk_sub
                0x0000000024068640       0x1c cmd/built-in.o
 .data.test_commands
                0x000000002406865c       0x54 cmd/built-in.o
 .data.fdt_help_text
                0x00000000240686b0      0x769 cmd/built-in.o
 .data.root.1   0x0000000024068e19        0x2 cmd/built-in.o
 .data.tabs.0   0x0000000024068e1b       0x21 cmd/built-in.o
 .data.do_echo  0x0000000024068e3c        0x4 cmd/built-in.o
 .data.dp_last_length
                0x0000000024068e40        0x4 cmd/built-in.o
 .data.cmd_mmc  0x0000000024068e44      0x118 cmd/built-in.o
 .data.curr_device
                0x0000000024068f5c        0x4 cmd/built-in.o
 .data.mtd_help_text
                0x0000000024068f60      0x39a cmd/built-in.o
 *fill*         0x00000000240692fa        0x2 
 .data.mtd_subcmds
                0x00000000240692fc       0xa8 cmd/built-in.o
 .data.pinmux_subcmd
                0x00000000240693a4       0x54 cmd/built-in.o
 .data.imgextract_help_text
                0x00000000240693f8       0xb2 cmd/built-in.o
 *fill*         0x00000000240694aa        0x2 
 .data.cmd_env_sub
                0x00000000240694ac      0x118 cmd/built-in.o
 .data.env_help_text
                0x00000000240695c4      0x259 cmd/built-in.o
 *fill*         0x000000002406981d        0x3 
 .data.env_id   0x0000000024069820        0x4 cmd/built-in.o
 .data.hash_algo
                0x0000000024069824       0x70 common/built-in.o
 .data.reserved_list
                0x0000000024069894       0x84 common/built-in.o
 .data.init_sequence_r
                0x0000000024069918       0x7c common/built-in.o
 .data.of_busses
                0x0000000024069994       0x18 common/built-in.o
 .data.hist_cur
                0x00000000240699ac        0x4 common/built-in.o
 .data.av_      0x00000000240699b0      0x408 common/built-in.o
 .data.sbrk_base
                0x0000000024069db8        0x4 common/built-in.o
 .data.trim_threshold
                0x0000000024069dbc        0x4 common/built-in.o
 .data.load_addr
                0x0000000024069dc0        0x4 common/built-in.o
                0x0000000024069dc0                load_addr
 .data.checksum_algos
                0x0000000024069dc4       0x28 common/built-in.o
                0x0000000024069dc4                checksum_algos
 .data.crypto_algos
                0x0000000024069dec       0x28 common/built-in.o
                0x0000000024069dec                crypto_algos
 .data.padding_algos
                0x0000000024069e14        0x8 common/built-in.o
                0x0000000024069e14                padding_algos
 .data.stdio_names
                0x0000000024069e1c        0xc common/built-in.o
                0x0000000024069e1c                stdio_names
 .data.stm32_clk_ops
                0x0000000024069e28       0x20 drivers/built-in.o
 .data.sys_pll3_psc
                0x0000000024069e48        0x8 drivers/built-in.o
                0x0000000024069e48                sys_pll3_psc
 .data.sys_pll_psc
                0x0000000024069e50        0x8 drivers/built-in.o
                0x0000000024069e50                sys_pll_psc
 .data.stm32_pinctrl_ops
                0x0000000024069e58       0x48 drivers/built-in.o
 .data.stm32_fmc_ops
                0x0000000024069ea0        0x4 drivers/built-in.o
 .data._stats   0x0000000024069ea4       0x14 drivers/built-in.o
 .data.block_cache
                0x0000000024069eb8        0x8 drivers/built-in.o
 .data.stm32_rcc_clk_f42x
                0x0000000024069ec0        0x8 drivers/built-in.o
                0x0000000024069ec0                stm32_rcc_clk_f42x
 .data.stm32_rcc_clk_f469
                0x0000000024069ec8        0x8 drivers/built-in.o
                0x0000000024069ec8                stm32_rcc_clk_f469
 .data.stm32_rcc_clk_f7
                0x0000000024069ed0        0x8 drivers/built-in.o
                0x0000000024069ed0                stm32_rcc_clk_f7
 .data.stm32_rcc_clk_h7
                0x0000000024069ed8        0x8 drivers/built-in.o
                0x0000000024069ed8                stm32_rcc_clk_h7
 .data.stm32_rcc_clk_mp1
                0x0000000024069ee0        0x8 drivers/built-in.o
                0x0000000024069ee0                stm32_rcc_clk_mp1
 .data.console_normal_ops
                0x0000000024069ee8       0x14 drivers/built-in.o
                0x0000000024069ee8                console_normal_ops
 .data.use_defaults.0
                0x0000000024069efc        0x1 drivers/mtd/built-in.o
 *fill*         0x0000000024069efd        0x3 
 .data.eqos_stm32_ops
                0x0000000024069f00       0x38 drivers/net/built-in.o
 .data.eqos_tegra186_ops
                0x0000000024069f38       0x38 drivers/net/built-in.o
 .data.genphy_driver
                0x0000000024069f70       0x34 drivers/net/phy/built-in.o
 .data.phy_drivers
                0x0000000024069fa4        0x8 drivers/net/phy/built-in.o
 .data.lan8700_driver
                0x0000000024069fac       0x34 drivers/net/phy/built-in.o
 .data.lan8710_driver
                0x0000000024069fe0       0x34 drivers/net/phy/built-in.o
 .data.lan8740_driver
                0x000000002406a014       0x34 drivers/net/phy/built-in.o
 .data.lan8741_driver
                0x000000002406a048       0x34 drivers/net/phy/built-in.o
 .data.lan8742_driver
                0x000000002406a07c       0x34 drivers/net/phy/built-in.o
 .data.lan911x_driver
                0x000000002406a0b0       0x34 drivers/net/phy/built-in.o
 .data.stm32f4_info
                0x000000002406a0e4        0x3 drivers/serial/built-in.o
                0x000000002406a0e4                stm32f4_info
 .data.stm32f7_info
                0x000000002406a0e7        0x3 drivers/serial/built-in.o
                0x000000002406a0e7                stm32f7_info
 .data.stm32h7_info
                0x000000002406a0ea        0x3 drivers/serial/built-in.o
                0x000000002406a0ea                stm32h7_info
 *fill*         0x000000002406a0ed        0x3 
 .data.env_htab
                0x000000002406a0f0       0x10 env/built-in.o
                0x000000002406a0f0                env_htab
 .data.first_call
                0x000000002406a100        0x8 env/built-in.o
 .data.fstypes  0x000000002406a108       0xc0 fs/built-in.o
 .data.lzo_compr
                0x000000002406a1c8       0x1c fs/built-in.o
 .data.none_compr
                0x000000002406a1e4       0x1c fs/built-in.o
 .data.zlib_compr
                0x000000002406a200       0x1c fs/built-in.o
 .data.ubifs_fs_type
                0x000000002406a21c       0x1c fs/built-in.o
 .data.sha256_padding
                0x000000002406a238       0x40 lib/built-in.o
 .data.cur      0x000000002406a278        0x4 lib/built-in.o
                0x000000002406a278                cur
 .data.current  0x000000002406a27c        0x4 lib/built-in.o
                0x000000002406a27c                current
 .data.y        0x000000002406a280        0x4 lib/built-in.o
 .data.first_call.0
                0x000000002406a284        0x4 net/built-in.o
 .data.net_native_vlan
                0x000000002406a288        0x2 net/built-in.o
                0x000000002406a288                net_native_vlan
 .data.net_our_vlan
                0x000000002406a28a        0x2 net/built-in.o
                0x000000002406a28a                net_our_vlan
 .data.nfs_offset
                0x000000002406a28c        0x4 net/built-in.o
 .data.supported_nfs_versions
                0x000000002406a290        0x1 net/built-in.o
 *fill*         0x000000002406a291        0x1 
 .data.tftp_block_size
                0x000000002406a292        0x2 net/built-in.o
 .data.tftp_block_size_option
                0x000000002406a294        0x2 net/built-in.o
 *fill*         0x000000002406a296        0x2 
 .data.tftp_timeout_count_max
                0x000000002406a298        0x4 net/built-in.o
                0x000000002406a298                tftp_timeout_count_max
 .data.timeout_count_max
                0x000000002406a29c        0x4 net/built-in.o
 .data.timeout_ms
                0x000000002406a2a0        0x4 net/built-in.o

.got            0x000000002406a2a4        0x0
 .got           0x000000002406a2a4        0x0 arch/arm/cpu/armv7m/start.o

.got.plt        0x000000002406a2a4        0xc
 .got.plt       0x000000002406a2a4        0xc arch/arm/cpu/armv7m/start.o
                0x000000002406a2a4                _GLOBAL_OFFSET_TABLE_

.igot.plt       0x000000002406a2b0        0x0
 .igot.plt      0x000000002406a2b0        0x0 arch/arm/cpu/armv7m/start.o
                0x000000002406a2b0                . = ALIGN (0x4)
                0x000000002406a2b0                . = .
                0x000000002406a2b0                . = ALIGN (0x4)

.u_boot_list    0x000000002406a2b0     0x170c
 *(SORT_BY_NAME(.u_boot_list*))
 .u_boot_list_2_cmd_1
                0x000000002406a2b0        0x0 cmd/built-in.o
 .u_boot_list_2_cmd_1
                0x000000002406a2b0        0x0 common/built-in.o
 .u_boot_list_2_cmd_2_base
                0x000000002406a2b0       0x1c cmd/built-in.o
                0x000000002406a2b0                _u_boot_list_2_cmd_2_base
 .u_boot_list_2_cmd_2_bdinfo
                0x000000002406a2cc       0x1c cmd/built-in.o
                0x000000002406a2cc                _u_boot_list_2_cmd_2_bdinfo
 .u_boot_list_2_cmd_2_blkcache
                0x000000002406a2e8       0x1c cmd/built-in.o
                0x000000002406a2e8                _u_boot_list_2_cmd_2_blkcache
 .u_boot_list_2_cmd_2_boot
                0x000000002406a304       0x1c cmd/built-in.o
                0x000000002406a304                _u_boot_list_2_cmd_2_boot
 .u_boot_list_2_cmd_2_bootd
                0x000000002406a320       0x1c cmd/built-in.o
                0x000000002406a320                _u_boot_list_2_cmd_2_bootd
 .u_boot_list_2_cmd_2_bootelf
                0x000000002406a33c       0x1c cmd/built-in.o
                0x000000002406a33c                _u_boot_list_2_cmd_2_bootelf
 .u_boot_list_2_cmd_2_bootm
                0x000000002406a358       0x1c cmd/built-in.o
                0x000000002406a358                _u_boot_list_2_cmd_2_bootm
 .u_boot_list_2_cmd_2_bootp
                0x000000002406a374       0x1c cmd/built-in.o
                0x000000002406a374                _u_boot_list_2_cmd_2_bootp
 .u_boot_list_2_cmd_2_bootvx
                0x000000002406a390       0x1c cmd/built-in.o
                0x000000002406a390                _u_boot_list_2_cmd_2_bootvx
 .u_boot_list_2_cmd_2_clk
                0x000000002406a3ac       0x1c cmd/built-in.o
                0x000000002406a3ac                _u_boot_list_2_cmd_2_clk
 .u_boot_list_2_cmd_2_cmp
                0x000000002406a3c8       0x1c cmd/built-in.o
                0x000000002406a3c8                _u_boot_list_2_cmd_2_cmp
 .u_boot_list_2_cmd_2_coninfo
                0x000000002406a3e4       0x1c cmd/built-in.o
                0x000000002406a3e4                _u_boot_list_2_cmd_2_coninfo
 .u_boot_list_2_cmd_2_cp
                0x000000002406a400       0x1c cmd/built-in.o
                0x000000002406a400                _u_boot_list_2_cmd_2_cp
 .u_boot_list_2_cmd_2_crc32
                0x000000002406a41c       0x1c cmd/built-in.o
                0x000000002406a41c                _u_boot_list_2_cmd_2_crc32
 .u_boot_list_2_cmd_2_dcache
                0x000000002406a438       0x1c cmd/built-in.o
                0x000000002406a438                _u_boot_list_2_cmd_2_dcache
 .u_boot_list_2_cmd_2_dm
                0x000000002406a454       0x1c cmd/built-in.o
                0x000000002406a454                _u_boot_list_2_cmd_2_dm
 .u_boot_list_2_cmd_2_echo
                0x000000002406a470       0x1c cmd/built-in.o
                0x000000002406a470                _u_boot_list_2_cmd_2_echo
 .u_boot_list_2_cmd_2_editenv
                0x000000002406a48c       0x1c cmd/built-in.o
                0x000000002406a48c                _u_boot_list_2_cmd_2_editenv
 .u_boot_list_2_cmd_2_env
                0x000000002406a4a8       0x1c cmd/built-in.o
                0x000000002406a4a8                _u_boot_list_2_cmd_2_env
 .u_boot_list_2_cmd_2_erase
                0x000000002406a4c4       0x1c cmd/built-in.o
                0x000000002406a4c4                _u_boot_list_2_cmd_2_erase
 .u_boot_list_2_cmd_2_exit
                0x000000002406a4e0       0x1c cmd/built-in.o
                0x000000002406a4e0                _u_boot_list_2_cmd_2_exit
 .u_boot_list_2_cmd_2_false
                0x000000002406a4fc       0x1c cmd/built-in.o
                0x000000002406a4fc                _u_boot_list_2_cmd_2_false
 .u_boot_list_2_cmd_2_fatinfo
                0x000000002406a518       0x1c cmd/built-in.o
                0x000000002406a518                _u_boot_list_2_cmd_2_fatinfo
 .u_boot_list_2_cmd_2_fatload
                0x000000002406a534       0x1c cmd/built-in.o
                0x000000002406a534                _u_boot_list_2_cmd_2_fatload
 .u_boot_list_2_cmd_2_fatls
                0x000000002406a550       0x1c cmd/built-in.o
                0x000000002406a550                _u_boot_list_2_cmd_2_fatls
 .u_boot_list_2_cmd_2_fatsize
                0x000000002406a56c       0x1c cmd/built-in.o
                0x000000002406a56c                _u_boot_list_2_cmd_2_fatsize
 .u_boot_list_2_cmd_2_fdt
                0x000000002406a588       0x1c cmd/built-in.o
                0x000000002406a588                _u_boot_list_2_cmd_2_fdt
 .u_boot_list_2_cmd_2_flinfo
                0x000000002406a5a4       0x1c cmd/built-in.o
                0x000000002406a5a4                _u_boot_list_2_cmd_2_flinfo
 .u_boot_list_2_cmd_2_go
                0x000000002406a5c0       0x1c cmd/built-in.o
                0x000000002406a5c0                _u_boot_list_2_cmd_2_go
 .u_boot_list_2_cmd_2_gpt
                0x000000002406a5dc       0x1c cmd/built-in.o
                0x000000002406a5dc                _u_boot_list_2_cmd_2_gpt
 .u_boot_list_2_cmd_2_help
                0x000000002406a5f8       0x1c cmd/built-in.o
                0x000000002406a5f8                _u_boot_list_2_cmd_2_help
 .u_boot_list_2_cmd_2_icache
                0x000000002406a614       0x1c cmd/built-in.o
                0x000000002406a614                _u_boot_list_2_cmd_2_icache
 .u_boot_list_2_cmd_2_iminfo
                0x000000002406a630       0x1c cmd/built-in.o
                0x000000002406a630                _u_boot_list_2_cmd_2_iminfo
 .u_boot_list_2_cmd_2_imxtract
                0x000000002406a64c       0x1c cmd/built-in.o
                0x000000002406a64c                _u_boot_list_2_cmd_2_imxtract
 .u_boot_list_2_cmd_2_itest
                0x000000002406a668       0x1c cmd/built-in.o
                0x000000002406a668                _u_boot_list_2_cmd_2_itest
 .u_boot_list_2_cmd_2_lcdputs
                0x000000002406a684       0x1c drivers/built-in.o
                0x000000002406a684                _u_boot_list_2_cmd_2_lcdputs
 .u_boot_list_2_cmd_2_loadb
                0x000000002406a6a0       0x1c cmd/built-in.o
                0x000000002406a6a0                _u_boot_list_2_cmd_2_loadb
 .u_boot_list_2_cmd_2_loads
                0x000000002406a6bc       0x1c cmd/built-in.o
                0x000000002406a6bc                _u_boot_list_2_cmd_2_loads
 .u_boot_list_2_cmd_2_loadx
                0x000000002406a6d8       0x1c cmd/built-in.o
                0x000000002406a6d8                _u_boot_list_2_cmd_2_loadx
 .u_boot_list_2_cmd_2_loady
                0x000000002406a6f4       0x1c cmd/built-in.o
                0x000000002406a6f4                _u_boot_list_2_cmd_2_loady
 .u_boot_list_2_cmd_2_loop
                0x000000002406a710       0x1c cmd/built-in.o
                0x000000002406a710                _u_boot_list_2_cmd_2_loop
 .u_boot_list_2_cmd_2_md
                0x000000002406a72c       0x1c cmd/built-in.o
                0x000000002406a72c                _u_boot_list_2_cmd_2_md
 .u_boot_list_2_cmd_2_mdio
                0x000000002406a748       0x1c cmd/built-in.o
                0x000000002406a748                _u_boot_list_2_cmd_2_mdio
 .u_boot_list_2_cmd_2_mii
                0x000000002406a764       0x1c cmd/built-in.o
                0x000000002406a764                _u_boot_list_2_cmd_2_mii
 .u_boot_list_2_cmd_2_mm
                0x000000002406a780       0x1c cmd/built-in.o
                0x000000002406a780                _u_boot_list_2_cmd_2_mm
 .u_boot_list_2_cmd_2_mmc
                0x000000002406a79c       0x1c cmd/built-in.o
                0x000000002406a79c                _u_boot_list_2_cmd_2_mmc
 .u_boot_list_2_cmd_2_mmcinfo
                0x000000002406a7b8       0x1c cmd/built-in.o
                0x000000002406a7b8                _u_boot_list_2_cmd_2_mmcinfo
 .u_boot_list_2_cmd_2_mtd
                0x000000002406a7d4       0x1c cmd/built-in.o
                0x000000002406a7d4                _u_boot_list_2_cmd_2_mtd
 .u_boot_list_2_cmd_2_mtest
                0x000000002406a7f0       0x1c cmd/built-in.o
                0x000000002406a7f0                _u_boot_list_2_cmd_2_mtest
 .u_boot_list_2_cmd_2_mw
                0x000000002406a80c       0x1c cmd/built-in.o
                0x000000002406a80c                _u_boot_list_2_cmd_2_mw
 .u_boot_list_2_cmd_2_nfs
                0x000000002406a828       0x1c cmd/built-in.o
                0x000000002406a828                _u_boot_list_2_cmd_2_nfs
 .u_boot_list_2_cmd_2_nm
                0x000000002406a844       0x1c cmd/built-in.o
                0x000000002406a844                _u_boot_list_2_cmd_2_nm
 .u_boot_list_2_cmd_2_pinmux
                0x000000002406a860       0x1c cmd/built-in.o
                0x000000002406a860                _u_boot_list_2_cmd_2_pinmux
 .u_boot_list_2_cmd_2_printenv
                0x000000002406a87c       0x1c cmd/built-in.o
                0x000000002406a87c                _u_boot_list_2_cmd_2_printenv
 .u_boot_list_2_cmd_2_protect
                0x000000002406a898       0x1c cmd/built-in.o
                0x000000002406a898                _u_boot_list_2_cmd_2_protect
 .u_boot_list_2_cmd_2_question_mark
                0x000000002406a8b4       0x1c cmd/built-in.o
                0x000000002406a8b4                _u_boot_list_2_cmd_2_question_mark
 .u_boot_list_2_cmd_2_reset
                0x000000002406a8d0       0x1c cmd/built-in.o
                0x000000002406a8d0                _u_boot_list_2_cmd_2_reset
 .u_boot_list_2_cmd_2_run
                0x000000002406a8ec       0x1c cmd/built-in.o
                0x000000002406a8ec                _u_boot_list_2_cmd_2_run
 .u_boot_list_2_cmd_2_saveenv
                0x000000002406a908       0x1c cmd/built-in.o
                0x000000002406a908                _u_boot_list_2_cmd_2_saveenv
 .u_boot_list_2_cmd_2_setcurs
                0x000000002406a924       0x1c drivers/built-in.o
                0x000000002406a924                _u_boot_list_2_cmd_2_setcurs
 .u_boot_list_2_cmd_2_setenv
                0x000000002406a940       0x1c cmd/built-in.o
                0x000000002406a940                _u_boot_list_2_cmd_2_setenv
 .u_boot_list_2_cmd_2_sf
                0x000000002406a95c       0x1c cmd/built-in.o
                0x000000002406a95c                _u_boot_list_2_cmd_2_sf
 .u_boot_list_2_cmd_2_showvar
                0x000000002406a978       0x1c common/built-in.o
                0x000000002406a978                _u_boot_list_2_cmd_2_showvar
 .u_boot_list_2_cmd_2_sleep
                0x000000002406a994       0x1c cmd/built-in.o
                0x000000002406a994                _u_boot_list_2_cmd_2_sleep
 .u_boot_list_2_cmd_2_source
                0x000000002406a9b0       0x1c cmd/built-in.o
                0x000000002406a9b0                _u_boot_list_2_cmd_2_source
 .u_boot_list_2_cmd_2_test
                0x000000002406a9cc       0x1c cmd/built-in.o
                0x000000002406a9cc                _u_boot_list_2_cmd_2_test
 .u_boot_list_2_cmd_2_tftpboot
                0x000000002406a9e8       0x1c cmd/built-in.o
                0x000000002406a9e8                _u_boot_list_2_cmd_2_tftpboot
 .u_boot_list_2_cmd_2_timer
                0x000000002406aa04       0x1c cmd/built-in.o
                0x000000002406aa04                _u_boot_list_2_cmd_2_timer
 .u_boot_list_2_cmd_2_true
                0x000000002406aa20       0x1c cmd/built-in.o
                0x000000002406aa20                _u_boot_list_2_cmd_2_true
 .u_boot_list_2_cmd_2_ubi
                0x000000002406aa3c       0x1c cmd/built-in.o
                0x000000002406aa3c                _u_boot_list_2_cmd_2_ubi
 .u_boot_list_2_cmd_2_ubifsload
                0x000000002406aa58       0x1c cmd/built-in.o
                0x000000002406aa58                _u_boot_list_2_cmd_2_ubifsload
 .u_boot_list_2_cmd_2_ubifsls
                0x000000002406aa74       0x1c cmd/built-in.o
                0x000000002406aa74                _u_boot_list_2_cmd_2_ubifsls
 .u_boot_list_2_cmd_2_ubifsmkdir
                0x000000002406aa90       0x1c cmd/built-in.o
                0x000000002406aa90                _u_boot_list_2_cmd_2_ubifsmkdir
 .u_boot_list_2_cmd_2_ubifsmount
                0x000000002406aaac       0x1c cmd/built-in.o
                0x000000002406aaac                _u_boot_list_2_cmd_2_ubifsmount
 .u_boot_list_2_cmd_2_ubifsrmdir
                0x000000002406aac8       0x1c cmd/built-in.o
                0x000000002406aac8                _u_boot_list_2_cmd_2_ubifsrmdir
 .u_boot_list_2_cmd_2_ubifsumount
                0x000000002406aae4       0x1c cmd/built-in.o
                0x000000002406aae4                _u_boot_list_2_cmd_2_ubifsumount
 .u_boot_list_2_cmd_2_ubifsunlink
                0x000000002406ab00       0x1c cmd/built-in.o
                0x000000002406ab00                _u_boot_list_2_cmd_2_ubifsunlink
 .u_boot_list_2_cmd_2_ubifswrite
                0x000000002406ab1c       0x1c cmd/built-in.o
                0x000000002406ab1c                _u_boot_list_2_cmd_2_ubifswrite
 .u_boot_list_2_cmd_2_version
                0x000000002406ab38       0x1c cmd/built-in.o
                0x000000002406ab38                _u_boot_list_2_cmd_2_version
 .u_boot_list_2_cmd_3
                0x000000002406ab54        0x0 cmd/built-in.o
 .u_boot_list_2_cmd_3
                0x000000002406ab54        0x0 common/built-in.o
 .u_boot_list_2_driver_1
                0x000000002406ab54        0x0 drivers/built-in.o
 .u_boot_list_2_driver_2_clk_fixed_factor
                0x000000002406ab54       0x44 drivers/built-in.o
                0x000000002406ab54                _u_boot_list_2_driver_2_clk_fixed_factor
 .u_boot_list_2_driver_2_clk_fixed_rate
                0x000000002406ab98       0x44 drivers/built-in.o
                0x000000002406ab98                _u_boot_list_2_driver_2_clk_fixed_rate
 .u_boot_list_2_driver_2_eth_eqos
                0x000000002406abdc       0x44 drivers/net/built-in.o
                0x000000002406abdc                _u_boot_list_2_driver_2_eth_eqos
 .u_boot_list_2_driver_2_generic_syscon
                0x000000002406ac20       0x44 drivers/built-in.o
                0x000000002406ac20                _u_boot_list_2_driver_2_generic_syscon
 .u_boot_list_2_driver_2_gpio_backlight
                0x000000002406ac64       0x44 drivers/built-in.o
                0x000000002406ac64                _u_boot_list_2_driver_2_gpio_backlight
 .u_boot_list_2_driver_2_gpio_stm32
                0x000000002406aca8       0x44 drivers/gpio/built-in.o
                0x000000002406aca8                _u_boot_list_2_driver_2_gpio_stm32
 .u_boot_list_2_driver_2_mmc
                0x000000002406acec       0x44 drivers/built-in.o
                0x000000002406acec                _u_boot_list_2_driver_2_mmc
 .u_boot_list_2_driver_2_mmc_blk
                0x000000002406ad30       0x44 drivers/built-in.o
                0x000000002406ad30                _u_boot_list_2_driver_2_mmc_blk
 .u_boot_list_2_driver_2_mod_exp_sw
                0x000000002406ad74       0x44 drivers/built-in.o
                0x000000002406ad74                _u_boot_list_2_driver_2_mod_exp_sw
 .u_boot_list_2_driver_2_pinctrl_stm32
                0x000000002406adb8       0x44 drivers/built-in.o
                0x000000002406adb8                _u_boot_list_2_driver_2_pinctrl_stm32
 .u_boot_list_2_driver_2_root_driver
                0x000000002406adfc       0x44 drivers/built-in.o
                0x000000002406adfc                _u_boot_list_2_driver_2_root_driver
 .u_boot_list_2_driver_2_serial_stm32
                0x000000002406ae40       0x44 drivers/serial/built-in.o
                0x000000002406ae40                _u_boot_list_2_driver_2_serial_stm32
 .u_boot_list_2_driver_2_simple_bus_drv
                0x000000002406ae84       0x44 drivers/built-in.o
                0x000000002406ae84                _u_boot_list_2_driver_2_simple_bus_drv
 .u_boot_list_2_driver_2_simple_panel
                0x000000002406aec8       0x44 drivers/built-in.o
                0x000000002406aec8                _u_boot_list_2_driver_2_simple_panel
 .u_boot_list_2_driver_2_spi_flash_std
                0x000000002406af0c       0x44 drivers/mtd/spi/built-in.o
                0x000000002406af0c                _u_boot_list_2_driver_2_spi_flash_std
 .u_boot_list_2_driver_2_spi_generic_drv
                0x000000002406af50       0x44 drivers/spi/built-in.o
                0x000000002406af50                _u_boot_list_2_driver_2_spi_generic_drv
 .u_boot_list_2_driver_2_stm32_fmc
                0x000000002406af94       0x44 drivers/built-in.o
                0x000000002406af94                _u_boot_list_2_driver_2_stm32_fmc
 .u_boot_list_2_driver_2_stm32_ltdc
                0x000000002406afd8       0x44 drivers/built-in.o
                0x000000002406afd8                _u_boot_list_2_driver_2_stm32_ltdc
 .u_boot_list_2_driver_2_stm32_qspi
                0x000000002406b01c       0x44 drivers/spi/built-in.o
                0x000000002406b01c                _u_boot_list_2_driver_2_stm32_qspi
 .u_boot_list_2_driver_2_stm32_rcc
                0x000000002406b060       0x44 drivers/built-in.o
                0x000000002406b060                _u_boot_list_2_driver_2_stm32_rcc
 .u_boot_list_2_driver_2_stm32_rcc_reset
                0x000000002406b0a4       0x44 drivers/built-in.o
                0x000000002406b0a4                _u_boot_list_2_driver_2_stm32_rcc_reset
 .u_boot_list_2_driver_2_stm32_sdmmc2
                0x000000002406b0e8       0x44 drivers/built-in.o
                0x000000002406b0e8                _u_boot_list_2_driver_2_stm32_sdmmc2
 .u_boot_list_2_driver_2_stm32_timer
                0x000000002406b12c       0x44 drivers/built-in.o
                0x000000002406b12c                _u_boot_list_2_driver_2_stm32_timer
 .u_boot_list_2_driver_2_stm32h7_clk
                0x000000002406b170       0x44 drivers/built-in.o
                0x000000002406b170                _u_boot_list_2_driver_2_stm32h7_clk
 .u_boot_list_2_driver_2_syscon_stm32
                0x000000002406b1b4       0x44 arch/arm/mach-stm32/built-in.o
                0x000000002406b1b4                _u_boot_list_2_driver_2_syscon_stm32
 .u_boot_list_2_driver_2_vidconsole_normal
                0x000000002406b1f8       0x44 drivers/built-in.o
                0x000000002406b1f8                _u_boot_list_2_driver_2_vidconsole_normal
 .u_boot_list_2_driver_3
                0x000000002406b23c        0x0 drivers/built-in.o
 .u_boot_list_2_driver_info_1
                0x000000002406b23c        0x0 drivers/built-in.o
 .u_boot_list_2_driver_info_2_mod_exp_sw
                0x000000002406b23c        0x8 drivers/built-in.o
                0x000000002406b23c                _u_boot_list_2_driver_info_2_mod_exp_sw
 .u_boot_list_2_driver_info_3
                0x000000002406b244        0x0 drivers/built-in.o
 .u_boot_list_2_env_clbk_1
                0x000000002406b244        0x0 env/built-in.o
 .u_boot_list_2_env_clbk_2_baudrate
                0x000000002406b244        0x8 drivers/serial/built-in.o
                0x000000002406b244                _u_boot_list_2_env_clbk_2_baudrate
 .u_boot_list_2_env_clbk_2_callbacks
                0x000000002406b24c        0x8 env/built-in.o
                0x000000002406b24c                _u_boot_list_2_env_clbk_2_callbacks
 .u_boot_list_2_env_clbk_2_console
                0x000000002406b254        0x8 common/built-in.o
                0x000000002406b254                _u_boot_list_2_env_clbk_2_console
 .u_boot_list_2_env_clbk_2_ethaddr
                0x000000002406b25c        0x8 net/built-in.o
                0x000000002406b25c                _u_boot_list_2_env_clbk_2_ethaddr
 .u_boot_list_2_env_clbk_2_flags
                0x000000002406b264        0x8 env/built-in.o
                0x000000002406b264                _u_boot_list_2_env_clbk_2_flags
 .u_boot_list_2_env_clbk_2_gatewayip
                0x000000002406b26c        0x8 net/built-in.o
                0x000000002406b26c                _u_boot_list_2_env_clbk_2_gatewayip
 .u_boot_list_2_env_clbk_2_ipaddr
                0x000000002406b274        0x8 net/built-in.o
                0x000000002406b274                _u_boot_list_2_env_clbk_2_ipaddr
 .u_boot_list_2_env_clbk_2_loadaddr
                0x000000002406b27c        0x8 common/built-in.o
                0x000000002406b27c                _u_boot_list_2_env_clbk_2_loadaddr
 .u_boot_list_2_env_clbk_2_netmask
                0x000000002406b284        0x8 net/built-in.o
                0x000000002406b284                _u_boot_list_2_env_clbk_2_netmask
 .u_boot_list_2_env_clbk_2_nvlan
                0x000000002406b28c        0x8 net/built-in.o
                0x000000002406b28c                _u_boot_list_2_env_clbk_2_nvlan
 .u_boot_list_2_env_clbk_2_serverip
                0x000000002406b294        0x8 net/built-in.o
                0x000000002406b294                _u_boot_list_2_env_clbk_2_serverip
 .u_boot_list_2_env_clbk_2_vlan
                0x000000002406b29c        0x8 net/built-in.o
                0x000000002406b29c                _u_boot_list_2_env_clbk_2_vlan
 .u_boot_list_2_env_clbk_3
                0x000000002406b2a4        0x0 env/built-in.o
 .u_boot_list_2_env_driver_1
                0x000000002406b2a4        0x0 env/built-in.o
 .u_boot_list_2_env_driver_2_ubi
                0x000000002406b2a4       0x14 env/built-in.o
                0x000000002406b2a4                _u_boot_list_2_env_driver_2_ubi
 .u_boot_list_2_env_driver_3
                0x000000002406b2b8        0x0 env/built-in.o
 .u_boot_list_2_fit_loadable_1
                0x000000002406b2b8        0x0 common/built-in.o
 .u_boot_list_2_fit_loadable_3
                0x000000002406b2b8        0x0 common/built-in.o
 .u_boot_list_2_part_driver_1
                0x000000002406b2b8        0x0 disk/built-in.o
 .u_boot_list_2_part_driver_2_a_efi
                0x000000002406b2b8       0x18 disk/built-in.o
                0x000000002406b2b8                _u_boot_list_2_part_driver_2_a_efi
 .u_boot_list_2_part_driver_2_dos
                0x000000002406b2d0       0x18 disk/built-in.o
                0x000000002406b2d0                _u_boot_list_2_part_driver_2_dos
 .u_boot_list_2_part_driver_3
                0x000000002406b2e8        0x0 disk/built-in.o
 .u_boot_list_2_uclass_1
                0x000000002406b2e8        0x0 drivers/built-in.o
 .u_boot_list_2_uclass_2_backlight
                0x000000002406b2e8       0x4c drivers/built-in.o
                0x000000002406b2e8                _u_boot_list_2_uclass_2_backlight
 .u_boot_list_2_uclass_2_blk
                0x000000002406b334       0x4c drivers/built-in.o
                0x000000002406b334                _u_boot_list_2_uclass_2_blk
 .u_boot_list_2_uclass_2_clk
                0x000000002406b380       0x4c drivers/built-in.o
                0x000000002406b380                _u_boot_list_2_uclass_2_clk
 .u_boot_list_2_uclass_2_eth
                0x000000002406b3cc       0x4c net/built-in.o
                0x000000002406b3cc                _u_boot_list_2_uclass_2_eth
 .u_boot_list_2_uclass_2_gpio
                0x000000002406b418       0x4c drivers/gpio/built-in.o
                0x000000002406b418                _u_boot_list_2_uclass_2_gpio
 .u_boot_list_2_uclass_2_misc
                0x000000002406b464       0x4c drivers/built-in.o
                0x000000002406b464                _u_boot_list_2_uclass_2_misc
 .u_boot_list_2_uclass_2_mmc
                0x000000002406b4b0       0x4c drivers/built-in.o
                0x000000002406b4b0                _u_boot_list_2_uclass_2_mmc
 .u_boot_list_2_uclass_2_mod_exp
                0x000000002406b4fc       0x4c drivers/built-in.o
                0x000000002406b4fc                _u_boot_list_2_uclass_2_mod_exp
 .u_boot_list_2_uclass_2_mtd
                0x000000002406b548       0x4c drivers/mtd/built-in.o
                0x000000002406b548                _u_boot_list_2_uclass_2_mtd
 .u_boot_list_2_uclass_2_panel
                0x000000002406b594       0x4c drivers/built-in.o
                0x000000002406b594                _u_boot_list_2_uclass_2_panel
 .u_boot_list_2_uclass_2_pinctrl
                0x000000002406b5e0       0x4c drivers/built-in.o
                0x000000002406b5e0                _u_boot_list_2_uclass_2_pinctrl
 .u_boot_list_2_uclass_2_ram
                0x000000002406b62c       0x4c drivers/built-in.o
                0x000000002406b62c                _u_boot_list_2_uclass_2_ram
 .u_boot_list_2_uclass_2_reset
                0x000000002406b678       0x4c drivers/built-in.o
                0x000000002406b678                _u_boot_list_2_uclass_2_reset
 .u_boot_list_2_uclass_2_root
                0x000000002406b6c4       0x4c drivers/built-in.o
                0x000000002406b6c4                _u_boot_list_2_uclass_2_root
 .u_boot_list_2_uclass_2_serial
                0x000000002406b710       0x4c drivers/serial/built-in.o
                0x000000002406b710                _u_boot_list_2_uclass_2_serial
 .u_boot_list_2_uclass_2_simple_bus
                0x000000002406b75c       0x4c drivers/built-in.o
                0x000000002406b75c                _u_boot_list_2_uclass_2_simple_bus
 .u_boot_list_2_uclass_2_spi
                0x000000002406b7a8       0x4c drivers/spi/built-in.o
                0x000000002406b7a8                _u_boot_list_2_uclass_2_spi
 .u_boot_list_2_uclass_2_spi_generic
                0x000000002406b7f4       0x4c drivers/spi/built-in.o
                0x000000002406b7f4                _u_boot_list_2_uclass_2_spi_generic
 .u_boot_list_2_uclass_2_spi_nor
                0x000000002406b840       0x4c drivers/mtd/spi/built-in.o
                0x000000002406b840                _u_boot_list_2_uclass_2_spi_nor
 .u_boot_list_2_uclass_2_syscon
                0x000000002406b88c       0x4c drivers/built-in.o
                0x000000002406b88c                _u_boot_list_2_uclass_2_syscon
 .u_boot_list_2_uclass_2_timer
                0x000000002406b8d8       0x4c drivers/built-in.o
                0x000000002406b8d8                _u_boot_list_2_uclass_2_timer
 .u_boot_list_2_uclass_2_vidconsole
                0x000000002406b924       0x4c drivers/built-in.o
                0x000000002406b924                _u_boot_list_2_uclass_2_vidconsole
 .u_boot_list_2_uclass_2_video
                0x000000002406b970       0x4c drivers/built-in.o
                0x000000002406b970                _u_boot_list_2_uclass_2_video
 .u_boot_list_2_uclass_3
                0x000000002406b9bc        0x0 drivers/built-in.o
                0x000000002406b9bc                . = ALIGN (0x4)

.efi_runtime_rel_start
 *(.__efi_runtime_rel_start)

.efi_runtime_rel
 *(.rel*.efi_runtime)
 *(.rel*.efi_runtime.*)

.efi_runtime_rel_stop
 *(.__efi_runtime_rel_stop)
                0x000000002406b9bc                . = ALIGN (0x4)

.image_copy_end
                0x000000002406b9bc        0x0
 *(.__image_copy_end)
 .__image_copy_end
                0x000000002406b9bc        0x0 arch/arm/lib/built-in.o

.rel_dyn_start  0x000000002406b9bc        0x0
 *(.__rel_dyn_start)
 .__rel_dyn_start
                0x000000002406b9bc        0x0 arch/arm/lib/built-in.o

.rel.dyn        0x000000002406b9bc     0xc8f0
 *(.rel*)
 .rel.got       0x000000002406b9bc        0x0 arch/arm/cpu/armv7m/start.o
 .rel.plt       0x000000002406b9bc        0x0 arch/arm/cpu/armv7m/start.o
 .rel.bss       0x000000002406b9bc        0x0 arch/arm/cpu/armv7m/start.o
 .rel.data.rel.ro
                0x000000002406b9bc        0x0 arch/arm/cpu/armv7m/start.o
 .rel.iplt      0x000000002406b9bc        0x0 arch/arm/cpu/armv7m/start.o
 .rel.text.action_dcache_all
                0x000000002406b9bc        0x8 arch/arm/cpu/armv7m/start.o
 .rel.text.dcache_enable
                0x000000002406b9c4        0x8 arch/arm/cpu/armv7m/start.o
 .rel.text.dcache_disable
                0x000000002406b9cc        0x8 arch/arm/cpu/armv7m/start.o
 .rel.text.flush_dcache_all
                0x000000002406b9d4        0x8 arch/arm/cpu/armv7m/start.o
 .rel.text.invalidate_dcache_all
                0x000000002406b9dc        0x8 arch/arm/cpu/armv7m/start.o
 .rel.text      0x000000002406b9e4       0x18 arch/arm/cpu/armv7m/start.o
 .rel.text.relocate_vectors
                0x000000002406b9fc       0x20 arch/arm/cpu/armv7m/start.o
 .rel.text.boot_jump_linux
                0x000000002406ba1c       0x28 arch/arm/cpu/armv7m/start.o
 .rel.text.boot_prep_linux
                0x000000002406ba44       0x18 arch/arm/cpu/armv7m/start.o
 .rel.text.boot_prep_vxworks
                0x000000002406ba5c       0x10 arch/arm/cpu/armv7m/start.o
 .rel.text.dump_regs
                0x000000002406ba6c       0x10 arch/arm/cpu/armv7m/start.o
 .rel.text.bad_mode
                0x000000002406ba7c        0x8 arch/arm/cpu/armv7m/start.o
 .rel.text.do_hard_fault
                0x000000002406ba84        0x8 arch/arm/cpu/armv7m/start.o
 .rel.text.do_mm_fault
                0x000000002406ba8c        0x8 arch/arm/cpu/armv7m/start.o
 .rel.text.do_bus_fault
                0x000000002406ba94        0x8 arch/arm/cpu/armv7m/start.o
 .rel.text.do_usage_fault
                0x000000002406ba9c        0x8 arch/arm/cpu/armv7m/start.o
 .rel.text.do_invalid_entry
                0x000000002406baa4        0x8 arch/arm/cpu/armv7m/start.o
 .rel.text.do_reset
                0x000000002406baac        0x8 arch/arm/cpu/armv7m/start.o
 .rel.text.stm32_syscon_probe
                0x000000002406bab4       0x18 arch/arm/cpu/armv7m/start.o
 .rel.rodata.stm32_syscon_ids
                0x000000002406bacc        0x8 arch/arm/cpu/armv7m/start.o
 .rel.u_boot_list_2_driver_2_syscon_stm32
                0x000000002406bad4       0x20 arch/arm/cpu/armv7m/start.o
 .rel.text.arch_early_init_r
                0x000000002406baf4        0x8 arch/arm/cpu/armv7m/start.o
 .rel.text.dram_init
                0x000000002406bafc       0x28 arch/arm/cpu/armv7m/start.o
 .rel.text.board_late_init
                0x000000002406bb24       0xb8 arch/arm/cpu/armv7m/start.o
 .rel.text.do_go
                0x000000002406bbdc       0x10 arch/arm/cpu/armv7m/start.o
 .rel.text.do_bootm
                0x000000002406bbec       0x18 arch/arm/cpu/armv7m/start.o
 .rel.text.do_bootd
                0x000000002406bc04        0x8 arch/arm/cpu/armv7m/start.o
 .rel.text.image_info
                0x000000002406bc0c       0x28 arch/arm/cpu/armv7m/start.o
 .rel.text.do_iminfo
                0x000000002406bc34        0x8 arch/arm/cpu/armv7m/start.o
 .rel.text.bootm_maybe_autostart
                0x000000002406bc3c       0x20 arch/arm/cpu/armv7m/start.o
 .rel.text.do_help
                0x000000002406bc5c       0x10 arch/arm/cpu/armv7m/start.o
 .rel.text.do_version
                0x000000002406bc6c       0x10 arch/arm/cpu/armv7m/start.o
 .rel.text.source
                0x000000002406bc7c       0x50 arch/arm/cpu/armv7m/start.o
 .rel.text.do_source
                0x000000002406bccc       0x10 arch/arm/cpu/armv7m/start.o
 .rel.text.print_num
                0x000000002406bcdc        0x8 arch/arm/cpu/armv7m/start.o
 .rel.text.do_bdinfo
                0x000000002406bce4       0x68 arch/arm/cpu/armv7m/start.o
 .rel.text.do_blkcache
                0x000000002406bd4c        0x8 arch/arm/cpu/armv7m/start.o
 .rel.text.blkc_configure
                0x000000002406bd54        0x8 arch/arm/cpu/armv7m/start.o
 .rel.text.blkc_show
                0x000000002406bd5c        0x8 arch/arm/cpu/armv7m/start.o
 .rel.text.parse_argv
                0x000000002406bd64       0x18 arch/arm/cpu/armv7m/start.o
 .rel.text.do_icache
                0x000000002406bd7c       0x18 arch/arm/cpu/armv7m/start.o
 .rel.text.do_dcache
                0x000000002406bd94       0x18 arch/arm/cpu/armv7m/start.o
 .rel.text.do_clk
                0x000000002406bdac        0x8 arch/arm/cpu/armv7m/start.o
 .rel.text.soc_clk_dump
                0x000000002406bdb4       0x10 arch/arm/cpu/armv7m/start.o
 .rel.text.do_clk_dump
                0x000000002406bdc4        0x8 arch/arm/cpu/armv7m/start.o
 .rel.text.do_coninfo
                0x000000002406bdcc       0x30 arch/arm/cpu/armv7m/start.o
 .rel.text.do_dm
                0x000000002406bdfc        0x8 arch/arm/cpu/armv7m/start.o
 .rel.text.do_echo
                0x000000002406be04        0x8 arch/arm/cpu/armv7m/start.o
 .rel.text.valid_elf_image
                0x000000002406be0c       0x10 arch/arm/cpu/armv7m/start.o
 .rel.text.do_bootelf
                0x000000002406be1c       0x28 arch/arm/cpu/armv7m/start.o
 .rel.text.do_bootvx
                0x000000002406be44       0xe0 arch/arm/cpu/armv7m/start.o
 .rel.text.do_fat_fsinfo
                0x000000002406bf24       0x10 arch/arm/cpu/armv7m/start.o
 .rel.text.fdt_valid
                0x000000002406bf34       0x28 arch/arm/cpu/armv7m/start.o
 .rel.text.is_printable_string
                0x000000002406bf5c        0x8 arch/arm/cpu/armv7m/start.o
 .rel.text.print_data.part.0
                0x000000002406bf64       0x58 arch/arm/cpu/armv7m/start.o
 .rel.text.set_working_fdt_addr
                0x000000002406bfbc       0x10 arch/arm/cpu/armv7m/start.o
 .rel.text.do_fdt
                0x000000002406bfcc      0x288 arch/arm/cpu/armv7m/start.o
 .rel.text.flash_fill_sect_ranges
                0x000000002406c254       0x28 arch/arm/cpu/armv7m/start.o
 .rel.text.abbrev_spec
                0x000000002406c27c        0x8 arch/arm/cpu/armv7m/start.o
 .rel.text.do_flinfo
                0x000000002406c284       0x18 arch/arm/cpu/armv7m/start.o
 .rel.text.flash_sect_roundb
                0x000000002406c29c       0x10 arch/arm/cpu/armv7m/start.o
 .rel.text.flash_sect_erase
                0x000000002406c2ac       0x18 arch/arm/cpu/armv7m/start.o
 .rel.text.do_flerase
                0x000000002406c2c4       0x40 arch/arm/cpu/armv7m/start.o
 .rel.text.flash_sect_protect
                0x000000002406c304       0x28 arch/arm/cpu/armv7m/start.o
 .rel.text.do_protect
                0x000000002406c32c       0x68 arch/arm/cpu/armv7m/start.o
 .rel.text.binary_test
                0x000000002406c394       0x18 arch/arm/cpu/armv7m/start.o
 .rel.text.do_itest
                0x000000002406c3ac        0x8 arch/arm/cpu/armv7m/start.o
 .rel.text.bin_data_init
                0x000000002406c3b4       0x18 arch/arm/cpu/armv7m/start.o
 .rel.text.k_data_save
                0x000000002406c3cc       0x30 arch/arm/cpu/armv7m/start.o
 .rel.text.k_data_restore
                0x000000002406c3fc       0x30 arch/arm/cpu/armv7m/start.o
 .rel.text.bin_data_char
                0x000000002406c42c       0x10 arch/arm/cpu/armv7m/start.o
 .rel.text.chk1.constprop.0
                0x000000002406c43c        0x8 arch/arm/cpu/armv7m/start.o
 .rel.text.s1_sendpacket.constprop.0
                0x000000002406c444       0x18 arch/arm/cpu/armv7m/start.o
 .rel.text.load_serial
                0x000000002406c45c       0x20 arch/arm/cpu/armv7m/start.o
 .rel.text.do_load_serial
                0x000000002406c47c       0x30 arch/arm/cpu/armv7m/start.o
 .rel.text.load_serial_ymodem.isra.0
                0x000000002406c4ac       0x20 arch/arm/cpu/armv7m/start.o
 .rel.text.do_load_serial_bin
                0x000000002406c4cc      0x118 arch/arm/cpu/armv7m/start.o
 .rel.text.do_mem_md
                0x000000002406c5e4       0x20 arch/arm/cpu/armv7m/start.o
 .rel.text.do_mem_base
                0x000000002406c604       0x10 arch/arm/cpu/armv7m/start.o
 .rel.text.do_mem_crc
                0x000000002406c614        0x8 arch/arm/cpu/armv7m/start.o
 .rel.text.do_mem_mtest
                0x000000002406c61c       0x40 arch/arm/cpu/armv7m/start.o
 .rel.text.do_mem_mw
                0x000000002406c65c        0x8 arch/arm/cpu/armv7m/start.o
 .rel.text.do_mem_cmp
                0x000000002406c664       0x38 arch/arm/cpu/armv7m/start.o
 .rel.text.mod_mem.part.0
                0x000000002406c69c       0x48 arch/arm/cpu/armv7m/start.o
 .rel.text.do_mem_cp
                0x000000002406c6e4       0x20 arch/arm/cpu/armv7m/start.o
 .rel.text.do_mii
                0x000000002406c704      0x178 arch/arm/cpu/armv7m/start.o
 .rel.text.do_mdio
                0x000000002406c87c       0x70 arch/arm/cpu/armv7m/start.o
 .rel.text.do_timer
                0x000000002406c8ec       0x20 arch/arm/cpu/armv7m/start.o
 .rel.text.do_mmcops
                0x000000002406c90c       0x20 arch/arm/cpu/armv7m/start.o
 .rel.text.do_mmc_setdsr
                0x000000002406c92c       0x28 arch/arm/cpu/armv7m/start.o
 .rel.text.init_mmc_device
                0x000000002406c954        0x8 arch/arm/cpu/armv7m/start.o
 .rel.text.do_mmc_rescan
                0x000000002406c95c        0x8 arch/arm/cpu/armv7m/start.o
 .rel.text.do_mmc_hwpartition
                0x000000002406c964       0xb0 arch/arm/cpu/armv7m/start.o
 .rel.text.do_mmc_dev
                0x000000002406ca14       0x38 arch/arm/cpu/armv7m/start.o
 .rel.text.do_mmcinfo
                0x000000002406ca4c      0x110 arch/arm/cpu/armv7m/start.o
 .rel.text.do_mmc_part
                0x000000002406cb5c       0x10 arch/arm/cpu/armv7m/start.o
 .rel.text.do_mmc_erase
                0x000000002406cb6c       0x30 arch/arm/cpu/armv7m/start.o
 .rel.text.do_mmc_write
                0x000000002406cb9c       0x30 arch/arm/cpu/armv7m/start.o
 .rel.text.do_mmc_read
                0x000000002406cbcc       0x28 arch/arm/cpu/armv7m/start.o
 .rel.text.complete_mtd
                0x000000002406cbf4        0x8 arch/arm/cpu/armv7m/start.o
 .rel.text.mtd_dump_buf
                0x000000002406cbfc       0x20 arch/arm/cpu/armv7m/start.o
 .rel.text.mtd_show_parts
                0x000000002406cc1c       0x10 arch/arm/cpu/armv7m/start.o
 .rel.text.get_mtd_by_name
                0x000000002406cc2c        0x8 arch/arm/cpu/armv7m/start.o
 .rel.text.do_mtd_list
                0x000000002406cc34       0xb8 arch/arm/cpu/armv7m/start.o
 .rel.text.mtd_name_complete
                0x000000002406ccec        0x8 arch/arm/cpu/armv7m/start.o
 .rel.text.do_mtd
                0x000000002406ccf4       0x10 arch/arm/cpu/armv7m/start.o
 .rel.text.do_mtd_bad
                0x000000002406cd04       0x18 arch/arm/cpu/armv7m/start.o
 .rel.text.do_mtd_erase
                0x000000002406cd1c       0x28 arch/arm/cpu/armv7m/start.o
 .rel.text.do_mtd_io
                0x000000002406cd44       0xc8 arch/arm/cpu/armv7m/start.o
 .rel.text.netboot_common
                0x000000002406ce0c       0xa8 arch/arm/cpu/armv7m/start.o
 .rel.text.do_pinmux
                0x000000002406ceb4        0x8 arch/arm/cpu/armv7m/start.o
 .rel.text.do_list
                0x000000002406cebc       0x20 arch/arm/cpu/armv7m/start.o
 .rel.text.show_pinmux
                0x000000002406cedc       0x20 arch/arm/cpu/armv7m/start.o
 .rel.text.do_status
                0x000000002406cefc       0x28 arch/arm/cpu/armv7m/start.o
 .rel.text.do_dev
                0x000000002406cf24       0x20 arch/arm/cpu/armv7m/start.o
 .rel.text.do_spi_flash
                0x000000002406cf44       0xf8 arch/arm/cpu/armv7m/start.o
 .rel.text.do_test
                0x000000002406d03c        0x8 arch/arm/cpu/armv7m/start.o
 .rel.text.ubi_find_volume
                0x000000002406d044       0x10 arch/arm/cpu/armv7m/start.o
 .rel.text.ubi_volume_continue_write
                0x000000002406d054       0x10 arch/arm/cpu/armv7m/start.o
 .rel.text.ubi_detach
                0x000000002406d064        0x8 arch/arm/cpu/armv7m/start.o
 .rel.text.ubi_volume_begin_write
                0x000000002406d06c       0x18 arch/arm/cpu/armv7m/start.o
 .rel.text.ubi_volume_read
                0x000000002406d084       0x48 arch/arm/cpu/armv7m/start.o
 .rel.text.ubi_part
                0x000000002406d0cc       0x38 arch/arm/cpu/armv7m/start.o
 .rel.text.do_ubi
                0x000000002406d104      0x190 arch/arm/cpu/armv7m/start.o
 .rel.text.do_ubifs_mkdir
                0x000000002406d294       0x18 arch/arm/cpu/armv7m/start.o
 .rel.text.do_ubifs_rmdir
                0x000000002406d2ac       0x10 arch/arm/cpu/armv7m/start.o
 .rel.text.do_ubifs_unlink
                0x000000002406d2bc       0x10 arch/arm/cpu/armv7m/start.o
 .rel.text.do_ubifs_ls
                0x000000002406d2cc       0x20 arch/arm/cpu/armv7m/start.o
 .rel.text.do_ubifs_load
                0x000000002406d2ec       0x18 arch/arm/cpu/armv7m/start.o
 .rel.text.do_ubifs_write
                0x000000002406d304       0x20 arch/arm/cpu/armv7m/start.o
 .rel.text.cmd_ubifs_mount
                0x000000002406d324       0x10 arch/arm/cpu/armv7m/start.o
 .rel.text.ubifs_is_mounted
                0x000000002406d334        0x8 arch/arm/cpu/armv7m/start.o
 .rel.text.cmd_ubifs_umount
                0x000000002406d33c       0x18 arch/arm/cpu/armv7m/start.o
 .rel.text.do_imgextract
                0x000000002406d354       0x90 arch/arm/cpu/armv7m/start.o
 .rel.text.extract_val
                0x000000002406d3e4       0x10 arch/arm/cpu/armv7m/start.o
 .rel.text.extract_env
                0x000000002406d3f4        0x8 arch/arm/cpu/armv7m/start.o
 .rel.text.set_gpt_info.constprop.0
                0x000000002406d3fc       0x80 arch/arm/cpu/armv7m/start.o
 .rel.text.do_gpt
                0x000000002406d47c       0x78 arch/arm/cpu/armv7m/start.o
 .rel.text.do_env_delete
                0x000000002406d4f4       0x10 arch/arm/cpu/armv7m/start.o
 .rel.text.do_env
                0x000000002406d504        0x8 arch/arm/cpu/armv7m/start.o
 .rel.text.env_print
                0x000000002406d50c       0x18 arch/arm/cpu/armv7m/start.o
 .rel.text.do_env_print
                0x000000002406d524       0x10 arch/arm/cpu/armv7m/start.o
 .rel.text.do_env_import
                0x000000002406d534       0x50 arch/arm/cpu/armv7m/start.o
 .rel.text.do_env_default
                0x000000002406d584        0x8 arch/arm/cpu/armv7m/start.o
 .rel.text.do_env_exists
                0x000000002406d58c        0x8 arch/arm/cpu/armv7m/start.o
 .rel.text._do_env_set.constprop.0
                0x000000002406d594       0x30 arch/arm/cpu/armv7m/start.o
 .rel.text.get_env_id
                0x000000002406d5c4        0x8 arch/arm/cpu/armv7m/start.o
 .rel.text.env_set
                0x000000002406d5cc        0x8 arch/arm/cpu/armv7m/start.o
 .rel.text.env_set_hex
                0x000000002406d5d4        0x8 arch/arm/cpu/armv7m/start.o
 .rel.text.do_env_export
                0x000000002406d5dc       0x30 arch/arm/cpu/armv7m/start.o
 .rel.text.env_get_f
                0x000000002406d60c        0x8 arch/arm/cpu/armv7m/start.o
 .rel.text.env_get
                0x000000002406d614        0x8 arch/arm/cpu/armv7m/start.o
 .rel.text.eth_env_set_enetaddr
                0x000000002406d61c        0x8 arch/arm/cpu/armv7m/start.o
 .rel.text.do_env_edit.part.0
                0x000000002406d624       0x18 arch/arm/cpu/armv7m/start.o
 .rel.rodata.fdt_member_table
                0x000000002406d63c       0x50 arch/arm/cpu/armv7m/start.o
 .rel.rodata.op_table
                0x000000002406d68c       0x68 arch/arm/cpu/armv7m/start.o
 .rel.rodata.desc_and_len_tbl
                0x000000002406d6f4       0x30 arch/arm/cpu/armv7m/start.o
 .rel.rodata.reg_0_5_desc_tbl
                0x000000002406d724       0x30 arch/arm/cpu/armv7m/start.o
 .rel.rodata.reg_0_desc_tbl
                0x000000002406d754       0x50 arch/arm/cpu/armv7m/start.o
 .rel.rodata.reg_1_desc_tbl
                0x000000002406d7a4       0x80 arch/arm/cpu/armv7m/start.o
 .rel.rodata.reg_2_desc_tbl
                0x000000002406d824        0x8 arch/arm/cpu/armv7m/start.o
 .rel.rodata.reg_3_desc_tbl
                0x000000002406d82c       0x18 arch/arm/cpu/armv7m/start.o
 .rel.rodata.reg_4_desc_tbl
                0x000000002406d844       0x60 arch/arm/cpu/armv7m/start.o
 .rel.rodata.reg_5_desc_tbl
                0x000000002406d8a4       0x60 arch/arm/cpu/armv7m/start.o
 .rel.rodata.op_adv
                0x000000002406d904       0x80 arch/arm/cpu/armv7m/start.o
 .rel.u_boot_list_2_cmd_2_go
                0x000000002406d984       0x28 arch/arm/cpu/armv7m/start.o
 .rel.u_boot_list_2_cmd_2_reset
                0x000000002406d9ac       0x28 arch/arm/cpu/armv7m/start.o
 .rel.data.cmd_bootm_sub
                0x000000002406d9d4      0x120 arch/arm/cpu/armv7m/start.o
 .rel.u_boot_list_2_cmd_2_boot
                0x000000002406daf4       0x28 arch/arm/cpu/armv7m/start.o
 .rel.u_boot_list_2_cmd_2_bootd
                0x000000002406db1c       0x28 arch/arm/cpu/armv7m/start.o
 .rel.u_boot_list_2_cmd_2_bootm
                0x000000002406db44       0x28 arch/arm/cpu/armv7m/start.o
 .rel.u_boot_list_2_cmd_2_iminfo
                0x000000002406db6c       0x28 arch/arm/cpu/armv7m/start.o
 .rel.u_boot_list_2_cmd_2_help
                0x000000002406db94       0x28 arch/arm/cpu/armv7m/start.o
 .rel.u_boot_list_2_cmd_2_question_mark
                0x000000002406dbbc       0x28 arch/arm/cpu/armv7m/start.o
 .rel.u_boot_list_2_cmd_2_version
                0x000000002406dbe4       0x28 arch/arm/cpu/armv7m/start.o
 .rel.u_boot_list_2_cmd_2_source
                0x000000002406dc0c       0x28 arch/arm/cpu/armv7m/start.o
 .rel.u_boot_list_2_cmd_2_bdinfo
                0x000000002406dc34       0x28 arch/arm/cpu/armv7m/start.o
 .rel.data.cmd_blkc_sub
                0x000000002406dc5c       0x50 arch/arm/cpu/armv7m/start.o
 .rel.u_boot_list_2_cmd_2_blkcache
                0x000000002406dcac       0x28 arch/arm/cpu/armv7m/start.o
 .rel.u_boot_list_2_cmd_2_dcache
                0x000000002406dcd4       0x28 arch/arm/cpu/armv7m/start.o
 .rel.u_boot_list_2_cmd_2_icache
                0x000000002406dcfc       0x28 arch/arm/cpu/armv7m/start.o
 .rel.data.cmd_clk_sub
                0x000000002406dd24       0x28 arch/arm/cpu/armv7m/start.o
 .rel.u_boot_list_2_cmd_2_clk
                0x000000002406dd4c       0x28 arch/arm/cpu/armv7m/start.o
 .rel.u_boot_list_2_cmd_2_coninfo
                0x000000002406dd74       0x28 arch/arm/cpu/armv7m/start.o
 .rel.data.test_commands
                0x000000002406dd9c       0x78 arch/arm/cpu/armv7m/start.o
 .rel.u_boot_list_2_cmd_2_dm
                0x000000002406de14       0x28 arch/arm/cpu/armv7m/start.o
 .rel.u_boot_list_2_cmd_2_echo
                0x000000002406de3c       0x28 arch/arm/cpu/armv7m/start.o
 .rel.u_boot_list_2_cmd_2_bootelf
                0x000000002406de64       0x28 arch/arm/cpu/armv7m/start.o
 .rel.u_boot_list_2_cmd_2_bootvx
                0x000000002406de8c       0x28 arch/arm/cpu/armv7m/start.o
 .rel.u_boot_list_2_cmd_2_exit
                0x000000002406deb4       0x28 arch/arm/cpu/armv7m/start.o
 .rel.u_boot_list_2_cmd_2_fatinfo
                0x000000002406dedc       0x28 arch/arm/cpu/armv7m/start.o
 .rel.u_boot_list_2_cmd_2_fatload
                0x000000002406df04       0x28 arch/arm/cpu/armv7m/start.o
 .rel.u_boot_list_2_cmd_2_fatls
                0x000000002406df2c       0x28 arch/arm/cpu/armv7m/start.o
 .rel.u_boot_list_2_cmd_2_fatsize
                0x000000002406df54       0x28 arch/arm/cpu/armv7m/start.o
 .rel.u_boot_list_2_cmd_2_fdt
                0x000000002406df7c       0x28 arch/arm/cpu/armv7m/start.o
 .rel.u_boot_list_2_cmd_2_erase
                0x000000002406dfa4       0x28 arch/arm/cpu/armv7m/start.o
 .rel.u_boot_list_2_cmd_2_flinfo
                0x000000002406dfcc       0x28 arch/arm/cpu/armv7m/start.o
 .rel.u_boot_list_2_cmd_2_protect
                0x000000002406dff4       0x28 arch/arm/cpu/armv7m/start.o
 .rel.u_boot_list_2_cmd_2_itest
                0x000000002406e01c       0x28 arch/arm/cpu/armv7m/start.o
 .rel.u_boot_list_2_cmd_2_loadb
                0x000000002406e044       0x28 arch/arm/cpu/armv7m/start.o
 .rel.u_boot_list_2_cmd_2_loads
                0x000000002406e06c       0x28 arch/arm/cpu/armv7m/start.o
 .rel.u_boot_list_2_cmd_2_loadx
                0x000000002406e094       0x28 arch/arm/cpu/armv7m/start.o
 .rel.u_boot_list_2_cmd_2_loady
                0x000000002406e0bc       0x28 arch/arm/cpu/armv7m/start.o
 .rel.u_boot_list_2_cmd_2_base
                0x000000002406e0e4       0x28 arch/arm/cpu/armv7m/start.o
 .rel.u_boot_list_2_cmd_2_cmp
                0x000000002406e10c       0x28 arch/arm/cpu/armv7m/start.o
 .rel.u_boot_list_2_cmd_2_cp
                0x000000002406e134       0x28 arch/arm/cpu/armv7m/start.o
 .rel.u_boot_list_2_cmd_2_crc32
                0x000000002406e15c       0x28 arch/arm/cpu/armv7m/start.o
 .rel.u_boot_list_2_cmd_2_loop
                0x000000002406e184       0x28 arch/arm/cpu/armv7m/start.o
 .rel.u_boot_list_2_cmd_2_md
                0x000000002406e1ac       0x28 arch/arm/cpu/armv7m/start.o
 .rel.u_boot_list_2_cmd_2_mm
                0x000000002406e1d4       0x28 arch/arm/cpu/armv7m/start.o
 .rel.u_boot_list_2_cmd_2_mtest
                0x000000002406e1fc       0x28 arch/arm/cpu/armv7m/start.o
 .rel.u_boot_list_2_cmd_2_mw
                0x000000002406e224       0x28 arch/arm/cpu/armv7m/start.o
 .rel.u_boot_list_2_cmd_2_nm
                0x000000002406e24c       0x28 arch/arm/cpu/armv7m/start.o
 .rel.u_boot_list_2_cmd_2_mii
                0x000000002406e274       0x28 arch/arm/cpu/armv7m/start.o
 .rel.u_boot_list_2_cmd_2_mdio
                0x000000002406e29c       0x28 arch/arm/cpu/armv7m/start.o
 .rel.u_boot_list_2_cmd_2_sleep
                0x000000002406e2c4       0x28 arch/arm/cpu/armv7m/start.o
 .rel.u_boot_list_2_cmd_2_timer
                0x000000002406e2ec       0x28 arch/arm/cpu/armv7m/start.o
 .rel.data.cmd_mmc
                0x000000002406e314      0x190 arch/arm/cpu/armv7m/start.o
 .rel.u_boot_list_2_cmd_2_mmc
                0x000000002406e4a4       0x28 arch/arm/cpu/armv7m/start.o
 .rel.u_boot_list_2_cmd_2_mmcinfo
                0x000000002406e4cc       0x28 arch/arm/cpu/armv7m/start.o
 .rel.data.mtd_subcmds
                0x000000002406e4f4      0x118 arch/arm/cpu/armv7m/start.o
 .rel.u_boot_list_2_cmd_2_mtd
                0x000000002406e60c       0x30 arch/arm/cpu/armv7m/start.o
 .rel.u_boot_list_2_cmd_2_bootp
                0x000000002406e63c       0x28 arch/arm/cpu/armv7m/start.o
 .rel.u_boot_list_2_cmd_2_nfs
                0x000000002406e664       0x28 arch/arm/cpu/armv7m/start.o
 .rel.u_boot_list_2_cmd_2_tftpboot
                0x000000002406e68c       0x28 arch/arm/cpu/armv7m/start.o
 .rel.data.pinmux_subcmd
                0x000000002406e6b4       0x78 arch/arm/cpu/armv7m/start.o
 .rel.u_boot_list_2_cmd_2_pinmux
                0x000000002406e72c       0x28 arch/arm/cpu/armv7m/start.o
 .rel.u_boot_list_2_cmd_2_sf
                0x000000002406e754       0x28 arch/arm/cpu/armv7m/start.o
 .rel.u_boot_list_2_cmd_2_false
                0x000000002406e77c       0x20 arch/arm/cpu/armv7m/start.o
 .rel.u_boot_list_2_cmd_2_test
                0x000000002406e79c       0x28 arch/arm/cpu/armv7m/start.o
 .rel.u_boot_list_2_cmd_2_true
                0x000000002406e7c4       0x20 arch/arm/cpu/armv7m/start.o
 .rel.u_boot_list_2_cmd_2_ubi
                0x000000002406e7e4       0x28 arch/arm/cpu/armv7m/start.o
 .rel.u_boot_list_2_cmd_2_ubifsload
                0x000000002406e80c       0x28 arch/arm/cpu/armv7m/start.o
 .rel.u_boot_list_2_cmd_2_ubifsls
                0x000000002406e834       0x28 arch/arm/cpu/armv7m/start.o
 .rel.u_boot_list_2_cmd_2_ubifsmkdir
                0x000000002406e85c       0x28 arch/arm/cpu/armv7m/start.o
 .rel.u_boot_list_2_cmd_2_ubifsmount
                0x000000002406e884       0x28 arch/arm/cpu/armv7m/start.o
 .rel.u_boot_list_2_cmd_2_ubifsrmdir
                0x000000002406e8ac       0x28 arch/arm/cpu/armv7m/start.o
 .rel.u_boot_list_2_cmd_2_ubifsumount
                0x000000002406e8d4       0x28 arch/arm/cpu/armv7m/start.o
 .rel.u_boot_list_2_cmd_2_ubifsunlink
                0x000000002406e8fc       0x28 arch/arm/cpu/armv7m/start.o
 .rel.u_boot_list_2_cmd_2_ubifswrite
                0x000000002406e924       0x28 arch/arm/cpu/armv7m/start.o
 .rel.u_boot_list_2_cmd_2_imxtract
                0x000000002406e94c       0x28 arch/arm/cpu/armv7m/start.o
 .rel.u_boot_list_2_cmd_2_gpt
                0x000000002406e974       0x28 arch/arm/cpu/armv7m/start.o
 .rel.data.cmd_env_sub
                0x000000002406e99c      0x190 arch/arm/cpu/armv7m/start.o
 .rel.u_boot_list_2_cmd_2_editenv
                0x000000002406eb2c       0x30 arch/arm/cpu/armv7m/start.o
 .rel.u_boot_list_2_cmd_2_env
                0x000000002406eb5c       0x28 arch/arm/cpu/armv7m/start.o
 .rel.u_boot_list_2_cmd_2_printenv
                0x000000002406eb84       0x30 arch/arm/cpu/armv7m/start.o
 .rel.u_boot_list_2_cmd_2_run
                0x000000002406ebb4       0x30 arch/arm/cpu/armv7m/start.o
 .rel.u_boot_list_2_cmd_2_saveenv
                0x000000002406ebe4       0x28 arch/arm/cpu/armv7m/start.o
 .rel.u_boot_list_2_cmd_2_setenv
                0x000000002406ec0c       0x30 arch/arm/cpu/armv7m/start.o
 .rel.text.main_loop
                0x000000002406ec3c        0x8 arch/arm/cpu/armv7m/start.o
 .rel.text.jumptable_init
                0x000000002406ec44       0xc0 arch/arm/cpu/armv7m/start.o
 .rel.text.hash_lookup_algo
                0x000000002406ed04        0x8 arch/arm/cpu/armv7m/start.o
 .rel.text.hash_progressive_lookup_algo
                0x000000002406ed0c        0x8 arch/arm/cpu/armv7m/start.o
 .rel.text.hash_command
                0x000000002406ed14       0x28 arch/arm/cpu/armv7m/start.o
 .rel.text.mapset
                0x000000002406ed3c        0x8 arch/arm/cpu/armv7m/start.o
 .rel.text.syntax_err
                0x000000002406ed44        0x8 arch/arm/cpu/armv7m/start.o
 .rel.text.xmalloc
                0x000000002406ed4c        0x8 arch/arm/cpu/armv7m/start.o
 .rel.text.xrealloc
                0x000000002406ed54        0x8 arch/arm/cpu/armv7m/start.o
 .rel.text.is_assignment
                0x000000002406ed5c        0x8 arch/arm/cpu/armv7m/start.o
 .rel.text.do_showvar
                0x000000002406ed64       0x20 arch/arm/cpu/armv7m/start.o
 .rel.text.done_word
                0x000000002406ed84        0x8 arch/arm/cpu/armv7m/start.o
 .rel.text.file_get
                0x000000002406ed8c       0x30 arch/arm/cpu/armv7m/start.o
 .rel.text.b_addqchr.isra.0
                0x000000002406edbc        0x8 arch/arm/cpu/armv7m/start.o
 .rel.text.get_local_var
                0x000000002406edc4       0x20 arch/arm/cpu/armv7m/start.o
 .rel.text.set_local_var
                0x000000002406ede4       0x20 arch/arm/cpu/armv7m/start.o
 .rel.text.insert_var_value_sub
                0x000000002406ee04        0x8 arch/arm/cpu/armv7m/start.o
 .rel.text.parse_string_outer
                0x000000002406ee0c       0x18 arch/arm/cpu/armv7m/start.o
 .rel.text.run_list_real
                0x000000002406ee24       0x48 arch/arm/cpu/armv7m/start.o
 .rel.text.parse_stream_outer
                0x000000002406ee6c       0x70 arch/arm/cpu/armv7m/start.o
 .rel.text.parse_file_outer
                0x000000002406eedc       0x10 arch/arm/cpu/armv7m/start.o
 .rel.text.u_boot_hush_start
                0x000000002406eeec       0x18 arch/arm/cpu/armv7m/start.o
 .rel.text.bootdelay_process
                0x000000002406ef04       0x68 arch/arm/cpu/armv7m/start.o
 .rel.text.autoboot_command
                0x000000002406ef6c       0x20 arch/arm/cpu/armv7m/start.o
 .rel.text.setup_mon_len
                0x000000002406ef8c       0x10 arch/arm/cpu/armv7m/start.o
 .rel.text.reserve_pram
                0x000000002406ef9c        0x8 arch/arm/cpu/armv7m/start.o
 .rel.text.init_baud_rate
                0x000000002406efa4        0x8 arch/arm/cpu/armv7m/start.o
 .rel.text.announce_dram_init
                0x000000002406efac        0x8 arch/arm/cpu/armv7m/start.o
 .rel.text.show_dram_config
                0x000000002406efb4        0x8 arch/arm/cpu/armv7m/start.o
 .rel.text.board_init_f
                0x000000002406efbc       0x10 arch/arm/cpu/armv7m/start.o
 .rel.text.initr_reloc_global_data
                0x000000002406efcc       0x18 arch/arm/cpu/armv7m/start.o
 .rel.text.initr_mem
                0x000000002406efe4       0x18 arch/arm/cpu/armv7m/start.o
 .rel.text.initr_net
                0x000000002406effc        0x8 arch/arm/cpu/armv7m/start.o
 .rel.text.initr_ethaddr
                0x000000002406f004        0x8 arch/arm/cpu/armv7m/start.o
 .rel.text.initr_env
                0x000000002406f00c       0x20 arch/arm/cpu/armv7m/start.o
 .rel.text.initr_mmc
                0x000000002406f02c        0x8 arch/arm/cpu/armv7m/start.o
 .rel.text.initr_flash
                0x000000002406f034       0x18 arch/arm/cpu/armv7m/start.o
 .rel.text.board_init_r
                0x000000002406f04c       0x10 arch/arm/cpu/armv7m/start.o
 .rel.text.show_board_info
                0x000000002406f05c       0x10 arch/arm/cpu/armv7m/start.o
 .rel.text.bootm_find_images
                0x000000002406f06c       0x20 arch/arm/cpu/armv7m/start.o
 .rel.text.bootm_decomp_image
                0x000000002406f08c       0x48 arch/arm/cpu/armv7m/start.o
 .rel.text.do_bootm_states
                0x000000002406f0d4       0xa0 arch/arm/cpu/armv7m/start.o
 .rel.text.do_bootm_vxworks
                0x000000002406f174       0x38 arch/arm/cpu/armv7m/start.o
 .rel.text.do_bootm_plan9
                0x000000002406f1ac       0x18 arch/arm/cpu/armv7m/start.o
 .rel.text.do_bootm_netbsd
                0x000000002406f1c4       0x18 arch/arm/cpu/armv7m/start.o
 .rel.text.do_bootm_qnxelf
                0x000000002406f1dc        0x8 arch/arm/cpu/armv7m/start.o
 .rel.text.do_bootm_standalone
                0x000000002406f1e4       0x18 arch/arm/cpu/armv7m/start.o
 .rel.text.do_bootm_rtems
                0x000000002406f1fc        0x8 arch/arm/cpu/armv7m/start.o
 .rel.text.bootm_os_get_boot_func
                0x000000002406f204        0x8 arch/arm/cpu/armv7m/start.o
 .rel.text.fdt_support_default_count_cells
                0x000000002406f20c        0x8 arch/arm/cpu/armv7m/start.o
 .rel.text.fdt_find_or_add_subnode
                0x000000002406f214       0x10 arch/arm/cpu/armv7m/start.o
 .rel.text.fdt_root
                0x000000002406f224       0x20 arch/arm/cpu/armv7m/start.o
 .rel.text.fdt_initrd
                0x000000002406f244       0x30 arch/arm/cpu/armv7m/start.o
 .rel.text.fdt_chosen
                0x000000002406f274       0x20 arch/arm/cpu/armv7m/start.o
 .rel.text.do_fixup_by_path
                0x000000002406f294        0x8 arch/arm/cpu/armv7m/start.o
 .rel.text.fdt_fixup_memory_banks
                0x000000002406f29c       0x38 arch/arm/cpu/armv7m/start.o
 .rel.text.fdt_fixup_ethernet
                0x000000002406f2d4       0x30 arch/arm/cpu/armv7m/start.o
 .rel.text.fdt_translate_address
                0x000000002406f304       0x20 arch/arm/cpu/armv7m/start.o
 .rel.text.fdt_overlay_apply_verbose
                0x000000002406f324       0x20 arch/arm/cpu/armv7m/start.o
 .rel.text.miiphy_get_dev_by_name
                0x000000002406f344       0x10 arch/arm/cpu/armv7m/start.o
 .rel.text.miiphy_init
                0x000000002406f354       0x10 arch/arm/cpu/armv7m/start.o
 .rel.text.mdio_register
                0x000000002406f364       0x18 arch/arm/cpu/armv7m/start.o
 .rel.text.mdio_unregister
                0x000000002406f37c        0x8 arch/arm/cpu/armv7m/start.o
 .rel.text.mdio_list_devices
                0x000000002406f384       0x28 arch/arm/cpu/armv7m/start.o
 .rel.text.miiphy_set_current_dev
                0x000000002406f3ac       0x10 arch/arm/cpu/armv7m/start.o
 .rel.text.miiphy_get_active_dev
                0x000000002406f3bc        0x8 arch/arm/cpu/armv7m/start.o
 .rel.text.mdio_get_current_dev
                0x000000002406f3c4        0x8 arch/arm/cpu/armv7m/start.o
 .rel.text.mdio_phydev_for_ethname
                0x000000002406f3cc       0x10 arch/arm/cpu/armv7m/start.o
 .rel.text.miiphy_get_current_dev
                0x000000002406f3dc        0x8 arch/arm/cpu/armv7m/start.o
 .rel.text.miiphy_listdev
                0x000000002406f3e4       0x30 arch/arm/cpu/armv7m/start.o
 .rel.text.miiphy_speed
                0x000000002406f414       0x20 arch/arm/cpu/armv7m/start.o
 .rel.text.miiphy_duplex
                0x000000002406f434       0x20 arch/arm/cpu/armv7m/start.o
 .rel.text.iomux_doenv
                0x000000002406f454       0x10 arch/arm/cpu/armv7m/start.o
 .rel.text.addr2info
                0x000000002406f464        0x8 arch/arm/cpu/armv7m/start.o
 .rel.text.flash_perror
                0x000000002406f46c       0x58 arch/arm/cpu/armv7m/start.o
 .rel.text.cread_add_char
                0x000000002406f4c4        0x8 arch/arm/cpu/armv7m/start.o
 .rel.text.delete_char
                0x000000002406f4cc       0x10 arch/arm/cpu/armv7m/start.o
 .rel.text.cli_readline_into_buffer
                0x000000002406f4dc      0x108 arch/arm/cpu/armv7m/start.o
 .rel.text.cli_readline
                0x000000002406f5e4        0x8 arch/arm/cpu/armv7m/start.o
 .rel.text.console_tstc
                0x000000002406f5ec       0x20 arch/arm/cpu/armv7m/start.o
 .rel.text.console_putc
                0x000000002406f60c       0x10 arch/arm/cpu/armv7m/start.o
 .rel.text.console_puts
                0x000000002406f61c       0x10 arch/arm/cpu/armv7m/start.o
 .rel.text.on_console
                0x000000002406f62c       0x20 arch/arm/cpu/armv7m/start.o
 .rel.text.fgetc.part.0
                0x000000002406f64c        0x8 arch/arm/cpu/armv7m/start.o
 .rel.text.ctrlc
                0x000000002406f654       0x10 arch/arm/cpu/armv7m/start.o
 .rel.text.disable_ctrlc
                0x000000002406f664        0x8 arch/arm/cpu/armv7m/start.o
 .rel.text.had_ctrlc
                0x000000002406f66c        0x8 arch/arm/cpu/armv7m/start.o
 .rel.text.clear_ctrlc
                0x000000002406f674        0x8 arch/arm/cpu/armv7m/start.o
 .rel.text.console_assign
                0x000000002406f67c       0x30 arch/arm/cpu/armv7m/start.o
 .rel.text.stdio_print_current_devices
                0x000000002406f6ac       0x40 arch/arm/cpu/armv7m/start.o
 .rel.text.console_init_r
                0x000000002406f6ec       0x48 arch/arm/cpu/armv7m/start.o
 .rel.text.sbrk
                0x000000002406f734       0x18 arch/arm/cpu/armv7m/start.o
 .rel.text.mem_malloc_init
                0x000000002406f74c       0x18 arch/arm/cpu/armv7m/start.o
 .rel.text.malloc_trim
                0x000000002406f764       0x18 arch/arm/cpu/armv7m/start.o
 .rel.text.free
                0x000000002406f77c       0x20 arch/arm/cpu/armv7m/start.o
 .rel.text.malloc
                0x000000002406f79c       0x48 arch/arm/cpu/armv7m/start.o
 .rel.text.calloc
                0x000000002406f7e4        0x8 arch/arm/cpu/armv7m/start.o
 .rel.text.realloc
                0x000000002406f7ec       0x10 arch/arm/cpu/armv7m/start.o
 .rel.text.on_loadaddr
                0x000000002406f7fc        0x8 arch/arm/cpu/armv7m/start.o
 .rel.text.env_get_bootm_low
                0x000000002406f804        0x8 arch/arm/cpu/armv7m/start.o
 .rel.text.env_get_bootm_size
                0x000000002406f80c       0x10 arch/arm/cpu/armv7m/start.o
 .rel.text.env_get_bootm_mapsize
                0x000000002406f81c        0x8 arch/arm/cpu/armv7m/start.o
 .rel.text.genimg_print_size
                0x000000002406f824       0x10 arch/arm/cpu/armv7m/start.o
 .rel.text.genimg_get_os_name
                0x000000002406f834       0x10 arch/arm/cpu/armv7m/start.o
 .rel.text.genimg_get_arch_name
                0x000000002406f844       0x10 arch/arm/cpu/armv7m/start.o
 .rel.text.genimg_get_type_name
                0x000000002406f854       0x10 arch/arm/cpu/armv7m/start.o
 .rel.text.genimg_get_comp_name
                0x000000002406f864       0x10 arch/arm/cpu/armv7m/start.o
 .rel.text.genimg_get_os_id
                0x000000002406f874       0x10 arch/arm/cpu/armv7m/start.o
 .rel.text.genimg_get_arch_id
                0x000000002406f884       0x10 arch/arm/cpu/armv7m/start.o
 .rel.text.genimg_get_type_id
                0x000000002406f894       0x10 arch/arm/cpu/armv7m/start.o
 .rel.text.genimg_get_comp_id
                0x000000002406f8a4       0x10 arch/arm/cpu/armv7m/start.o
 .rel.text.genimg_get_kernel_addr_fit
                0x000000002406f8b4        0x8 arch/arm/cpu/armv7m/start.o
 .rel.text.boot_get_ramdisk
                0x000000002406f8bc       0x28 arch/arm/cpu/armv7m/start.o
 .rel.text.boot_ramdisk_high
                0x000000002406f8e4       0x20 arch/arm/cpu/armv7m/start.o
 .rel.text.boot_get_loadable
                0x000000002406f904       0x20 arch/arm/cpu/armv7m/start.o
 .rel.text.fdt_error
                0x000000002406f924       0x10 arch/arm/cpu/armv7m/start.o
 .rel.text.boot_fdt_add_mem_rsv_regions
                0x000000002406f934       0x20 arch/arm/cpu/armv7m/start.o
 .rel.text.boot_relocate_fdt
                0x000000002406f954       0x40 arch/arm/cpu/armv7m/start.o
 .rel.text.boot_get_fdt
                0x000000002406f994       0x48 arch/arm/cpu/armv7m/start.o
 .rel.text.image_setup_libfdt
                0x000000002406f9dc       0x20 arch/arm/cpu/armv7m/start.o
 .rel.text.fit_image_get_address
                0x000000002406f9fc        0x8 arch/arm/cpu/armv7m/start.o
 .rel.text.fit_get_desc
                0x000000002406fa04        0x8 arch/arm/cpu/armv7m/start.o
 .rel.text.fit_image_get_node
                0x000000002406fa0c        0x8 arch/arm/cpu/armv7m/start.o
 .rel.text.fit_image_get_os
                0x000000002406fa14        0x8 arch/arm/cpu/armv7m/start.o
 .rel.text.fit_image_get_arch
                0x000000002406fa1c        0x8 arch/arm/cpu/armv7m/start.o
 .rel.text.fit_image_get_type
                0x000000002406fa24        0x8 arch/arm/cpu/armv7m/start.o
 .rel.text.fit_image_get_comp
                0x000000002406fa2c        0x8 arch/arm/cpu/armv7m/start.o
 .rel.text.fit_image_get_load
                0x000000002406fa34        0x8 arch/arm/cpu/armv7m/start.o
 .rel.text.fit_image_get_entry
                0x000000002406fa3c        0x8 arch/arm/cpu/armv7m/start.o
 .rel.text.fit_image_get_data
                0x000000002406fa44        0x8 arch/arm/cpu/armv7m/start.o
 .rel.text.fit_image_get_data_offset
                0x000000002406fa4c        0x8 arch/arm/cpu/armv7m/start.o
 .rel.text.fit_image_get_data_position
                0x000000002406fa54        0x8 arch/arm/cpu/armv7m/start.o
 .rel.text.fit_image_get_data_size
                0x000000002406fa5c        0x8 arch/arm/cpu/armv7m/start.o
 .rel.text.fit_image_hash_get_algo
                0x000000002406fa64        0x8 arch/arm/cpu/armv7m/start.o
 .rel.text.fit_image_hash_get_value
                0x000000002406fa6c        0x8 arch/arm/cpu/armv7m/start.o
 .rel.text.fit_image_print_data
                0x000000002406fa74       0x68 arch/arm/cpu/armv7m/start.o
 .rel.text.fit_image_print_verification_data
                0x000000002406fadc       0x20 arch/arm/cpu/armv7m/start.o
 .rel.text.fit_image_print
                0x000000002406fafc       0x68 arch/arm/cpu/armv7m/start.o
 .rel.text.fit_print_contents
                0x000000002406fb64       0xc8 arch/arm/cpu/armv7m/start.o
 .rel.text.calculate_hash
                0x000000002406fc2c       0x20 arch/arm/cpu/armv7m/start.o
 .rel.text.fit_image_verify_with_data
                0x000000002406fc4c       0x80 arch/arm/cpu/armv7m/start.o
 .rel.text.fit_image_verify
                0x000000002406fccc       0x10 arch/arm/cpu/armv7m/start.o
 .rel.text.fit_all_image_verify
                0x000000002406fcdc       0x28 arch/arm/cpu/armv7m/start.o
 .rel.text.fit_check_format
                0x000000002406fd04       0x10 arch/arm/cpu/armv7m/start.o
 .rel.text.fit_conf_get_node
                0x000000002406fd14       0x10 arch/arm/cpu/armv7m/start.o
 .rel.text.fit_image_load
                0x000000002406fd24       0xa0 arch/arm/cpu/armv7m/start.o
 .rel.text.boot_get_setup_fit
                0x000000002406fdc4        0x8 arch/arm/cpu/armv7m/start.o
 .rel.text.boot_get_fdt_fit
                0x000000002406fdcc       0x20 arch/arm/cpu/armv7m/start.o
 .rel.text.image_get_checksum_algo
                0x000000002406fdec        0x8 arch/arm/cpu/armv7m/start.o
 .rel.text.image_get_crypto_algo
                0x000000002406fdf4        0x8 arch/arm/cpu/armv7m/start.o
 .rel.text.image_get_padding_algo
                0x000000002406fdfc        0x8 arch/arm/cpu/armv7m/start.o
 .rel.text.fit_image_setup_verify
                0x000000002406fe04       0x38 arch/arm/cpu/armv7m/start.o
 .rel.text.fit_image_check_sig
                0x000000002406fe3c       0x10 arch/arm/cpu/armv7m/start.o
 .rel.text.fit_image_verify_required_sigs
                0x000000002406fe4c       0x48 arch/arm/cpu/armv7m/start.o
 .rel.text.fit_config_check_sig
                0x000000002406fe94       0x58 arch/arm/cpu/armv7m/start.o
 .rel.text.fit_config_verify_required_sigs
                0x000000002406feec       0x48 arch/arm/cpu/armv7m/start.o
 .rel.text.stdio_get_list
                0x000000002406ff34        0x8 arch/arm/cpu/armv7m/start.o
 .rel.text.stdio_get_by_name
                0x000000002406ff3c       0x10 arch/arm/cpu/armv7m/start.o
 .rel.text.stdio_register_dev
                0x000000002406ff4c        0x8 arch/arm/cpu/armv7m/start.o
 .rel.text.stdio_init_tables
                0x000000002406ff54        0x8 arch/arm/cpu/armv7m/start.o
 .rel.text.stdio_add_devices
                0x000000002406ff5c       0x48 arch/arm/cpu/armv7m/start.o
 .rel.text.do_run
                0x000000002406ffa4        0x8 arch/arm/cpu/armv7m/start.o
 .rel.text.cli_process_fdt
                0x000000002406ffac       0x10 arch/arm/cpu/armv7m/start.o
 .rel.text.cli_secure_boot_cmd
                0x000000002406ffbc       0x18 arch/arm/cpu/armv7m/start.o
 .rel.text.find_cmd
                0x000000002406ffd4       0x10 arch/arm/cpu/armv7m/start.o
 .rel.text.cmd_usage
                0x000000002406ffe4       0x18 arch/arm/cpu/armv7m/start.o
 .rel.text._do_help
                0x000000002406fffc       0x10 arch/arm/cpu/armv7m/start.o
 .rel.text.var_complete
                0x000000002407000c       0x10 arch/arm/cpu/armv7m/start.o
 .rel.text.complete_subcmdv
                0x000000002407001c        0x8 arch/arm/cpu/armv7m/start.o
 .rel.text.cmd_auto_complete
                0x0000000024070024       0x40 arch/arm/cpu/armv7m/start.o
 .rel.text.cmd_get_data_size
                0x0000000024070064        0x8 arch/arm/cpu/armv7m/start.o
 .rel.text.cmd_process
                0x000000002407006c       0x18 arch/arm/cpu/armv7m/start.o
 .rel.text.cmd_process_error
                0x0000000024070084        0x8 arch/arm/cpu/armv7m/start.o
 .rel.text.srec_decode
                0x000000002407008c       0x50 arch/arm/cpu/armv7m/start.o
 .rel.text.xyzModem_get_hdr
                0x00000000240700dc       0x30 arch/arm/cpu/armv7m/start.o
 .rel.text.xyzModem_stream_open
                0x000000002407010c       0x10 arch/arm/cpu/armv7m/start.o
 .rel.text.xyzModem_stream_read
                0x000000002407011c        0x8 arch/arm/cpu/armv7m/start.o
 .rel.text.xyzModem_stream_close
                0x0000000024070124       0x20 arch/arm/cpu/armv7m/start.o
 .rel.text.xyzModem_stream_terminate
                0x0000000024070144        0x8 arch/arm/cpu/armv7m/start.o
 .rel.text.xyzModem_error
                0x000000002407014c       0x10 arch/arm/cpu/armv7m/start.o
 .rel.rodata.init_sequence_f
                0x000000002407015c      0x168 arch/arm/cpu/armv7m/start.o
 .rel.rodata.boot_os
                0x00000000240702c4       0x38 arch/arm/cpu/armv7m/start.o
 .rel.rodata.uimage_arch
                0x00000000240702fc      0x1b0 arch/arm/cpu/armv7m/start.o
 .rel.rodata.uimage_comp
                0x00000000240704ac       0x70 arch/arm/cpu/armv7m/start.o
 .rel.rodata.uimage_os
                0x000000002407051c       0xc0 arch/arm/cpu/armv7m/start.o
 .rel.rodata.uimage_type
                0x00000000240705dc      0x270 arch/arm/cpu/armv7m/start.o
 .rel.rodata.CSWTCH.185
                0x000000002407084c       0xe8 arch/arm/cpu/armv7m/start.o
 .rel.rodata.CSWTCH.32
                0x0000000024070934       0x40 arch/arm/cpu/armv7m/start.o
 .rel.data.hash_algo
                0x0000000024070974       0xa0 arch/arm/cpu/armv7m/start.o
 .rel.data.reserved_list
                0x0000000024070a14       0x58 arch/arm/cpu/armv7m/start.o
 .rel.u_boot_list_2_cmd_2_showvar
                0x0000000024070a6c       0x28 arch/arm/cpu/armv7m/start.o
 .rel.data.init_sequence_r
                0x0000000024070a94       0xf8 arch/arm/cpu/armv7m/start.o
 .rel.data.of_busses
                0x0000000024070b8c       0x28 arch/arm/cpu/armv7m/start.o
 .rel.u_boot_list_2_env_clbk_2_console
                0x0000000024070bb4       0x10 arch/arm/cpu/armv7m/start.o
 .rel.data.av_  0x0000000024070bc4      0x800 arch/arm/cpu/armv7m/start.o
 .rel.u_boot_list_2_env_clbk_2_loadaddr
                0x00000000240713c4       0x10 arch/arm/cpu/armv7m/start.o
 .rel.data.checksum_algos
                0x00000000240713d4       0x30 arch/arm/cpu/armv7m/start.o
 .rel.data.crypto_algos
                0x0000000024071404       0x40 arch/arm/cpu/armv7m/start.o
 .rel.data.padding_algos
                0x0000000024071444       0x10 arch/arm/cpu/armv7m/start.o
 .rel.data.stdio_names
                0x0000000024071454       0x18 arch/arm/cpu/armv7m/start.o
 .rel.text.part_driver_lookup_type
                0x000000002407146c       0x10 arch/arm/cpu/armv7m/start.o
 .rel.text.dev_print
                0x000000002407147c       0x90 arch/arm/cpu/armv7m/start.o
 .rel.text.part_init
                0x000000002407150c       0x10 arch/arm/cpu/armv7m/start.o
 .rel.text.part_print
                0x000000002407151c       0x70 arch/arm/cpu/armv7m/start.o
 .rel.text.part_get_info_whole_disk
                0x000000002407158c       0x10 arch/arm/cpu/armv7m/start.o
 .rel.text.blk_get_device_by_str
                0x000000002407159c       0x10 arch/arm/cpu/armv7m/start.o
 .rel.text.blk_get_device_part_str
                0x00000000240715ac       0x70 arch/arm/cpu/armv7m/start.o
 .rel.text.part_set_generic_name
                0x000000002407161c       0x18 arch/arm/cpu/armv7m/start.o
 .rel.text.test_block_type
                0x0000000024071634       0x10 arch/arm/cpu/armv7m/start.o
 .rel.text.print_partition_extended
                0x0000000024071644       0x30 arch/arm/cpu/armv7m/start.o
 .rel.text.part_print_dos
                0x0000000024071674        0x8 arch/arm/cpu/armv7m/start.o
 .rel.text.part_get_info_extended
                0x000000002407167c       0x20 arch/arm/cpu/armv7m/start.o
 .rel.text.print_efiname
                0x000000002407169c       0x10 arch/arm/cpu/armv7m/start.o
 .rel.text.validate_gpt_entries
                0x00000000240716ac       0x10 arch/arm/cpu/armv7m/start.o
 .rel.text.validate_gpt_header
                0x00000000240716bc       0x30 arch/arm/cpu/armv7m/start.o
 .rel.text.is_gpt_valid
                0x00000000240716ec       0x40 arch/arm/cpu/armv7m/start.o
 .rel.text.is_pte_valid
                0x000000002407172c       0x10 arch/arm/cpu/armv7m/start.o
 .rel.text.part_print_efi
                0x000000002407173c       0x60 arch/arm/cpu/armv7m/start.o
 .rel.text.part_get_info_efi
                0x000000002407179c       0x40 arch/arm/cpu/armv7m/start.o
 .rel.text.get_disk_guid
                0x00000000240717dc       0x20 arch/arm/cpu/armv7m/start.o
 .rel.text.write_gpt_table
                0x00000000240717fc       0x20 arch/arm/cpu/armv7m/start.o
 .rel.text.gpt_fill_pte
                0x000000002407181c       0x20 arch/arm/cpu/armv7m/start.o
 .rel.text.gpt_fill_header
                0x000000002407183c        0x8 arch/arm/cpu/armv7m/start.o
 .rel.text.gpt_restore
                0x0000000024071844       0x10 arch/arm/cpu/armv7m/start.o
 .rel.text.gpt_verify_headers
                0x0000000024071854       0x18 arch/arm/cpu/armv7m/start.o
 .rel.text.gpt_verify_partitions
                0x000000002407186c       0x20 arch/arm/cpu/armv7m/start.o
 .rel.rodata.CSWTCH.29
                0x000000002407188c       0x40 arch/arm/cpu/armv7m/start.o
 .rel.u_boot_list_2_part_driver_2_dos
                0x00000000240718cc       0x20 arch/arm/cpu/armv7m/start.o
 .rel.u_boot_list_2_part_driver_2_a_efi
                0x00000000240718ec       0x20 arch/arm/cpu/armv7m/start.o
 .rel.text.clk_get_by_indexed_prop
                0x000000002407190c        0x8 arch/arm/cpu/armv7m/start.o
 .rel.text.clk_get_by_index
                0x0000000024071914        0x8 arch/arm/cpu/armv7m/start.o
 .rel.text.clk_get_by_name
                0x000000002407191c        0x8 arch/arm/cpu/armv7m/start.o
 .rel.text.clk_set_defaults
                0x0000000024071924       0x20 arch/arm/cpu/armv7m/start.o
 .rel.text.clk_fixed_rate_ofdata_to_platdata
                0x0000000024071944        0x8 arch/arm/cpu/armv7m/start.o
 .rel.text.clk_fixed_factor_ofdata_to_platdata
                0x000000002407194c       0x10 arch/arm/cpu/armv7m/start.o
 .rel.text.stm32_clk_enable
                0x000000002407195c        0x8 arch/arm/cpu/armv7m/start.o
 .rel.text.stm32_get_apb_psc.isra.0
                0x0000000024071964        0x8 arch/arm/cpu/armv7m/start.o
 .rel.text.stm32_get_timer_rate.isra.0
                0x000000002407196c       0x48 arch/arm/cpu/armv7m/start.o
 .rel.text.stm32_get_rate
                0x00000000240719b4       0x18 arch/arm/cpu/armv7m/start.o
 .rel.text.stm32_clk_get_rate
                0x00000000240719cc       0x20 arch/arm/cpu/armv7m/start.o
 .rel.text.configure_clocks
                0x00000000240719ec       0x10 arch/arm/cpu/armv7m/start.o
 .rel.text.stm32_clk_probe
                0x00000000240719fc       0x18 arch/arm/cpu/armv7m/start.o
 .rel.text.device_bind_common.constprop.0
                0x0000000024071a14       0x10 arch/arm/cpu/armv7m/start.o
 .rel.text.device_probe
                0x0000000024071a24       0x18 arch/arm/cpu/armv7m/start.o
 .rel.text.dev_get_platdata
                0x0000000024071a3c       0x10 arch/arm/cpu/armv7m/start.o
 .rel.text.dev_get_parent_platdata
                0x0000000024071a4c       0x10 arch/arm/cpu/armv7m/start.o
 .rel.text.dev_get_uclass_platdata
                0x0000000024071a5c       0x10 arch/arm/cpu/armv7m/start.o
 .rel.text.dev_get_priv
                0x0000000024071a6c       0x10 arch/arm/cpu/armv7m/start.o
 .rel.text.dev_get_uclass_priv
                0x0000000024071a7c       0x10 arch/arm/cpu/armv7m/start.o
 .rel.text.dev_get_parent_priv
                0x0000000024071a8c       0x10 arch/arm/cpu/armv7m/start.o
 .rel.text.devfdt_get_addr_index
                0x0000000024071a9c        0x8 arch/arm/cpu/armv7m/start.o
 .rel.text.lists_driver_lookup_name
                0x0000000024071aa4       0x10 arch/arm/cpu/armv7m/start.o
 .rel.text.lists_uclass_lookup
                0x0000000024071ab4       0x10 arch/arm/cpu/armv7m/start.o
 .rel.text.lists_bind_drivers
                0x0000000024071ac4       0x18 arch/arm/cpu/armv7m/start.o
 .rel.text.lists_bind_fdt
                0x0000000024071adc       0x28 arch/arm/cpu/armv7m/start.o
 .rel.text.dm_scan_fdt_node
                0x0000000024071b04       0x18 arch/arm/cpu/armv7m/start.o
 .rel.text.dm_root
                0x0000000024071b1c        0x8 arch/arm/cpu/armv7m/start.o
 .rel.text.dm_init
                0x0000000024071b24       0x10 arch/arm/cpu/armv7m/start.o
 .rel.text.dm_scan_platdata
                0x0000000024071b34        0x8 arch/arm/cpu/armv7m/start.o
 .rel.text.dm_extended_scan_fdt
                0x0000000024071b3c       0x10 arch/arm/cpu/armv7m/start.o
 .rel.text.uclass_resolve_seq
                0x0000000024071b4c        0x8 arch/arm/cpu/armv7m/start.o
 .rel.text.dm_ofnode_pre_reloc
                0x0000000024071b54       0x18 arch/arm/cpu/armv7m/start.o
 .rel.text.device_remove
                0x0000000024071b6c       0x20 arch/arm/cpu/armv7m/start.o
 .rel.text.simple_bus_post_bind
                0x0000000024071b8c        0x8 arch/arm/cpu/armv7m/start.o
 .rel.text.show_devices
                0x0000000024071b94       0x30 arch/arm/cpu/armv7m/start.o
 .rel.text.dm_dump_all
                0x0000000024071bc4       0x10 arch/arm/cpu/armv7m/start.o
 .rel.text.dm_dump_uclass
                0x0000000024071bd4       0x20 arch/arm/cpu/armv7m/start.o
 .rel.text.regmap_init_mem
                0x0000000024071bf4       0x20 arch/arm/cpu/armv7m/start.o
 .rel.text.ofnode_get_chosen_prop
                0x0000000024071c14        0x8 arch/arm/cpu/armv7m/start.o
 .rel.text.ofnode_get_addr_index
                0x0000000024071c1c        0x8 arch/arm/cpu/armv7m/start.o
 .rel.text.ofnode_read_resource
                0x0000000024071c24        0x8 arch/arm/cpu/armv7m/start.o
 .rel.text.ofnode_read_resource_byname
                0x0000000024071c2c        0x8 arch/arm/cpu/armv7m/start.o
 .rel.text.stm32_pinctrl_config
                0x0000000024071c34       0x28 arch/arm/cpu/armv7m/start.o
 .rel.text.stm32_pinctrl_set_state_simple
                0x0000000024071c5c       0x10 arch/arm/cpu/armv7m/start.o
 .rel.text.stm32_populate_gpio_dev_list.isra.0
                0x0000000024071c6c        0x8 arch/arm/cpu/armv7m/start.o
 .rel.text.stm32_pinctrl_get_pin_muxing
                0x0000000024071c74       0x38 arch/arm/cpu/armv7m/start.o
 .rel.text.stm32_pinctrl_get_pin_name
                0x0000000024071cac       0x18 arch/arm/cpu/armv7m/start.o
 .rel.text.stm32_fmc_ofdata_to_platdata
                0x0000000024071cc4       0x58 arch/arm/cpu/armv7m/start.o
 .rel.text.stm32_fmc_probe
                0x0000000024071d1c        0x8 arch/arm/cpu/armv7m/start.o
 .rel.text.timer_pre_probe
                0x0000000024071d24        0x8 arch/arm/cpu/armv7m/start.o
 .rel.text.dm_timer_init
                0x0000000024071d2c        0x8 arch/arm/cpu/armv7m/start.o
 .rel.text.stm32_timer_probe
                0x0000000024071d34        0x8 arch/arm/cpu/armv7m/start.o
 .rel.text.blk_get_devnum_by_typename
                0x0000000024071d3c       0x10 arch/arm/cpu/armv7m/start.o
 .rel.text.blk_create_devicef
                0x0000000024071d4c        0x8 arch/arm/cpu/armv7m/start.o
 .rel.text.blkcache_read
                0x0000000024071d54       0x10 arch/arm/cpu/armv7m/start.o
 .rel.text.blkcache_fill
                0x0000000024071d64       0x10 arch/arm/cpu/armv7m/start.o
 .rel.text.blkcache_invalidate
                0x0000000024071d74       0x10 arch/arm/cpu/armv7m/start.o
 .rel.text.blkcache_configure
                0x0000000024071d84       0x10 arch/arm/cpu/armv7m/start.o
 .rel.text.blkcache_stats
                0x0000000024071d94        0x8 arch/arm/cpu/armv7m/start.o
 .rel.text.bootcount_store
                0x0000000024071d9c       0x10 arch/arm/cpu/armv7m/start.o
 .rel.text.bootcount_load
                0x0000000024071dac       0x10 arch/arm/cpu/armv7m/start.o
 .rel.text.stm32_rcc_bind
                0x0000000024071dbc       0x10 arch/arm/cpu/armv7m/start.o
 .rel.text.mmc_mode_name
                0x0000000024071dcc       0x10 arch/arm/cpu/armv7m/start.o
 .rel.text.mmc_send_status
                0x0000000024071ddc       0x10 arch/arm/cpu/armv7m/start.o
 .rel.text.mmc_bread
                0x0000000024071dec       0x10 arch/arm/cpu/armv7m/start.o
 .rel.text.mmc_startup_v4
                0x0000000024071dfc        0x8 arch/arm/cpu/armv7m/start.o
 .rel.text.mmc_hwpart_config
                0x0000000024071e04       0x48 arch/arm/cpu/armv7m/start.o
 .rel.text.mmc_get_op_cond
                0x0000000024071e4c        0x8 arch/arm/cpu/armv7m/start.o
 .rel.text.mmc_start_init
                0x0000000024071e54        0x8 arch/arm/cpu/armv7m/start.o
 .rel.text.mmc_init
                0x0000000024071e5c       0xb0 arch/arm/cpu/armv7m/start.o
 .rel.text.mmc_initialize
                0x0000000024071f0c       0x10 arch/arm/cpu/armv7m/start.o
 .rel.text.find_mmc_device
                0x0000000024071f1c        0x8 arch/arm/cpu/armv7m/start.o
 .rel.text.print_mmc_devices
                0x0000000024071f24       0x38 arch/arm/cpu/armv7m/start.o
 .rel.text.mmc_bind
                0x0000000024071f5c       0x10 arch/arm/cpu/armv7m/start.o
 .rel.text.mmc_berase
                0x0000000024071f6c       0x10 arch/arm/cpu/armv7m/start.o
 .rel.text.mmc_bwrite
                0x0000000024071f7c       0x18 arch/arm/cpu/armv7m/start.o
 .rel.text.stm32_sdmmc2_probe
                0x0000000024071f94       0x40 arch/arm/cpu/armv7m/start.o
 .rel.text.stm32_sdmmc2_send_cmd
                0x0000000024071fd4       0x10 arch/arm/cpu/armv7m/start.o
 .rel.text.gpio_backlight_ofdata_to_platdata
                0x0000000024071fe4       0x10 arch/arm/cpu/armv7m/start.o
 .rel.text.console_normal_putc_xy
                0x0000000024071ff4        0x8 arch/arm/cpu/armv7m/start.o
 .rel.text.simple_panel_ofdata_to_platdata
                0x0000000024071ffc       0x10 arch/arm/cpu/armv7m/start.o
 .rel.text.video_post_bind
                0x000000002407200c        0x8 arch/arm/cpu/armv7m/start.o
 .rel.text.video_post_probe
                0x0000000024072014       0x10 arch/arm/cpu/armv7m/start.o
 .rel.text.vidconsole_post_probe
                0x0000000024072024       0x20 arch/arm/cpu/armv7m/start.o
 .rel.text.vid_console_color
                0x0000000024072044        0x8 arch/arm/cpu/armv7m/start.o
 .rel.text.vidconsole_put_char
                0x000000002407204c       0x40 arch/arm/cpu/armv7m/start.o
 .rel.text.video_bmp_display
                0x000000002407208c       0x18 arch/arm/cpu/armv7m/start.o
 .rel.text.reset_get_by_index
                0x00000000240720a4       0x10 arch/arm/cpu/armv7m/start.o
 .rel.text.reset_get_by_name
                0x00000000240720b4        0x8 arch/arm/cpu/armv7m/start.o
 .rel.rodata.clk_fixed_rate_match
                0x00000000240720bc        0x8 arch/arm/cpu/armv7m/start.o
 .rel.rodata.clk_fixed_rate_ops
                0x00000000240720c4        0x8 arch/arm/cpu/armv7m/start.o
 .rel.rodata.clk_fixed_factor_match
                0x00000000240720cc        0x8 arch/arm/cpu/armv7m/start.o
 .rel.rodata.clk_fixed_factor_ops
                0x00000000240720d4        0x8 arch/arm/cpu/armv7m/start.o
 .rel.rodata.clk_map
                0x00000000240720dc      0x360 arch/arm/cpu/armv7m/start.o
 .rel.rodata.pllsrc_name
                0x000000002407243c       0x30 arch/arm/cpu/armv7m/start.o
 .rel.rodata.root_info
                0x000000002407246c        0x8 arch/arm/cpu/armv7m/start.o
 .rel.rodata.generic_simple_bus_ids
                0x0000000024072474       0x10 arch/arm/cpu/armv7m/start.o
 .rel.rodata.generic_syscon_ids
                0x0000000024072484        0x8 arch/arm/cpu/armv7m/start.o
 .rel.rodata.pinmux_mode
                0x000000002407248c       0x28 arch/arm/cpu/armv7m/start.o
 .rel.rodata.stm32_pinctrl_ids
                0x00000000240724b4       0x30 arch/arm/cpu/armv7m/start.o
 .rel.rodata.stm32_fmc_ids
                0x00000000240724e4       0x10 arch/arm/cpu/armv7m/start.o
 .rel.rodata.stm32_timer_ids
                0x00000000240724f4        0x8 arch/arm/cpu/armv7m/start.o
 .rel.rodata.stm32_timer_ops
                0x00000000240724fc        0x8 arch/arm/cpu/armv7m/start.o
 .rel.rodata.if_typename_str
                0x0000000024072504       0x60 arch/arm/cpu/armv7m/start.o
 .rel.rodata.mod_exp_ops_sw
                0x0000000024072564        0x8 arch/arm/cpu/armv7m/start.o
 .rel.rodata.stm32_rcc_ids
                0x000000002407256c       0x50 arch/arm/cpu/armv7m/start.o
 .rel.rodata.names.4
                0x00000000240725bc       0x68 arch/arm/cpu/armv7m/start.o
 .rel.rodata.mmc_blk_ops
                0x0000000024072624       0x20 arch/arm/cpu/armv7m/start.o
 .rel.rodata.stm32_sdmmc2_ids
                0x0000000024072644        0x8 arch/arm/cpu/armv7m/start.o
 .rel.rodata.stm32_sdmmc2_ops
                0x000000002407264c       0x18 arch/arm/cpu/armv7m/start.o
 .rel.rodata.gpio_backlight_ids
                0x0000000024072664        0x8 arch/arm/cpu/armv7m/start.o
 .rel.rodata.gpio_backlight_ops
                0x000000002407266c        0x8 arch/arm/cpu/armv7m/start.o
 .rel.rodata.simple_panel_ids
                0x0000000024072674       0x20 arch/arm/cpu/armv7m/start.o
 .rel.rodata.simple_panel_ops
                0x0000000024072694       0x10 arch/arm/cpu/armv7m/start.o
 .rel.rodata.stm32_ltdc_ids
                0x00000000240726a4        0x8 arch/arm/cpu/armv7m/start.o
 .rel.rodata.stm32_reset_ops
                0x00000000240726ac       0x20 arch/arm/cpu/armv7m/start.o
 .rel.u_boot_list_2_uclass_2_clk
                0x00000000240726cc        0x8 arch/arm/cpu/armv7m/start.o
 .rel.u_boot_list_2_driver_2_clk_fixed_rate
                0x00000000240726d4       0x20 arch/arm/cpu/armv7m/start.o
 .rel.u_boot_list_2_driver_2_clk_fixed_factor
                0x00000000240726f4       0x20 arch/arm/cpu/armv7m/start.o
 .rel.data.stm32_clk_ops
                0x0000000024072714       0x20 arch/arm/cpu/armv7m/start.o
 .rel.u_boot_list_2_driver_2_stm32h7_clk
                0x0000000024072734       0x18 arch/arm/cpu/armv7m/start.o
 .rel.u_boot_list_2_driver_2_root_driver
                0x000000002407274c        0x8 arch/arm/cpu/armv7m/start.o
 .rel.u_boot_list_2_uclass_2_root
                0x0000000024072754        0x8 arch/arm/cpu/armv7m/start.o
 .rel.u_boot_list_2_driver_2_simple_bus_drv
                0x000000002407275c       0x10 arch/arm/cpu/armv7m/start.o
 .rel.u_boot_list_2_uclass_2_simple_bus
                0x000000002407276c       0x10 arch/arm/cpu/armv7m/start.o
 .rel.u_boot_list_2_driver_2_generic_syscon
                0x000000002407277c       0x18 arch/arm/cpu/armv7m/start.o
 .rel.u_boot_list_2_uclass_2_syscon
                0x0000000024072794       0x10 arch/arm/cpu/armv7m/start.o
 .rel.u_boot_list_2_uclass_2_pinctrl
                0x00000000240727a4       0x10 arch/arm/cpu/armv7m/start.o
 .rel.data.stm32_pinctrl_ops
                0x00000000240727b4       0x20 arch/arm/cpu/armv7m/start.o
 .rel.u_boot_list_2_driver_2_pinctrl_stm32
                0x00000000240727d4       0x28 arch/arm/cpu/armv7m/start.o
 .rel.u_boot_list_2_uclass_2_ram
                0x00000000240727fc        0x8 arch/arm/cpu/armv7m/start.o
 .rel.data.stm32_fmc_ops
                0x0000000024072804        0x8 arch/arm/cpu/armv7m/start.o
 .rel.u_boot_list_2_driver_2_stm32_fmc
                0x000000002407280c       0x28 arch/arm/cpu/armv7m/start.o
 .rel.u_boot_list_2_uclass_2_timer
                0x0000000024072834       0x18 arch/arm/cpu/armv7m/start.o
 .rel.u_boot_list_2_driver_2_stm32_timer
                0x000000002407284c       0x20 arch/arm/cpu/armv7m/start.o
 .rel.u_boot_list_2_uclass_2_blk
                0x000000002407286c       0x10 arch/arm/cpu/armv7m/start.o
 .rel.data.block_cache
                0x000000002407287c       0x10 arch/arm/cpu/armv7m/start.o
 .rel.u_boot_list_2_uclass_2_mod_exp
                0x000000002407288c        0x8 arch/arm/cpu/armv7m/start.o
 .rel.u_boot_list_2_driver_2_mod_exp_sw
                0x0000000024072894       0x10 arch/arm/cpu/armv7m/start.o
 .rel.u_boot_list_2_driver_info_2_mod_exp_sw
                0x00000000240728a4        0x8 arch/arm/cpu/armv7m/start.o
 .rel.u_boot_list_2_uclass_2_misc
                0x00000000240728ac       0x10 arch/arm/cpu/armv7m/start.o
 .rel.data.stm32_rcc_clk_f42x
                0x00000000240728bc        0x8 arch/arm/cpu/armv7m/start.o
 .rel.data.stm32_rcc_clk_f469
                0x00000000240728c4        0x8 arch/arm/cpu/armv7m/start.o
 .rel.data.stm32_rcc_clk_f7
                0x00000000240728cc        0x8 arch/arm/cpu/armv7m/start.o
 .rel.data.stm32_rcc_clk_h7
                0x00000000240728d4        0x8 arch/arm/cpu/armv7m/start.o
 .rel.data.stm32_rcc_clk_mp1
                0x00000000240728dc        0x8 arch/arm/cpu/armv7m/start.o
 .rel.u_boot_list_2_driver_2_stm32_rcc
                0x00000000240728e4       0x20 arch/arm/cpu/armv7m/start.o
 .rel.u_boot_list_2_driver_2_mmc
                0x0000000024072904        0x8 arch/arm/cpu/armv7m/start.o
 .rel.u_boot_list_2_driver_2_mmc_blk
                0x000000002407290c       0x18 arch/arm/cpu/armv7m/start.o
 .rel.u_boot_list_2_uclass_2_mmc
                0x0000000024072924        0x8 arch/arm/cpu/armv7m/start.o
 .rel.u_boot_list_2_driver_2_stm32_sdmmc2
                0x000000002407292c       0x28 arch/arm/cpu/armv7m/start.o
 .rel.u_boot_list_2_driver_2_gpio_backlight
                0x0000000024072954       0x28 arch/arm/cpu/armv7m/start.o
 .rel.data.console_normal_ops
                0x000000002407297c       0x18 arch/arm/cpu/armv7m/start.o
 .rel.u_boot_list_2_driver_2_vidconsole_normal
                0x0000000024072994       0x18 arch/arm/cpu/armv7m/start.o
 .rel.u_boot_list_2_uclass_2_backlight
                0x00000000240729ac        0x8 arch/arm/cpu/armv7m/start.o
 .rel.u_boot_list_2_uclass_2_panel
                0x00000000240729b4        0x8 arch/arm/cpu/armv7m/start.o
 .rel.u_boot_list_2_driver_2_simple_panel
                0x00000000240729bc       0x28 arch/arm/cpu/armv7m/start.o
 .rel.u_boot_list_2_uclass_2_video
                0x00000000240729e4       0x28 arch/arm/cpu/armv7m/start.o
 .rel.u_boot_list_2_cmd_2_lcdputs
                0x0000000024072a0c       0x28 arch/arm/cpu/armv7m/start.o
 .rel.u_boot_list_2_cmd_2_setcurs
                0x0000000024072a34       0x28 arch/arm/cpu/armv7m/start.o
 .rel.u_boot_list_2_uclass_2_vidconsole
                0x0000000024072a5c       0x18 arch/arm/cpu/armv7m/start.o
 .rel.u_boot_list_2_driver_2_stm32_ltdc
                0x0000000024072a74       0x20 arch/arm/cpu/armv7m/start.o
 .rel.u_boot_list_2_uclass_2_reset
                0x0000000024072a94        0x8 arch/arm/cpu/armv7m/start.o
 .rel.u_boot_list_2_driver_2_stm32_rcc_reset
                0x0000000024072a9c       0x18 arch/arm/cpu/armv7m/start.o
 .rel.text.check_reserved
                0x0000000024072ab4       0x10 arch/arm/cpu/armv7m/start.o
 .rel.text.gpio_direction_input
                0x0000000024072ac4        0x8 arch/arm/cpu/armv7m/start.o
 .rel.text.gpio_direction_output
                0x0000000024072acc        0x8 arch/arm/cpu/armv7m/start.o
 .rel.text.dm_gpio_get_value
                0x0000000024072ad4        0x8 arch/arm/cpu/armv7m/start.o
 .rel.text.dm_gpio_set_value
                0x0000000024072adc        0x8 arch/arm/cpu/armv7m/start.o
 .rel.text.dm_gpio_set_dir_flags
                0x0000000024072ae4        0x8 arch/arm/cpu/armv7m/start.o
 .rel.text.gpio_request_tail
                0x0000000024072aec       0x10 arch/arm/cpu/armv7m/start.o
 .rel.text.gpio_request_by_name
                0x0000000024072afc        0x8 arch/arm/cpu/armv7m/start.o
 .rel.text.gpio_stm32_probe
                0x0000000024072b04       0x18 arch/arm/cpu/armv7m/start.o
 .rel.rodata.gpio_stm32_ops
                0x0000000024072b1c       0x28 arch/arm/cpu/armv7m/start.o
 .rel.rodata.stm32_gpio_ids
                0x0000000024072b44        0x8 arch/arm/cpu/armv7m/start.o
 .rel.u_boot_list_2_uclass_2_gpio
                0x0000000024072b4c       0x20 arch/arm/cpu/armv7m/start.o
 .rel.u_boot_list_2_driver_2_gpio_stm32
                0x0000000024072b6c       0x20 arch/arm/cpu/armv7m/start.o
 .rel.text.__mtd_next_device
                0x0000000024072b8c        0x8 arch/arm/cpu/armv7m/start.o
 .rel.text.mtd_dev_list_updated
                0x0000000024072b94        0x8 arch/arm/cpu/armv7m/start.o
 .rel.text.del_mtd_device
                0x0000000024072b9c       0x10 arch/arm/cpu/armv7m/start.o
 .rel.text.get_mtd_device
                0x0000000024072bac        0x8 arch/arm/cpu/armv7m/start.o
 .rel.text.__put_mtd_device
                0x0000000024072bb4       0x20 arch/arm/cpu/armv7m/start.o
 .rel.text.add_mtd_device
                0x0000000024072bd4       0x30 arch/arm/cpu/armv7m/start.o
 .rel.text.get_mtdids
                0x0000000024072c04       0x10 arch/arm/cpu/armv7m/start.o
 .rel.text.mtd_probe_devices
                0x0000000024072c14       0x68 arch/arm/cpu/armv7m/start.o
 .rel.text.mtd_arg_off
                0x0000000024072c7c       0x10 arch/arm/cpu/armv7m/start.o
 .rel.text.mtd_arg_off_size
                0x0000000024072c8c       0x28 arch/arm/cpu/armv7m/start.o
 .rel.text.mtd_parse_partition
                0x0000000024072cb4       0x38 arch/arm/cpu/armv7m/start.o
 .rel.text.mtd_parse_partitions
                0x0000000024072cec       0x10 arch/arm/cpu/armv7m/start.o
 .rel.text.mtd_erase_callback
                0x0000000024072cfc        0x8 arch/arm/cpu/armv7m/start.o
 .rel.text.del_mtd_partitions
                0x0000000024072d04        0x8 arch/arm/cpu/armv7m/start.o
 .rel.text.add_mtd_partitions
                0x0000000024072d0c       0xe0 arch/arm/cpu/armv7m/start.o
 .rel.text.flash_init
                0x0000000024072dec        0x8 arch/arm/cpu/armv7m/start.o
 .rel.text.flash_print_info
                0x0000000024072df4       0x48 arch/arm/cpu/armv7m/start.o
 .rel.text.flash_erase
                0x0000000024072e3c        0x8 arch/arm/cpu/armv7m/start.o
 .rel.u_boot_list_2_uclass_2_mtd
                0x0000000024072e44        0x8 arch/arm/cpu/armv7m/start.o
 .rel.text.spi_flash_probe_bus_cs
                0x0000000024072e4c       0x10 arch/arm/cpu/armv7m/start.o
 .rel.text.spi_flash_std_erase
                0x0000000024072e5c        0x8 arch/arm/cpu/armv7m/start.o
 .rel.text.spi_flash_std_probe
                0x0000000024072e64        0x8 arch/arm/cpu/armv7m/start.o
 .rel.text.spi_nor_wait_till_ready
                0x0000000024072e6c        0x8 arch/arm/cpu/armv7m/start.o
 .rel.text.macronix_quad_enable
                0x0000000024072e74        0x8 arch/arm/cpu/armv7m/start.o
 .rel.text.spi_nor_scan
                0x0000000024072e7c       0xb0 arch/arm/cpu/armv7m/start.o
 .rel.text.spi_flash_mtd_register
                0x0000000024072f2c       0x40 arch/arm/cpu/armv7m/start.o
 .rel.text.spi_flash_mtd_unregister
                0x0000000024072f6c       0x18 arch/arm/cpu/armv7m/start.o
 .rel.rodata.spi_flash_std_ids
                0x0000000024072f84       0x10 arch/arm/cpu/armv7m/start.o
 .rel.rodata.spi_flash_std_ops
                0x0000000024072f94       0x20 arch/arm/cpu/armv7m/start.o
 .rel.rodata.spi_nor_ids
                0x0000000024072fb4      0x318 arch/arm/cpu/armv7m/start.o
 .rel.u_boot_list_2_uclass_2_spi_nor
                0x00000000240732cc       0x10 arch/arm/cpu/armv7m/start.o
 .rel.u_boot_list_2_driver_2_spi_flash_std
                0x00000000240732dc       0x28 arch/arm/cpu/armv7m/start.o
 .rel.text.add_to_list
                0x0000000024073304       0x20 arch/arm/cpu/armv7m/start.o
 .rel.text.validate_vid_hdr
                0x0000000024073324       0xb0 arch/arm/cpu/armv7m/start.o
 .rel.text.ubi_compare_lebs
                0x00000000240733d4       0x18 arch/arm/cpu/armv7m/start.o
 .rel.text.ubi_add_to_av
                0x00000000240733ec       0x10 arch/arm/cpu/armv7m/start.o
 .rel.text.scan_peb
                0x00000000240733fc       0x98 arch/arm/cpu/armv7m/start.o
 .rel.text.scan_all
                0x0000000024073494      0x170 arch/arm/cpu/armv7m/start.o
 .rel.text.ubi_early_get_peb
                0x0000000024073604       0x20 arch/arm/cpu/armv7m/start.o
 .rel.text.ubi_attach
                0x0000000024073624       0x10 arch/arm/cpu/armv7m/start.o
 .rel.text.ubi_volume_notify
                0x0000000024073634        0x8 arch/arm/cpu/armv7m/start.o
 .rel.text.ubi_get_device
                0x000000002407363c       0x20 arch/arm/cpu/armv7m/start.o
 .rel.text.ubi_attach_mtd_dev
                0x000000002407365c      0x150 arch/arm/cpu/armv7m/start.o
 .rel.text.ubi_detach_mtd_dev
                0x00000000240737ac       0x38 arch/arm/cpu/armv7m/start.o
 .rel.text.ubi_init
                0x00000000240737e4       0x40 arch/arm/cpu/armv7m/start.o
 .rel.text.ubi_exit
                0x0000000024073824       0x18 arch/arm/cpu/armv7m/start.o
 .rel.text.ubi_mtd_param_parse
                0x000000002407383c       0x48 arch/arm/cpu/armv7m/start.o
 .rel.text.vtbl_check
                0x0000000024073884       0x38 arch/arm/cpu/armv7m/start.o
 .rel.text.ubi_change_vtbl_record
                0x00000000240738bc       0x48 arch/arm/cpu/armv7m/start.o
 .rel.text.ubi_read_volume_table
                0x0000000024073904       0xc8 arch/arm/cpu/armv7m/start.o
 .rel.text.self_check_volumes.isra.0
                0x00000000240739cc       0x90 arch/arm/cpu/armv7m/start.o
 .rel.text.ubi_create_volume
                0x0000000024073a5c       0x40 arch/arm/cpu/armv7m/start.o
 .rel.text.ubi_resize_volume
                0x0000000024073a9c       0x20 arch/arm/cpu/armv7m/start.o
 .rel.text.ubi_add_volume
                0x0000000024073abc        0x8 arch/arm/cpu/armv7m/start.o
 .rel.text.clear_update_marker
                0x0000000024073ac4       0x18 arch/arm/cpu/armv7m/start.o
 .rel.text.ubi_start_update
                0x0000000024073adc       0x20 arch/arm/cpu/armv7m/start.o
 .rel.text.ubi_more_update_data
                0x0000000024073afc       0x18 arch/arm/cpu/armv7m/start.o
 .rel.text.ubi_open_volume
                0x0000000024073b14       0x10 arch/arm/cpu/armv7m/start.o
 .rel.text.leb_read_unlock
                0x0000000024073b24       0x18 arch/arm/cpu/armv7m/start.o
 .rel.text.leb_write_unlock
                0x0000000024073b3c       0x18 arch/arm/cpu/armv7m/start.o
 .rel.text.leb_read_lock
                0x0000000024073b54       0x18 arch/arm/cpu/armv7m/start.o
 .rel.text.ubi_eba_read_leb
                0x0000000024073b6c       0x28 arch/arm/cpu/armv7m/start.o
 .rel.text.ubi_eba_write_leb
                0x0000000024073b94       0x50 arch/arm/cpu/armv7m/start.o
 .rel.text.ubi_eba_write_leb_st
                0x0000000024073be4       0x20 arch/arm/cpu/armv7m/start.o
 .rel.text.ubi_eba_atomic_leb_change
                0x0000000024073c04        0x8 arch/arm/cpu/armv7m/start.o
 .rel.text.ubi_eba_copy_leb
                0x0000000024073c0c       0x18 arch/arm/cpu/armv7m/start.o
 .rel.text.self_check_eba
                0x0000000024073c24       0x20 arch/arm/cpu/armv7m/start.o
 .rel.text.ubi_eba_init
                0x0000000024073c44       0x18 arch/arm/cpu/armv7m/start.o
 .rel.text.validate_ec_hdr
                0x0000000024073c5c       0x30 arch/arm/cpu/armv7m/start.o
 .rel.text.self_check_ec_hdr.part.0
                0x0000000024073c8c       0x18 arch/arm/cpu/armv7m/start.o
 .rel.text.self_check_vid_hdr.part.0
                0x0000000024073ca4       0x18 arch/arm/cpu/armv7m/start.o
 .rel.text.ubi_io_is_bad
                0x0000000024073cbc       0x20 arch/arm/cpu/armv7m/start.o
 .rel.text.self_check_not_bad
                0x0000000024073cdc       0x10 arch/arm/cpu/armv7m/start.o
 .rel.text.ubi_io_read
                0x0000000024073cec       0x38 arch/arm/cpu/armv7m/start.o
 .rel.text.self_check_peb_ec_hdr.part.0
                0x0000000024073d24       0x18 arch/arm/cpu/armv7m/start.o
 .rel.text.ubi_io_mark_bad
                0x0000000024073d3c       0x28 arch/arm/cpu/armv7m/start.o
 .rel.text.ubi_io_read_ec_hdr
                0x0000000024073d64       0x20 arch/arm/cpu/armv7m/start.o
 .rel.text.ubi_io_read_vid_hdr
                0x0000000024073d84       0x20 arch/arm/cpu/armv7m/start.o
 .rel.text.ubi_self_check_all_ff
                0x0000000024073da4       0x38 arch/arm/cpu/armv7m/start.o
 .rel.text.ubi_io_write
                0x0000000024073ddc       0x88 arch/arm/cpu/armv7m/start.o
 .rel.text.ubi_io_write_ec_hdr
                0x0000000024073e64       0x18 arch/arm/cpu/armv7m/start.o
 .rel.text.ubi_io_write_vid_hdr
                0x0000000024073e7c       0x18 arch/arm/cpu/armv7m/start.o
 .rel.text.do_sync_erase
                0x0000000024073e94       0x40 arch/arm/cpu/armv7m/start.o
 .rel.text.ubi_io_sync_erase
                0x0000000024073ed4       0x68 arch/arm/cpu/armv7m/start.o
 .rel.text.prot_queue_del
                0x0000000024073f3c       0x10 arch/arm/cpu/armv7m/start.o
 .rel.text.do_work
                0x0000000024073f4c       0x20 arch/arm/cpu/armv7m/start.o
 .rel.text.prot_queue_add
                0x0000000024073f6c       0x18 arch/arm/cpu/armv7m/start.o
 .rel.text.__schedule_ubi_work
                0x0000000024073f84       0x18 arch/arm/cpu/armv7m/start.o
 .rel.text.shutdown_work
                0x0000000024073f9c       0x18 arch/arm/cpu/armv7m/start.o
 .rel.text.wl_tree_add
                0x0000000024073fb4       0x18 arch/arm/cpu/armv7m/start.o
 .rel.text.ensure_wear_leveling
                0x0000000024073fcc        0x8 arch/arm/cpu/armv7m/start.o
 .rel.text.in_wl_tree.isra.0
                0x0000000024073fd4       0x18 arch/arm/cpu/armv7m/start.o
 .rel.text.self_check_in_wl_tree.isra.0
                0x0000000024073fec       0x10 arch/arm/cpu/armv7m/start.o
 .rel.text.ubi_do_worker
                0x0000000024073ffc       0x10 arch/arm/cpu/armv7m/start.o
 .rel.text.schedule_erase
                0x000000002407400c       0x20 arch/arm/cpu/armv7m/start.o
 .rel.text.erase_worker
                0x000000002407402c       0x70 arch/arm/cpu/armv7m/start.o
 .rel.text.ubi_wl_put_peb
                0x000000002407409c       0x20 arch/arm/cpu/armv7m/start.o
 .rel.text.ubi_wl_scrub_peb
                0x00000000240740bc       0x18 arch/arm/cpu/armv7m/start.o
 .rel.text.ubi_wl_flush
                0x00000000240740d4       0x18 arch/arm/cpu/armv7m/start.o
 .rel.text.ubi_wl_init
                0x00000000240740ec       0x38 arch/arm/cpu/armv7m/start.o
 .rel.text.wear_leveling_worker
                0x0000000024074124       0x40 arch/arm/cpu/armv7m/start.o
 .rel.text.ubi_refill_pools
                0x0000000024074164       0x10 arch/arm/cpu/armv7m/start.o
 .rel.text.ubi_wl_get_peb
                0x0000000024074174       0x28 arch/arm/cpu/armv7m/start.o
 .rel.text.ubi_ensure_anchor_pebs
                0x000000002407419c        0x8 arch/arm/cpu/armv7m/start.o
 .rel.text.ubi_wl_put_fm_peb
                0x00000000240741a4       0x18 arch/arm/cpu/armv7m/start.o
 .rel.text.ubi_is_erase_work
                0x00000000240741bc        0x8 arch/arm/cpu/armv7m/start.o
 .rel.text.crc32_le
                0x00000000240741c4        0x8 arch/arm/cpu/armv7m/start.o
 .rel.text.scan_pool
                0x00000000240741cc       0x70 arch/arm/cpu/armv7m/start.o
 .rel.text.ubi_scan_fastmap
                0x000000002407423c      0x128 arch/arm/cpu/armv7m/start.o
 .rel.text.ubi_update_fastmap
                0x0000000024074364       0x98 arch/arm/cpu/armv7m/start.o
 .rel.text.ubi_calc_data_len
                0x00000000240743fc       0x18 arch/arm/cpu/armv7m/start.o
 .rel.text.ubi_update_reserved
                0x0000000024074414        0x8 arch/arm/cpu/armv7m/start.o
 .rel.text.ubi_dump_flash
                0x000000002407441c       0x20 arch/arm/cpu/armv7m/start.o
 .rel.text.ubi_dump_ec_hdr
                0x000000002407443c       0x50 arch/arm/cpu/armv7m/start.o
 .rel.text.ubi_dump_vid_hdr
                0x000000002407448c       0x78 arch/arm/cpu/armv7m/start.o
 .rel.text.ubi_dump_vol_info
                0x0000000024074504       0x78 arch/arm/cpu/armv7m/start.o
 .rel.text.ubi_dump_vtbl_record
                0x000000002407457c       0x58 arch/arm/cpu/armv7m/start.o
 .rel.text.ubi_dump_av
                0x00000000240745d4       0x48 arch/arm/cpu/armv7m/start.o
 .rel.text.ubi_dump_aeb
                0x000000002407461c       0x30 arch/arm/cpu/armv7m/start.o
 .rel.text.eqos_calibrate_pads_tegra186
                0x000000002407464c       0x10 arch/arm/cpu/armv7m/start.o
 .rel.text.eqos_start
                0x000000002407465c       0x70 arch/arm/cpu/armv7m/start.o
 .rel.text.eqos_start_clks_stm32
                0x00000000240746cc       0x20 arch/arm/cpu/armv7m/start.o
 .rel.text.eqos_get_interface_stm32
                0x00000000240746ec        0x8 arch/arm/cpu/armv7m/start.o
 .rel.text.eqos_set_tx_clk_speed_tegra186
                0x00000000240746f4       0x10 arch/arm/cpu/armv7m/start.o
 .rel.text.eqos_start_clks_tegra186
                0x0000000024074704       0x30 arch/arm/cpu/armv7m/start.o
 .rel.text.eqos_start_resets_tegra186
                0x0000000024074734       0x20 arch/arm/cpu/armv7m/start.o
 .rel.text.eqos_probe_resources_tegra186
                0x0000000024074754       0x70 arch/arm/cpu/armv7m/start.o
 .rel.text.eqos_probe
                0x00000000240747c4       0x38 arch/arm/cpu/armv7m/start.o
 .rel.text.eqos_mdio_wait_idle.isra.0
                0x00000000240747fc        0x8 arch/arm/cpu/armv7m/start.o
 .rel.text.eqos_mdio_read
                0x0000000024074804       0x10 arch/arm/cpu/armv7m/start.o
 .rel.text.eqos_mdio_write
                0x0000000024074814       0x10 arch/arm/cpu/armv7m/start.o
 .rel.text.eqos_probe_resources_stm32
                0x0000000024074824       0x50 arch/arm/cpu/armv7m/start.o
 .rel.rodata.eqos_ids
                0x0000000024074874       0x30 arch/arm/cpu/armv7m/start.o
 .rel.rodata.eqos_ops
                0x00000000240748a4       0x30 arch/arm/cpu/armv7m/start.o
 .rel.rodata.eqos_stm32_config
                0x00000000240748d4       0x10 arch/arm/cpu/armv7m/start.o
 .rel.rodata.eqos_tegra186_config
                0x00000000240748e4       0x10 arch/arm/cpu/armv7m/start.o
 .rel.data.eqos_stm32_ops
                0x00000000240748f4       0x70 arch/arm/cpu/armv7m/start.o
 .rel.data.eqos_tegra186_ops
                0x0000000024074964       0x70 arch/arm/cpu/armv7m/start.o
 .rel.u_boot_list_2_driver_2_eth_eqos
                0x00000000240749d4       0x28 arch/arm/cpu/armv7m/start.o
 .rel.text.genphy_update_link
                0x00000000240749fc       0x28 arch/arm/cpu/armv7m/start.o
 .rel.text.phy_register
                0x0000000024074a24        0x8 arch/arm/cpu/armv7m/start.o
 .rel.text.get_phy_device_by_mask
                0x0000000024074a2c       0x18 arch/arm/cpu/armv7m/start.o
 .rel.text.phy_reset
                0x0000000024074a44        0x8 arch/arm/cpu/armv7m/start.o
 .rel.text.phy_connect_dev
                0x0000000024074a4c        0x8 arch/arm/cpu/armv7m/start.o
 .rel.text.phy_connect
                0x0000000024074a54        0x8 arch/arm/cpu/armv7m/start.o
 .rel.text.phy_get_interface_by_name
                0x0000000024074a5c        0x8 arch/arm/cpu/armv7m/start.o
 .rel.text.phy_smsc_init
                0x0000000024074a64       0x30 arch/arm/cpu/armv7m/start.o
 .rel.rodata.phy_interface_strings
                0x0000000024074a94       0xb0 arch/arm/cpu/armv7m/start.o
 .rel.data.genphy_driver
                0x0000000024074b44       0x20 arch/arm/cpu/armv7m/start.o
 .rel.data.phy_drivers
                0x0000000024074b64       0x10 arch/arm/cpu/armv7m/start.o
 .rel.data.lan8700_driver
                0x0000000024074b74       0x20 arch/arm/cpu/armv7m/start.o
 .rel.data.lan8710_driver
                0x0000000024074b94       0x20 arch/arm/cpu/armv7m/start.o
 .rel.data.lan8740_driver
                0x0000000024074bb4       0x20 arch/arm/cpu/armv7m/start.o
 .rel.data.lan8741_driver
                0x0000000024074bd4       0x20 arch/arm/cpu/armv7m/start.o
 .rel.data.lan8742_driver
                0x0000000024074bf4       0x20 arch/arm/cpu/armv7m/start.o
 .rel.data.lan911x_driver
                0x0000000024074c14       0x20 arch/arm/cpu/armv7m/start.o
 .rel.text.serial_post_probe
                0x0000000024074c34       0x20 arch/arm/cpu/armv7m/start.o
 .rel.text.serial_init
                0x0000000024074c54       0x18 arch/arm/cpu/armv7m/start.o
 .rel.text.on_baudrate
                0x0000000024074c6c       0x18 arch/arm/cpu/armv7m/start.o
 .rel.text.stm32_serial_probe
                0x0000000024074c84        0x8 arch/arm/cpu/armv7m/start.o
 .rel.rodata.stm32_serial_id
                0x0000000024074c8c       0x30 arch/arm/cpu/armv7m/start.o
 .rel.rodata.stm32_serial_ops
                0x0000000024074cbc       0x28 arch/arm/cpu/armv7m/start.o
 .rel.u_boot_list_2_env_clbk_2_baudrate
                0x0000000024074ce4       0x10 arch/arm/cpu/armv7m/start.o
 .rel.u_boot_list_2_uclass_2_serial
                0x0000000024074cf4       0x18 arch/arm/cpu/armv7m/start.o
 .rel.u_boot_list_2_driver_2_serial_stm32
                0x0000000024074d0c       0x28 arch/arm/cpu/armv7m/start.o
 .rel.text.spi_set_speed_mode
                0x0000000024074d34       0x10 arch/arm/cpu/armv7m/start.o
 .rel.text.spi_post_probe
                0x0000000024074d44        0x8 arch/arm/cpu/armv7m/start.o
 .rel.text.spi_get_bus_and_cs
                0x0000000024074d4c       0x18 arch/arm/cpu/armv7m/start.o
 .rel.text.spi_slave_ofdata_to_platdata
                0x0000000024074d64       0x58 arch/arm/cpu/armv7m/start.o
 .rel.text.stm32_qspi_ofdata_to_platdata
                0x0000000024074dbc       0x20 arch/arm/cpu/armv7m/start.o
 .rel.text.stm32_qspi_probe
                0x0000000024074ddc       0x10 arch/arm/cpu/armv7m/start.o
 .rel.text._stm32_qspi_gen_ccr_w25n01.isra.0
                0x0000000024074dec        0x8 arch/arm/cpu/armv7m/start.o
 .rel.text.stm32_qspi_xfer
                0x0000000024074df4        0x8 arch/arm/cpu/armv7m/start.o
 .rel.rodata.stm32_qspi_ids
                0x0000000024074dfc       0x18 arch/arm/cpu/armv7m/start.o
 .rel.rodata.stm32_qspi_ops
                0x0000000024074e14       0x28 arch/arm/cpu/armv7m/start.o
 .rel.u_boot_list_2_driver_2_spi_generic_drv
                0x0000000024074e3c        0x8 arch/arm/cpu/armv7m/start.o
 .rel.u_boot_list_2_uclass_2_spi
                0x0000000024074e44       0x28 arch/arm/cpu/armv7m/start.o
 .rel.u_boot_list_2_uclass_2_spi_generic
                0x0000000024074e6c        0x8 arch/arm/cpu/armv7m/start.o
 .rel.u_boot_list_2_driver_2_stm32_qspi
                0x0000000024074e74       0x30 arch/arm/cpu/armv7m/start.o
 .rel.text.set_default_env
                0x0000000024074ea4       0x28 arch/arm/cpu/armv7m/start.o
 .rel.text.set_default_vars
                0x0000000024074ecc       0x10 arch/arm/cpu/armv7m/start.o
 .rel.text.env_import
                0x0000000024074edc       0x28 arch/arm/cpu/armv7m/start.o
 .rel.text.env_import_redund
                0x0000000024074f04       0x30 arch/arm/cpu/armv7m/start.o
 .rel.text.env_export
                0x0000000024074f34       0x20 arch/arm/cpu/armv7m/start.o
 .rel.text.env_relocate
                0x0000000024074f54        0x8 arch/arm/cpu/armv7m/start.o
 .rel.text.env_complete
                0x0000000024074f5c       0x30 arch/arm/cpu/armv7m/start.o
 .rel.text.env_driver_lookup
                0x0000000024074f8c       0x10 arch/arm/cpu/armv7m/start.o
 .rel.text.env_get_char
                0x0000000024074f9c        0x8 arch/arm/cpu/armv7m/start.o
 .rel.text.env_load
                0x0000000024074fa4       0x10 arch/arm/cpu/armv7m/start.o
 .rel.text.env_save
                0x0000000024074fb4       0x18 arch/arm/cpu/armv7m/start.o
 .rel.text.env_init
                0x0000000024074fcc        0x8 arch/arm/cpu/armv7m/start.o
 .rel.text.regex_callback
                0x0000000024074fd4       0x10 arch/arm/cpu/armv7m/start.o
 .rel.text.env_attr_lookup
                0x0000000024074fe4        0x8 arch/arm/cpu/armv7m/start.o
 .rel.text.find_env_callback
                0x0000000024074fec       0x10 arch/arm/cpu/armv7m/start.o
 .rel.text.on_callbacks
                0x0000000024074ffc       0x20 arch/arm/cpu/armv7m/start.o
 .rel.text.set_callback
                0x000000002407501c        0x8 arch/arm/cpu/armv7m/start.o
 .rel.text.env_callback_init
                0x0000000024075024       0x20 arch/arm/cpu/armv7m/start.o
 .rel.text.skip_num
                0x0000000024075044        0x8 arch/arm/cpu/armv7m/start.o
 .rel.text.on_flags
                0x000000002407504c       0x20 arch/arm/cpu/armv7m/start.o
 .rel.text.env_flags_parse_vartype
                0x000000002407506c       0x10 arch/arm/cpu/armv7m/start.o
 .rel.text.env_flags_parse_varaccess
                0x000000002407507c       0x10 arch/arm/cpu/armv7m/start.o
 .rel.text.env_parse_flags_to_bin
                0x000000002407508c        0x8 arch/arm/cpu/armv7m/start.o
 .rel.text.set_flags
                0x0000000024075094        0x8 arch/arm/cpu/armv7m/start.o
 .rel.text.env_flags_init
                0x000000002407509c       0x28 arch/arm/cpu/armv7m/start.o
 .rel.text.env_flags_validate
                0x00000000240750c4       0x38 arch/arm/cpu/armv7m/start.o
 .rel.text.env_ubi_save
                0x00000000240750fc       0x48 arch/arm/cpu/armv7m/start.o
 .rel.text.env_ubi_load
                0x0000000024075144       0x30 arch/arm/cpu/armv7m/start.o
 .rel.data.env_htab
                0x0000000024075174        0x8 arch/arm/cpu/armv7m/start.o
 .rel.u_boot_list_2_env_clbk_2_callbacks
                0x000000002407517c       0x10 arch/arm/cpu/armv7m/start.o
 .rel.u_boot_list_2_env_clbk_2_flags
                0x000000002407518c       0x10 arch/arm/cpu/armv7m/start.o
 .rel.u_boot_list_2_env_driver_2_ubi
                0x000000002407519c       0x18 arch/arm/cpu/armv7m/start.o
 .rel.text.fs_probe_unsupported
                0x00000000240751b4        0x8 arch/arm/cpu/armv7m/start.o
 .rel.text.fs_get_info
                0x00000000240751bc        0x8 arch/arm/cpu/armv7m/start.o
 .rel.text.fs_close
                0x00000000240751c4        0x8 arch/arm/cpu/armv7m/start.o
 .rel.text.fs_set_blk_dev
                0x00000000240751cc       0x28 arch/arm/cpu/armv7m/start.o
 .rel.text.fs_set_blk_dev_with_part
                0x00000000240751f4       0x28 arch/arm/cpu/armv7m/start.o
 .rel.text.fs_ls
                0x000000002407521c        0x8 arch/arm/cpu/armv7m/start.o
 .rel.text.fs_exists
                0x0000000024075224        0x8 arch/arm/cpu/armv7m/start.o
 .rel.text.fs_size
                0x000000002407522c        0x8 arch/arm/cpu/armv7m/start.o
 .rel.text.fs_opendir
                0x0000000024075234       0x20 arch/arm/cpu/armv7m/start.o
 .rel.text.fs_readdir
                0x0000000024075254       0x10 arch/arm/cpu/armv7m/start.o
 .rel.text.fs_closedir
                0x0000000024075264        0x8 arch/arm/cpu/armv7m/start.o
 .rel.text.fs_ls_generic
                0x000000002407526c       0x20 arch/arm/cpu/armv7m/start.o
 .rel.text.do_size
                0x000000002407528c        0x8 arch/arm/cpu/armv7m/start.o
 .rel.text.do_load
                0x0000000024075294       0x60 arch/arm/cpu/armv7m/start.o
 .rel.text.do_ls
                0x00000000240752f4        0x8 arch/arm/cpu/armv7m/start.o
 .rel.text.downcase
                0x00000000240752fc        0x8 arch/arm/cpu/armv7m/start.o
 .rel.text.disk_read
                0x0000000024075304       0x10 arch/arm/cpu/armv7m/start.o
 .rel.text.get_fatent
                0x0000000024075314        0x8 arch/arm/cpu/armv7m/start.o
 .rel.text.read_bootsectandvi
                0x000000002407531c       0x20 arch/arm/cpu/armv7m/start.o
 .rel.text.fat_itr_root
                0x000000002407533c       0x20 arch/arm/cpu/armv7m/start.o
 .rel.text.fat_itr_resolve
                0x000000002407535c       0x10 arch/arm/cpu/armv7m/start.o
 .rel.text.fat_set_blk_dev
                0x000000002407536c       0x28 arch/arm/cpu/armv7m/start.o
 .rel.text.file_fat_detectfs
                0x0000000024075394       0x70 arch/arm/cpu/armv7m/start.o
 .rel.text.file_fat_read_at
                0x0000000024075404       0x10 arch/arm/cpu/armv7m/start.o
 .rel.text.fat_read_file
                0x0000000024075414        0x8 arch/arm/cpu/armv7m/start.o
 .rel.text.compr_init
                0x000000002407541c        0x8 arch/arm/cpu/armv7m/start.o
 .rel.text.ubifs_findfile
                0x0000000024075424       0x38 arch/arm/cpu/armv7m/start.o
 .rel.text.ubifs_decompress
                0x000000002407545c       0x30 arch/arm/cpu/armv7m/start.o
 .rel.text.read_block
                0x000000002407548c       0x20 arch/arm/cpu/armv7m/start.o
 .rel.text.ubifs_compressors_init
                0x00000000240754ac       0x18 arch/arm/cpu/armv7m/start.o
 .rel.text.ubifs_ls
                0x00000000240754c4       0x98 arch/arm/cpu/armv7m/start.o
 .rel.text.ubifs_exists
                0x000000002407555c        0x8 arch/arm/cpu/armv7m/start.o
 .rel.text.ubifs_size
                0x0000000024075564        0x8 arch/arm/cpu/armv7m/start.o
 .rel.text.ubifs_read
                0x000000002407556c       0x18 arch/arm/cpu/armv7m/start.o
 .rel.text.ubifs_new_inode
                0x0000000024075584       0x28 arch/arm/cpu/armv7m/start.o
 .rel.text.ubifs_create.constprop.0
                0x00000000240755ac       0x10 arch/arm/cpu/armv7m/start.o
 .rel.text.ubifs_rmdir
                0x00000000240755bc        0x8 arch/arm/cpu/armv7m/start.o
 .rel.text.ubifs_mkdir
                0x00000000240755c4        0x8 arch/arm/cpu/armv7m/start.o
 .rel.text.ubifs_write
                0x00000000240755cc       0x28 arch/arm/cpu/armv7m/start.o
 .rel.text.ubifs_unlink
                0x00000000240755f4        0x8 arch/arm/cpu/armv7m/start.o
 .rel.text.ubifs_load
                0x00000000240755fc        0x8 arch/arm/cpu/armv7m/start.o
 .rel.text.uboot_ubifs_umount
                0x0000000024075604       0x10 arch/arm/cpu/armv7m/start.o
 .rel.text.next_sqnum
                0x0000000024075614       0x10 arch/arm/cpu/armv7m/start.o
 .rel.text.ubifs_leb_read
                0x0000000024075624       0x10 arch/arm/cpu/armv7m/start.o
 .rel.text.ubifs_leb_write
                0x0000000024075634       0x18 arch/arm/cpu/armv7m/start.o
 .rel.text.ubifs_leb_change
                0x000000002407564c       0x18 arch/arm/cpu/armv7m/start.o
 .rel.text.ubifs_leb_unmap
                0x0000000024075664       0x18 arch/arm/cpu/armv7m/start.o
 .rel.text.ubifs_leb_map
                0x000000002407567c       0x18 arch/arm/cpu/armv7m/start.o
 .rel.text.ubifs_is_mapped
                0x0000000024075694       0x10 arch/arm/cpu/armv7m/start.o
 .rel.text.ubifs_check_node
                0x00000000240756a4       0x38 arch/arm/cpu/armv7m/start.o
 .rel.text.ubifs_pad
                0x00000000240756dc       0x10 arch/arm/cpu/armv7m/start.o
 .rel.text.ubifs_prepare_node
                0x00000000240756ec       0x10 arch/arm/cpu/armv7m/start.o
 .rel.text.ubifs_prep_grp_node
                0x00000000240756fc       0x10 arch/arm/cpu/armv7m/start.o
 .rel.text.ubifs_wbuf_sync_nolock
                0x000000002407570c       0x10 arch/arm/cpu/armv7m/start.o
 .rel.text.ubifs_wbuf_seek_nolock
                0x000000002407571c       0x10 arch/arm/cpu/armv7m/start.o
 .rel.text.ubifs_wbuf_write_nolock
                0x000000002407572c       0x18 arch/arm/cpu/armv7m/start.o
 .rel.text.ubifs_write_node
                0x0000000024075744       0x10 arch/arm/cpu/armv7m/start.o
 .rel.text.ubifs_read_node
                0x0000000024075754       0x30 arch/arm/cpu/armv7m/start.o
 .rel.text.ubifs_read_node_wbuf
                0x0000000024075784       0x30 arch/arm/cpu/armv7m/start.o
 .rel.text.free_orphans
                0x00000000240757b4       0x10 arch/arm/cpu/armv7m/start.o
 .rel.text.ubifs_alloc_inode
                0x00000000240757c4        0x8 arch/arm/cpu/armv7m/start.o
 .rel.text.take_gc_lnum
                0x00000000240757cc       0x10 arch/arm/cpu/armv7m/start.o
 .rel.text.iput
                0x00000000240757dc        0x8 arch/arm/cpu/armv7m/start.o
 .rel.text.ubifs_iget
                0x00000000240757e4       0x48 arch/arm/cpu/armv7m/start.o
 .rel.text.ubifs_umount
                0x000000002407582c       0x20 arch/arm/cpu/armv7m/start.o
 .rel.text.ubifs_mount
                0x000000002407584c      0x118 arch/arm/cpu/armv7m/start.o
 .rel.text.ubifs_init
                0x0000000024075964        0x8 arch/arm/cpu/armv7m/start.o
 .rel.text.uboot_ubifs_mount
                0x000000002407596c       0x18 arch/arm/cpu/armv7m/start.o
 .rel.text.fixup_leb
                0x0000000024075984       0x10 arch/arm/cpu/armv7m/start.o
 .rel.text.ubifs_read_superblock
                0x0000000024075994       0x88 arch/arm/cpu/armv7m/start.o
 .rel.text.ubifs_fixup_free_space
                0x0000000024075a1c       0x18 arch/arm/cpu/armv7m/start.o
 .rel.text.ubifs_read_master
                0x0000000024075a34       0x30 arch/arm/cpu/armv7m/start.o
 .rel.text.ubifs_write_master
                0x0000000024075a64       0x10 arch/arm/cpu/armv7m/start.o
 .rel.text.pack_bits
                0x0000000024075a74       0x10 arch/arm/cpu/armv7m/start.o
 .rel.text.ubifs_calc_lpt_geom
                0x0000000024075a84       0x18 arch/arm/cpu/armv7m/start.o
 .rel.text.ubifs_unpack_bits
                0x0000000024075a9c       0x10 arch/arm/cpu/armv7m/start.o
 .rel.text.check_lpt_crc
                0x0000000024075aac       0x10 arch/arm/cpu/armv7m/start.o
 .rel.text.check_lpt_type.constprop.0
                0x0000000024075abc       0x10 arch/arm/cpu/armv7m/start.o
 .rel.text.scan_get_pnode
                0x0000000024075acc       0x10 arch/arm/cpu/armv7m/start.o
 .rel.text.ubifs_add_lpt_dirt
                0x0000000024075adc       0x10 arch/arm/cpu/armv7m/start.o
 .rel.text.dirty_cow_nnode
                0x0000000024075aec       0x10 arch/arm/cpu/armv7m/start.o
 .rel.text.ubifs_read_nnode
                0x0000000024075afc       0x10 arch/arm/cpu/armv7m/start.o
 .rel.text.ubifs_get_pnode
                0x0000000024075b0c       0x18 arch/arm/cpu/armv7m/start.o
 .rel.text.ubifs_lpt_lookup_dirty
                0x0000000024075b24       0x18 arch/arm/cpu/armv7m/start.o
 .rel.text.ubifs_lpt_scan_nolock
                0x0000000024075b3c       0x10 arch/arm/cpu/armv7m/start.o
 .rel.text.first_dirty_cnode
                0x0000000024075b4c       0x10 arch/arm/cpu/armv7m/start.o
 .rel.text.upd_ltab
                0x0000000024075b5c       0x10 arch/arm/cpu/armv7m/start.o
 .rel.text.lpt_gc
                0x0000000024075b6c       0x18 arch/arm/cpu/armv7m/start.o
 .rel.text.ubifs_dump_lpt_lebs
                0x0000000024075b84       0xa0 arch/arm/cpu/armv7m/start.o
 .rel.text.ubifs_lpt_start_commit
                0x0000000024075c24       0x38 arch/arm/cpu/armv7m/start.o
 .rel.text.ubifs_lpt_end_commit
                0x0000000024075c5c       0x18 arch/arm/cpu/armv7m/start.o
 .rel.text.ubifs_scan_a_node
                0x0000000024075c74       0x18 arch/arm/cpu/armv7m/start.o
 .rel.text.ubifs_start_scan
                0x0000000024075c8c       0x10 arch/arm/cpu/armv7m/start.o
 .rel.text.ubifs_end_scan
                0x0000000024075c9c       0x10 arch/arm/cpu/armv7m/start.o
 .rel.text.ubifs_scanned_corruption
                0x0000000024075cac       0x20 arch/arm/cpu/armv7m/start.o
 .rel.text.ubifs_scan
                0x0000000024075ccc       0x40 arch/arm/cpu/armv7m/start.o
 .rel.text.ubifs_remove_from_cat
                0x0000000024075d0c       0x18 arch/arm/cpu/armv7m/start.o
 .rel.text.ubifs_add_to_cat
                0x0000000024075d24       0x18 arch/arm/cpu/armv7m/start.o
 .rel.text.ubifs_replace_cat
                0x0000000024075d3c       0x10 arch/arm/cpu/armv7m/start.o
 .rel.text.ubifs_categorize_lprops
                0x0000000024075d4c       0x10 arch/arm/cpu/armv7m/start.o
 .rel.text.ubifs_calc_dark
                0x0000000024075d5c       0x10 arch/arm/cpu/armv7m/start.o
 .rel.text.ubifs_change_lp
                0x0000000024075d6c       0x10 arch/arm/cpu/armv7m/start.o
 .rel.text.ubifs_change_one_lp
                0x0000000024075d7c       0x20 arch/arm/cpu/armv7m/start.o
 .rel.text.ubifs_update_one_lp
                0x0000000024075d9c       0x20 arch/arm/cpu/armv7m/start.o
 .rel.text.ubifs_read_one_lp
                0x0000000024075dbc       0x20 arch/arm/cpu/armv7m/start.o
 .rel.text.ubifs_fast_find_free
                0x0000000024075ddc       0x10 arch/arm/cpu/armv7m/start.o
 .rel.text.ubifs_fast_find_empty
                0x0000000024075dec       0x10 arch/arm/cpu/armv7m/start.o
 .rel.text.ubifs_fast_find_freeable
                0x0000000024075dfc       0x10 arch/arm/cpu/armv7m/start.o
 .rel.text.ubifs_fast_find_frdi_idx
                0x0000000024075e0c       0x10 arch/arm/cpu/armv7m/start.o
 .rel.text.insert_zbranch
                0x0000000024075e1c       0x10 arch/arm/cpu/armv7m/start.o
 .rel.text.insert_old_idx
                0x0000000024075e2c       0x10 arch/arm/cpu/armv7m/start.o
 .rel.text.lookup_znode
                0x0000000024075e3c       0x10 arch/arm/cpu/armv7m/start.o
 .rel.text.lnc_add_directly
                0x0000000024075e4c       0x10 arch/arm/cpu/armv7m/start.o
 .rel.text.tnc_read_node_nm
                0x0000000024075e5c       0x18 arch/arm/cpu/armv7m/start.o
 .rel.text.fallible_read_node
                0x0000000024075e74       0x10 arch/arm/cpu/armv7m/start.o
 .rel.text.resolve_collision
                0x0000000024075e84       0x10 arch/arm/cpu/armv7m/start.o
 .rel.text.fallible_matches_name
                0x0000000024075e94       0x10 arch/arm/cpu/armv7m/start.o
 .rel.text.fallible_resolve_collision
                0x0000000024075ea4       0x10 arch/arm/cpu/armv7m/start.o
 .rel.text.correct_parent_keys.constprop.0
                0x0000000024075eb4       0x10 arch/arm/cpu/armv7m/start.o
 .rel.text.tnc_insert.constprop.0
                0x0000000024075ec4       0x10 arch/arm/cpu/armv7m/start.o
 .rel.text.dirty_cow_znode
                0x0000000024075ed4       0x18 arch/arm/cpu/armv7m/start.o
 .rel.text.dirty_cow_bottom_up
                0x0000000024075eec       0x10 arch/arm/cpu/armv7m/start.o
 .rel.text.tnc_delete
                0x0000000024075efc       0x18 arch/arm/cpu/armv7m/start.o
 .rel.text.ubifs_lookup_level0
                0x0000000024075f14       0x10 arch/arm/cpu/armv7m/start.o
 .rel.text.ubifs_tnc_add_nm
                0x0000000024075f24        0x8 arch/arm/cpu/armv7m/start.o
 .rel.text.ubifs_tnc_next_ent
                0x0000000024075f2c       0x10 arch/arm/cpu/armv7m/start.o
 .rel.text.ubifs_tnc_close
                0x0000000024075f3c       0x20 arch/arm/cpu/armv7m/start.o
 .rel.text.ubifs_tnc_has_node
                0x0000000024075f5c       0x20 arch/arm/cpu/armv7m/start.o
 .rel.text.ubifs_search_zbranch
                0x0000000024075f7c       0x10 arch/arm/cpu/armv7m/start.o
 .rel.text.ubifs_tnc_postorder_next
                0x0000000024075f8c       0x10 arch/arm/cpu/armv7m/start.o
 .rel.text.ubifs_destroy_tnc_subtree
                0x0000000024075f9c       0x10 arch/arm/cpu/armv7m/start.o
 .rel.text.ubifs_load_znode
                0x0000000024075fac       0x78 arch/arm/cpu/armv7m/start.o
 .rel.text.ubifs_tnc_read_node
                0x0000000024076024       0x10 arch/arm/cpu/armv7m/start.o
 .rel.text.dbg_snprintf_key
                0x0000000024076034       0x58 arch/arm/cpu/armv7m/start.o
 .rel.text.dbg_ntype
                0x000000002407608c       0x10 arch/arm/cpu/armv7m/start.o
 .rel.text.dbg_jhead
                0x000000002407609c       0x10 arch/arm/cpu/armv7m/start.o
 .rel.text.ubifs_dump_node
                0x00000000240760ac      0x378 arch/arm/cpu/armv7m/start.o
 .rel.text.ubifs_dump_lstats
                0x0000000024076424       0x20 arch/arm/cpu/armv7m/start.o
 .rel.text.ubifs_dump_lprop
                0x0000000024076444       0x68 arch/arm/cpu/armv7m/start.o
 .rel.text.ubifs_dump_lprops
                0x00000000240764ac       0x28 arch/arm/cpu/armv7m/start.o
 .rel.text.ubifs_dump_lpt_info
                0x00000000240764d4       0xc8 arch/arm/cpu/armv7m/start.o
 .rel.text.ubifs_dump_leb
                0x000000002407659c       0x40 arch/arm/cpu/armv7m/start.o
 .rel.text.ubifs_dump_znode
                0x00000000240765dc       0x20 arch/arm/cpu/armv7m/start.o
 .rel.text.ubifs_dump_pnode
                0x00000000240765fc       0x28 arch/arm/cpu/armv7m/start.o
 .rel.text.crc16
                0x0000000024076624        0x8 arch/arm/cpu/armv7m/start.o
 .rel.text.ubifs_budget_space
                0x000000002407662c       0x18 arch/arm/cpu/armv7m/start.o
 .rel.text.ubifs_release_budget
                0x0000000024076644       0x10 arch/arm/cpu/armv7m/start.o
 .rel.text.ubifs_add_bud
                0x0000000024076654       0x10 arch/arm/cpu/armv7m/start.o
 .rel.text.ubifs_add_bud_to_log
                0x0000000024076664       0x10 arch/arm/cpu/armv7m/start.o
 .rel.text.ubifs_log_start_commit
                0x0000000024076674       0x18 arch/arm/cpu/armv7m/start.o
 .rel.text.ubifs_consolidate_log
                0x000000002407668c       0x10 arch/arm/cpu/armv7m/start.o
 .rel.text.ubifs_add_orphan
                0x000000002407669c       0x10 arch/arm/cpu/armv7m/start.o
 .rel.text.ubifs_delete_orphan
                0x00000000240766ac       0x10 arch/arm/cpu/armv7m/start.o
 .rel.text.ubifs_orphan_start_commit
                0x00000000240766bc       0x10 arch/arm/cpu/armv7m/start.o
 .rel.text.ubifs_orphan_end_commit
                0x00000000240766cc       0x38 arch/arm/cpu/armv7m/start.o
 .rel.text.ubifs_mount_orphans
                0x0000000024076704       0x18 arch/arm/cpu/armv7m/start.o
 .rel.text.grab_empty_leb
                0x000000002407671c       0x10 arch/arm/cpu/armv7m/start.o
 .rel.text.ubifs_recover_master_node
                0x000000002407672c       0x20 arch/arm/cpu/armv7m/start.o
 .rel.text.ubifs_recover_leb
                0x000000002407674c       0x40 arch/arm/cpu/armv7m/start.o
 .rel.text.ubifs_recover_log_leb
                0x000000002407678c       0x38 arch/arm/cpu/armv7m/start.o
 .rel.text.ubifs_recover_inl_heads
                0x00000000240767c4       0x10 arch/arm/cpu/armv7m/start.o
 .rel.text.ubifs_rcvry_gc_commit
                0x00000000240767d4       0x18 arch/arm/cpu/armv7m/start.o
 .rel.text.ubifs_recover_size
                0x00000000240767ec       0x10 arch/arm/cpu/armv7m/start.o
 .rel.text.replay_entries_cmp
                0x00000000240767fc       0x10 arch/arm/cpu/armv7m/start.o
 .rel.text.ubifs_validate_entry
                0x000000002407680c       0x28 arch/arm/cpu/armv7m/start.o
 .rel.text.ubifs_replay_journal
                0x0000000024076834       0xe0 arch/arm/cpu/armv7m/start.o
 .rel.text.nondata_nodes_cmp
                0x0000000024076914       0x10 arch/arm/cpu/armv7m/start.o
 .rel.text.data_nodes_cmp
                0x0000000024076924       0x10 arch/arm/cpu/armv7m/start.o
 .rel.text.switch_gc_head
                0x0000000024076934       0x10 arch/arm/cpu/armv7m/start.o
 .rel.text.ubifs_garbage_collect_leb
                0x0000000024076944       0x28 arch/arm/cpu/armv7m/start.o
 .rel.text.ubifs_garbage_collect
                0x000000002407696c       0x18 arch/arm/cpu/armv7m/start.o
 .rel.text.ubifs_gc_start_commit
                0x0000000024076984       0x18 arch/arm/cpu/armv7m/start.o
 .rel.text.do_commit
                0x000000002407699c       0x28 arch/arm/cpu/armv7m/start.o
 .rel.text.ubifs_find_dirty_leb
                0x00000000240769c4       0x28 arch/arm/cpu/armv7m/start.o
 .rel.text.ubifs_find_free_space
                0x00000000240769ec       0x28 arch/arm/cpu/armv7m/start.o
 .rel.text.ubifs_find_free_leb_for_idx
                0x0000000024076a14       0x28 arch/arm/cpu/armv7m/start.o
 .rel.text.ubifs_save_dirty_idx_lnums
                0x0000000024076a3c       0x20 arch/arm/cpu/armv7m/start.o
 .rel.text.ubifs_find_dirty_idx_leb
                0x0000000024076a5c       0x28 arch/arm/cpu/armv7m/start.o
 .rel.text.make_reservation
                0x0000000024076a84       0x28 arch/arm/cpu/armv7m/start.o
 .rel.text.get_dent_type
                0x0000000024076aac       0x20 arch/arm/cpu/armv7m/start.o
 .rel.text.ubifs_jnl_update
                0x0000000024076acc       0x18 arch/arm/cpu/armv7m/start.o
 .rel.text.ubifs_jnl_write_data
                0x0000000024076ae4       0x10 arch/arm/cpu/armv7m/start.o
 .rel.text.fill_gap
                0x0000000024076af4       0x20 arch/arm/cpu/armv7m/start.o
 .rel.text.ubifs_tnc_start_commit
                0x0000000024076b14       0x48 arch/arm/cpu/armv7m/start.o
 .rel.text.ubifs_tnc_end_commit
                0x0000000024076b5c       0x30 arch/arm/cpu/armv7m/start.o
 .rel.rodata.ubifs_super_operations
                0x0000000024076b8c       0x10 arch/arm/cpu/armv7m/start.o
 .rel.rodata.CSWTCH.50
                0x0000000024076b9c       0x28 arch/arm/cpu/armv7m/start.o
 .rel.rodata.CSWTCH.52
                0x0000000024076bc4       0x18 arch/arm/cpu/armv7m/start.o
 .rel.rodata.CSWTCH.56
                0x0000000024076bdc       0x60 arch/arm/cpu/armv7m/start.o
 .rel.rodata.CSWTCH.61
                0x0000000024076c3c       0x18 arch/arm/cpu/armv7m/start.o
 .rel.rodata.CSWTCH.68
                0x0000000024076c54       0x28 arch/arm/cpu/armv7m/start.o
 .rel.data.fstypes
                0x0000000024076c7c      0x130 arch/arm/cpu/armv7m/start.o
 .rel.data.lzo_compr
                0x0000000024076dac       0x18 arch/arm/cpu/armv7m/start.o
 .rel.data.none_compr
                0x0000000024076dc4       0x10 arch/arm/cpu/armv7m/start.o
 .rel.data.zlib_compr
                0x0000000024076dd4       0x18 arch/arm/cpu/armv7m/start.o
 .rel.data.ubifs_fs_type
                0x0000000024076dec       0x18 arch/arm/cpu/armv7m/start.o
 .rel.text.fdt_next_tag
                0x0000000024076e04       0x48 arch/arm/cpu/armv7m/start.o
 .rel.text.fdt_strerror
                0x0000000024076e4c       0x20 arch/arm/cpu/armv7m/start.o
 .rel.text.fdt_address_cells
                0x0000000024076e6c        0x8 arch/arm/cpu/armv7m/start.o
 .rel.text.fdt_size_cells
                0x0000000024076e74        0x8 arch/arm/cpu/armv7m/start.o
 .rel.text.overlay_adjust_node_phandles
                0x0000000024076e7c       0x10 arch/arm/cpu/armv7m/start.o
 .rel.text.overlay_get_target
                0x0000000024076e8c       0x10 arch/arm/cpu/armv7m/start.o
 .rel.text.fdt_overlay_apply
                0x0000000024076e9c       0x38 arch/arm/cpu/armv7m/start.o
 .rel.text.fdt_get_phandle
                0x0000000024076ed4       0x10 arch/arm/cpu/armv7m/start.o
 .rel.text.fdt_get_alias_namelen
                0x0000000024076ee4        0x8 arch/arm/cpu/armv7m/start.o
 .rel.text.fdt_node_check_compatible
                0x0000000024076eec        0x8 arch/arm/cpu/armv7m/start.o
 .rel.text.crc16_ccitt
                0x0000000024076ef4        0x8 arch/arm/cpu/armv7m/start.o
 .rel.text.list_sort
                0x0000000024076efc        0x8 arch/arm/cpu/armv7m/start.o
 .rel.text.sort
                0x0000000024076f04       0x18 arch/arm/cpu/armv7m/start.o
 .rel.text.rsa_verify_with_keynode
                0x0000000024076f1c       0x30 arch/arm/cpu/armv7m/start.o
 .rel.text.rsa_verify
                0x0000000024076f4c       0x10 arch/arm/cpu/armv7m/start.o
 .rel.text.sha1_finish
                0x0000000024076f5c        0x8 arch/arm/cpu/armv7m/start.o
 .rel.text.sha256_finish
                0x0000000024076f64        0x8 arch/arm/cpu/armv7m/start.o
 .rel.text.inflate_fast
                0x0000000024076f6c       0x18 arch/arm/cpu/armv7m/start.o
 .rel.text.inflate_table
                0x0000000024076f84       0x20 arch/arm/cpu/armv7m/start.o
 .rel.text.inflateInit2_
                0x0000000024076fa4       0x10 arch/arm/cpu/armv7m/start.o
 .rel.text.inflate
                0x0000000024076fb4       0xa0 arch/arm/cpu/armv7m/start.o
 .rel.text.gzip_parse_header
                0x0000000024077054       0x10 arch/arm/cpu/armv7m/start.o
 .rel.text.zunzip
                0x0000000024077064       0x28 arch/arm/cpu/armv7m/start.o
 .rel.text.lzop_is_valid_header
                0x000000002407708c        0x8 arch/arm/cpu/armv7m/start.o
 .rel.text.fdtdec_get_is_enabled
                0x0000000024077094       0x10 arch/arm/cpu/armv7m/start.o
 .rel.text.get_next_memory_node
                0x00000000240770a4       0x10 arch/arm/cpu/armv7m/start.o
 .rel.text.fdtdec_get_alias_seq
                0x00000000240770b4        0x8 arch/arm/cpu/armv7m/start.o
 .rel.text.fdtdec_get_chosen_prop
                0x00000000240770bc        0x8 arch/arm/cpu/armv7m/start.o
 .rel.text.fdtdec_prepare_fdt
                0x00000000240770c4        0x8 arch/arm/cpu/armv7m/start.o
 .rel.text.fdtdec_get_config_int
                0x00000000240770cc        0x8 arch/arm/cpu/armv7m/start.o
 .rel.text.fdtdec_get_config_string
                0x00000000240770d4        0x8 arch/arm/cpu/armv7m/start.o
 .rel.text.fdtdec_decode_display_timing
                0x00000000240770dc       0x88 arch/arm/cpu/armv7m/start.o
 .rel.text.fdtdec_setup_mem_size_base
                0x0000000024077164       0x10 arch/arm/cpu/armv7m/start.o
 .rel.text.fdtdec_setup_memory_banksize
                0x0000000024077174        0x8 arch/arm/cpu/armv7m/start.o
 .rel.text.board_fdt_blob_setup
                0x000000002407717c        0x8 arch/arm/cpu/armv7m/start.o
 .rel.text.fdtdec_setup
                0x0000000024077184        0x8 arch/arm/cpu/armv7m/start.o
 .rel.text.match_string
                0x000000002407718c        0x8 arch/arm/cpu/armv7m/start.o
 .rel.text.match_entry
                0x0000000024077194        0x8 arch/arm/cpu/armv7m/start.o
 .rel.text.hcreate_r
                0x000000002407719c        0x8 arch/arm/cpu/armv7m/start.o
 .rel.text.hdestroy_r
                0x00000000240771a4        0x8 arch/arm/cpu/armv7m/start.o
 .rel.text.hmatch_r
                0x00000000240771ac        0x8 arch/arm/cpu/armv7m/start.o
 .rel.text.hsearch_r
                0x00000000240771b4        0x8 arch/arm/cpu/armv7m/start.o
 .rel.text.hdelete_r
                0x00000000240771bc        0x8 arch/arm/cpu/armv7m/start.o
 .rel.text.hexport_r
                0x00000000240771c4       0x18 arch/arm/cpu/armv7m/start.o
 .rel.text.himport_r
                0x00000000240771dc       0x20 arch/arm/cpu/armv7m/start.o
 .rel.text.display_options_get_banner_priv
                0x00000000240771fc       0x28 arch/arm/cpu/armv7m/start.o
 .rel.text.display_options
                0x0000000024077224        0x8 arch/arm/cpu/armv7m/start.o
 .rel.text.print_size
                0x000000002407722c       0x28 arch/arm/cpu/armv7m/start.o
 .rel.text.print_buffer
                0x0000000024077254       0x28 arch/arm/cpu/armv7m/start.o
 .rel.text.crc32_no_comp
                0x000000002407727c        0x8 arch/arm/cpu/armv7m/start.o
 .rel.text.hang
                0x0000000024077284        0x8 arch/arm/cpu/armv7m/start.o
 .rel.text.skip_spaces
                0x000000002407728c        0x8 arch/arm/cpu/armv7m/start.o
 .rel.text.strim
                0x0000000024077294        0x8 arch/arm/cpu/armv7m/start.o
 .rel.text.lmb_alloc_base
                0x000000002407729c        0x8 arch/arm/cpu/armv7m/start.o
 .rel.text.emit
                0x00000000240772a4        0x8 arch/arm/cpu/armv7m/start.o
 .rel.text.store_char_in_data
                0x00000000240772ac        0x8 arch/arm/cpu/armv7m/start.o
 .rel.text.match
                0x00000000240772b4       0x10 arch/arm/cpu/armv7m/start.o
 .rel.text.fixup_branch.part.0
                0x00000000240772c4        0x8 arch/arm/cpu/armv7m/start.o
 .rel.text.quantifier
                0x00000000240772cc        0x8 arch/arm/cpu/armv7m/start.o
 .rel.text.compile
                0x00000000240772d4       0x80 arch/arm/cpu/armv7m/start.o
 .rel.text.strncasecmp
                0x0000000024077354        0x8 arch/arm/cpu/armv7m/start.o
 .rel.text.uuid_str_valid
                0x000000002407735c        0x8 arch/arm/cpu/armv7m/start.o
 .rel.text.uuid_bin_to_str
                0x0000000024077364       0x18 arch/arm/cpu/armv7m/start.o
 .rel.text.rand
                0x000000002407737c        0x8 arch/arm/cpu/armv7m/start.o
 .rel.text.number
                0x0000000024077384        0x8 arch/arm/cpu/armv7m/start.o
 .rel.text.string
                0x000000002407738c        0x8 arch/arm/cpu/armv7m/start.o
 .rel.text.vsnprintf_internal
                0x0000000024077394       0xc8 arch/arm/cpu/armv7m/start.o
 .rel.text.simple_itoa
                0x000000002407745c        0x8 arch/arm/cpu/armv7m/start.o
 .rel.text._parse_integer_fixup_radix
                0x0000000024077464        0x8 arch/arm/cpu/armv7m/start.o
 .rel.text.simple_strtoul
                0x000000002407746c        0x8 arch/arm/cpu/armv7m/start.o
 .rel.text.ustrtoul
                0x0000000024077474        0x8 arch/arm/cpu/armv7m/start.o
 .rel.text.simple_strtoull
                0x000000002407747c        0x8 arch/arm/cpu/armv7m/start.o
 .rel.text.ustrtoull
                0x0000000024077484        0x8 arch/arm/cpu/armv7m/start.o
 .rel.text.trailing_strtoln
                0x000000002407748c        0x8 arch/arm/cpu/armv7m/start.o
 .rel.rodata.fdt_errtable
                0x0000000024077494       0x88 arch/arm/cpu/armv7m/start.o
 .rel.data.current
                0x000000002407751c        0x8 arch/arm/cpu/armv7m/start.o
 .rel.text.arp_init
                0x0000000024077524       0x30 arch/arm/cpu/armv7m/start.o
 .rel.text.arp_raw_request
                0x0000000024077554       0x18 arch/arm/cpu/armv7m/start.o
 .rel.text.arp_request
                0x000000002407756c       0x38 arch/arm/cpu/armv7m/start.o
 .rel.text.arp_timeout_check
                0x00000000240775a4       0x28 arch/arm/cpu/armv7m/start.o
 .rel.text.arp_receive
                0x00000000240775cc       0x40 arch/arm/cpu/armv7m/start.o
 .rel.text.arp_is_waiting
                0x000000002407760c        0x8 arch/arm/cpu/armv7m/start.o
 .rel.text.bootp_handler
                0x0000000024077614      0x130 arch/arm/cpu/armv7m/start.o
 .rel.text.bootp_reset
                0x0000000024077744       0x20 arch/arm/cpu/armv7m/start.o
 .rel.text.bootp_request
                0x0000000024077764       0x80 arch/arm/cpu/armv7m/start.o
 .rel.text.bootp_timeout_handler
                0x00000000240777e4       0x28 arch/arm/cpu/armv7m/start.o
 .rel.text.eth_post_probe
                0x000000002407780c       0x30 arch/arm/cpu/armv7m/start.o
 .rel.text.eth_post_bind
                0x000000002407783c        0x8 arch/arm/cpu/armv7m/start.o
 .rel.text.eth_write_hwaddr.isra.0
                0x0000000024077844       0x10 arch/arm/cpu/armv7m/start.o
 .rel.text.eth_get_dev
                0x0000000024077854        0x8 arch/arm/cpu/armv7m/start.o
 .rel.text.eth_set_dev
                0x000000002407785c        0x8 arch/arm/cpu/armv7m/start.o
 .rel.text.eth_get_dev_by_name
                0x0000000024077864        0x8 arch/arm/cpu/armv7m/start.o
 .rel.text.eth_init
                0x000000002407786c       0x28 arch/arm/cpu/armv7m/start.o
 .rel.text.eth_initialize
                0x0000000024077894       0x28 arch/arm/cpu/armv7m/start.o
 .rel.text.eth_env_get_enetaddr_by_index
                0x00000000240778bc       0x10 arch/arm/cpu/armv7m/start.o
 .rel.text.eth_env_set_enetaddr_by_index
                0x00000000240778cc       0x10 arch/arm/cpu/armv7m/start.o
 .rel.text.eth_mac_skip
                0x00000000240778dc       0x10 arch/arm/cpu/armv7m/start.o
 .rel.text.eth_get_name
                0x00000000240778ec        0x8 arch/arm/cpu/armv7m/start.o
 .rel.text.eth_current_changed
                0x00000000240778f4       0x18 arch/arm/cpu/armv7m/start.o
 .rel.text.eth_try_another
                0x000000002407790c       0x20 arch/arm/cpu/armv7m/start.o
 .rel.text.eth_set_current
                0x000000002407792c       0x20 arch/arm/cpu/armv7m/start.o
 .rel.text.net_clear_handlers
                0x000000002407794c       0x20 arch/arm/cpu/armv7m/start.o
 .rel.text.start_again_timeout_handler
                0x000000002407796c        0x8 arch/arm/cpu/armv7m/start.o
 .rel.text.on_ipaddr
                0x0000000024077974        0x8 arch/arm/cpu/armv7m/start.o
 .rel.text.on_gatewayip
                0x000000002407797c        0x8 arch/arm/cpu/armv7m/start.o
 .rel.text.on_netmask
                0x0000000024077984        0x8 arch/arm/cpu/armv7m/start.o
 .rel.text.on_serverip
                0x000000002407798c        0x8 arch/arm/cpu/armv7m/start.o
 .rel.text.net_init_loop
                0x0000000024077994        0x8 arch/arm/cpu/armv7m/start.o
 .rel.text.net_init
                0x000000002407799c       0x20 arch/arm/cpu/armv7m/start.o
 .rel.text.net_start_again
                0x00000000240779bc       0x78 arch/arm/cpu/armv7m/start.o
 .rel.text.net_set_udp_handler
                0x0000000024077a34       0x10 arch/arm/cpu/armv7m/start.o
 .rel.text.net_get_arp_handler
                0x0000000024077a44        0x8 arch/arm/cpu/armv7m/start.o
 .rel.text.net_set_timeout_handler
                0x0000000024077a4c       0x18 arch/arm/cpu/armv7m/start.o
 .rel.text.net_get_async_tx_pkt_buf
                0x0000000024077a64       0x10 arch/arm/cpu/armv7m/start.o
 .rel.text.net_process_received_packet
                0x0000000024077a74       0x38 arch/arm/cpu/armv7m/start.o
 .rel.text.net_eth_hdr_size
                0x0000000024077aac        0x8 arch/arm/cpu/armv7m/start.o
 .rel.text.net_set_ether
                0x0000000024077ab4       0x10 arch/arm/cpu/armv7m/start.o
 .rel.text.net_update_ether
                0x0000000024077ac4        0x8 arch/arm/cpu/armv7m/start.o
 .rel.text.net_set_ip_header
                0x0000000024077acc        0x8 arch/arm/cpu/armv7m/start.o
 .rel.text.net_set_udp_header
                0x0000000024077ad4        0x8 arch/arm/cpu/armv7m/start.o
 .rel.text.net_send_ip_packet
                0x0000000024077adc       0x40 arch/arm/cpu/armv7m/start.o
 .rel.text.is_serverip_in_cmd
                0x0000000024077b1c        0x8 arch/arm/cpu/armv7m/start.o
 .rel.text.net_check_prereq
                0x0000000024077b24       0x48 arch/arm/cpu/armv7m/start.o
 .rel.text.net_auto_load
                0x0000000024077b6c       0x28 arch/arm/cpu/armv7m/start.o
 .rel.text.net_loop
                0x0000000024077b94       0x78 arch/arm/cpu/armv7m/start.o
 .rel.text.net_parse_bootfile
                0x0000000024077c0c        0x8 arch/arm/cpu/armv7m/start.o
 .rel.text.ip_to_string
                0x0000000024077c14        0x8 arch/arm/cpu/armv7m/start.o
 .rel.text.on_nvlan
                0x0000000024077c1c        0x8 arch/arm/cpu/armv7m/start.o
 .rel.text.on_vlan
                0x0000000024077c24        0x8 arch/arm/cpu/armv7m/start.o
 .rel.text.rpc_lookup_reply
                0x0000000024077c2c       0x18 arch/arm/cpu/armv7m/start.o
 .rel.text.nfs_mount_reply
                0x0000000024077c44       0x18 arch/arm/cpu/armv7m/start.o
 .rel.text.nfs_umountall_reply
                0x0000000024077c5c       0x18 arch/arm/cpu/armv7m/start.o
 .rel.text.nfs_lookup_reply
                0x0000000024077c74       0x30 arch/arm/cpu/armv7m/start.o
 .rel.text.nfs_readlink_reply
                0x0000000024077ca4       0x20 arch/arm/cpu/armv7m/start.o
 .rel.text.rpc_req
                0x0000000024077cc4       0x40 arch/arm/cpu/armv7m/start.o
 .rel.text.nfs_read_reply.constprop.0
                0x0000000024077d04       0x30 arch/arm/cpu/armv7m/start.o
 .rel.text.nfs_readlink_req
                0x0000000024077d34       0x18 arch/arm/cpu/armv7m/start.o
 .rel.text.nfs_read_req
                0x0000000024077d4c       0x18 arch/arm/cpu/armv7m/start.o
 .rel.text.nfs_lookup_req
                0x0000000024077d64       0x10 arch/arm/cpu/armv7m/start.o
 .rel.text.nfs_umountall_req
                0x0000000024077d74       0x10 arch/arm/cpu/armv7m/start.o
 .rel.text.nfs_send
                0x0000000024077d84       0x30 arch/arm/cpu/armv7m/start.o
 .rel.text.nfs_handler
                0x0000000024077db4       0x70 arch/arm/cpu/armv7m/start.o
 .rel.text.nfs_timeout_handler
                0x0000000024077e24       0x20 arch/arm/cpu/armv7m/start.o
 .rel.text.nfs_start
                0x0000000024077e44       0xd0 arch/arm/cpu/armv7m/start.o
 .rel.text.tftp_send
                0x0000000024077f14       0x80 arch/arm/cpu/armv7m/start.o
 .rel.text.tftp_handler
                0x0000000024077f94       0xe0 arch/arm/cpu/armv7m/start.o
 .rel.text.tftp_timeout_handler
                0x0000000024078074       0x40 arch/arm/cpu/armv7m/start.o
 .rel.text.tftp_start
                0x00000000240780b4      0x160 arch/arm/cpu/armv7m/start.o
 .rel.u_boot_list_2_env_clbk_2_ethaddr
                0x0000000024078214       0x10 arch/arm/cpu/armv7m/start.o
 .rel.u_boot_list_2_uclass_2_eth
                0x0000000024078224       0x28 arch/arm/cpu/armv7m/start.o
 .rel.u_boot_list_2_env_clbk_2_gatewayip
                0x000000002407824c       0x10 arch/arm/cpu/armv7m/start.o
 .rel.u_boot_list_2_env_clbk_2_ipaddr
                0x000000002407825c       0x10 arch/arm/cpu/armv7m/start.o
 .rel.u_boot_list_2_env_clbk_2_netmask
                0x000000002407826c       0x10 arch/arm/cpu/armv7m/start.o
 .rel.u_boot_list_2_env_clbk_2_nvlan
                0x000000002407827c       0x10 arch/arm/cpu/armv7m/start.o
 .rel.u_boot_list_2_env_clbk_2_serverip
                0x000000002407828c       0x10 arch/arm/cpu/armv7m/start.o
 .rel.u_boot_list_2_env_clbk_2_vlan
                0x000000002407829c       0x10 arch/arm/cpu/armv7m/start.o

.rel_dyn_end    0x00000000240782ac        0x0
 *(.__rel_dyn_end)
 .__rel_dyn_end
                0x00000000240782ac        0x0 arch/arm/lib/built-in.o

.end            0x00000000240782ac        0x0
 *(.__end)
 .__end         0x00000000240782ac        0x0 arch/arm/lib/built-in.o
                0x00000000240782ac                _image_binary_end = .
                0x0000000024079000                . = ALIGN (0x1000)

.mmutable
 *(.mmutable)

.bss_start      0x000000002406b9bc        0x0
 *(.__bss_start)
 .__bss_start   0x000000002406b9bc        0x0 arch/arm/lib/built-in.o
                0x000000002406b9bc                __bss_start
                0x000000002406b9bc                __bss_base = .

.bss            0x000000002406b9bc     0x6b20
 *(.bss*)
 .bss.params    0x000000002406b9bc        0x4 arch/arm/lib/built-in.o
 .bss.data.2    0x000000002406b9c0      0x400 cmd/built-in.o
 .bss.working_fdt
                0x000000002406bdc0        0x4 cmd/built-in.o
                0x000000002406bdc0                working_fdt
 .bss.a_b       0x000000002406bdc4       0x18 cmd/built-in.o
 .bss.bin_start_address
                0x000000002406bddc        0x4 cmd/built-in.o
 .bss.his_eol   0x000000002406bde0        0x1 cmd/built-in.o
 .bss.his_pad_char
                0x000000002406bde1        0x1 cmd/built-in.o
 *fill*         0x000000002406bde2        0x2 
 .bss.his_pad_count
                0x000000002406bde4        0x4 cmd/built-in.o
 .bss.his_quote
                0x000000002406bde8        0x1 cmd/built-in.o
 *fill*         0x000000002406bde9        0x3 
 .bss.k_data_escape
                0x000000002406bdec        0x4 cmd/built-in.o
 .bss.k_data_escape_saved
                0x000000002406bdf0        0x4 cmd/built-in.o
 .bss.os_data_addr
                0x000000002406bdf4        0x4 cmd/built-in.o
 .bss.os_data_addr_saved
                0x000000002406bdf8        0x4 cmd/built-in.o
 .bss.os_data_char
                0x000000002406bdfc        0x4 cmd/built-in.o
 .bss.os_data_init
                0x000000002406be00        0x4 cmd/built-in.o
 .bss.os_data_state
                0x000000002406be04        0x4 cmd/built-in.o
 .bss.os_data_state_saved
                0x000000002406be08        0x4 cmd/built-in.o
 .bss.send_parms
                0x000000002406be0c       0x14 cmd/built-in.o
 .bss.send_ptr  0x000000002406be20        0x4 cmd/built-in.o
 .bss.base_address
                0x000000002406be24        0x4 cmd/built-in.o
 .bss.dp_last_addr
                0x000000002406be28        0x4 cmd/built-in.o
 .bss.dp_last_size
                0x000000002406be2c        0x4 cmd/built-in.o
 .bss.mm_last_addr
                0x000000002406be30        0x4 cmd/built-in.o
 .bss.mm_last_size
                0x000000002406be34        0x4 cmd/built-in.o
 .bss.last_addr_hi
                0x000000002406be38        0x8 cmd/built-in.o
 .bss.last_addr_lo
                0x000000002406be40        0x8 cmd/built-in.o
 .bss.last_data
                0x000000002406be48        0x8 cmd/built-in.o
 .bss.last_mask
                0x000000002406be50        0x4 cmd/built-in.o
 .bss.last_op   0x000000002406be54        0x4 cmd/built-in.o
 .bss.last_reg_hi
                0x000000002406be58        0x8 cmd/built-in.o
 .bss.last_reg_lo
                0x000000002406be60        0x8 cmd/built-in.o
 .bss.last_devad_hi
                0x000000002406be68        0x4 cmd/built-in.o
 .bss.last_devad_lo
                0x000000002406be6c        0x4 cmd/built-in.o
 .bss.start.0   0x000000002406be70        0x4 cmd/built-in.o
 .bss.currdev   0x000000002406be74        0x4 cmd/built-in.o
 .bss.flash     0x000000002406be78        0x4 cmd/built-in.o
 .bss.ubi       0x000000002406be7c        0x4 cmd/built-in.o
 .bss.ubifs_initialized
                0x000000002406be80        0x4 cmd/built-in.o
 .bss.ubifs_mounted
                0x000000002406be84        0x4 cmd/built-in.o
 .bss.buf.2     0x000000002406be88       0x28 common/built-in.o
 .bss.do_repeat
                0x000000002406beb0        0x4 common/built-in.o
 .bss.flag_repeat
                0x000000002406beb4        0x4 common/built-in.o
 .bss.ifs       0x000000002406beb8        0x4 common/built-in.o
 .bss.last_return_code
                0x000000002406bebc        0x4 common/built-in.o
 .bss.map       0x000000002406bec0      0x100 common/built-in.o
 .bss.the_command.0
                0x000000002406bfc0      0x101 common/built-in.o
 *fill*         0x000000002406c0c1        0x3 
 .bss.top_vars  0x000000002406c0c4        0x4 common/built-in.o
 .bss.stored_bootdelay
                0x000000002406c0c8        0x4 common/built-in.o
 .bss.monitor_flash_len
                0x000000002406c0cc        0x4 common/built-in.o
                0x000000002406c0cc                monitor_flash_len
 .bss.images    0x000000002406c0d0      0x164 common/built-in.o
                0x000000002406c0d0                images
 .bss.current_mii
                0x000000002406c234        0x4 common/built-in.o
 .bss.mii_devs  0x000000002406c238        0x8 common/built-in.o
 .bss.console_buffer
                0x000000002406c240      0x101 common/built-in.o
                0x000000002406c240                console_buffer
 *fill*         0x000000002406c341        0x3 
 .bss.hist_add_idx
                0x000000002406c344        0x4 common/built-in.o
 .bss.hist_lines
                0x000000002406c348     0x1414 common/built-in.o
 .bss.hist_list
                0x000000002406d75c       0x50 common/built-in.o
 .bss.hist_max  0x000000002406d7ac        0x4 common/built-in.o
 .bss.hist_num  0x000000002406d7b0        0x4 common/built-in.o
 .bss.initted.0
                0x000000002406d7b4        0x4 common/built-in.o
 .bss.cd_count  0x000000002406d7b8        0xc common/built-in.o
                0x000000002406d7b8                cd_count
 .bss.console_devices
                0x000000002406d7c4        0xc common/built-in.o
                0x000000002406d7c4                console_devices
 .bss.ctrlc_disabled
                0x000000002406d7d0        0x4 common/built-in.o
 .bss.ctrlc_was_pressed
                0x000000002406d7d4        0x4 common/built-in.o
 .bss.tstcdev   0x000000002406d7d8        0x4 common/built-in.o
 .bss.current_mallinfo
                0x000000002406d7dc       0x28 common/built-in.o
 .bss.max_sbrked_mem
                0x000000002406d804        0x4 common/built-in.o
 .bss.max_total_mem
                0x000000002406d808        0x4 common/built-in.o
 .bss.mem_malloc_brk
                0x000000002406d80c        0x4 common/built-in.o
                0x000000002406d80c                mem_malloc_brk
 .bss.mem_malloc_end
                0x000000002406d810        0x4 common/built-in.o
                0x000000002406d810                mem_malloc_end
 .bss.mem_malloc_start
                0x000000002406d814        0x4 common/built-in.o
                0x000000002406d814                mem_malloc_start
 .bss.top_pad   0x000000002406d818        0x4 common/built-in.o
 .bss.devs      0x000000002406d81c       0x4c common/built-in.o
 .bss.stdio_devices
                0x000000002406d868        0xc common/built-in.o
                0x000000002406d868                stdio_devices
 .bss.env_complete_buf
                0x000000002406d874      0x200 common/built-in.o
 .bss.tmp_buf   0x000000002406da74      0x101 common/built-in.o
 *fill*         0x000000002406db75        0x3 
 .bss.xyz       0x000000002406db78      0x434 common/built-in.o
 .bss.name.5    0x000000002406dfac       0x25 disk/built-in.o
 .bss.pin_name  0x000000002406dfd1        0xa drivers/built-in.o
 *fill*         0x000000002406dfdb        0x1 
 .bss.initialized.0
                0x000000002406dfdc        0x4 drivers/built-in.o
 .bss.mtd_idr   0x000000002406dfe0      0x204 drivers/mtd/built-in.o
 .bss.mtd_del_all_parts_failed
                0x000000002406e1e4        0x1 drivers/mtd/built-in.o
 *fill*         0x000000002406e1e5        0x3 
 .bss.old_mtdids.2
                0x000000002406e1e8        0x4 drivers/mtd/built-in.o
 .bss.old_mtdparts.3
                0x000000002406e1ec        0x4 drivers/mtd/built-in.o
 .bss.tmp_parts.1
                0x000000002406e1f0      0x200 drivers/mtd/built-in.o
 .bss.flash_info
                0x000000002406e3f0       0x18 drivers/mtd/built-in.o
                0x000000002406e3f0                flash_info
 .bss.sf_mtd_info
                0x000000002406e408       0xf0 drivers/mtd/spi/built-in.o
 .bss.sf_mtd_name
                0x000000002406e4f8        0x8 drivers/mtd/spi/built-in.o
 .bss.sf_mtd_registered
                0x000000002406e500        0x1 drivers/mtd/spi/built-in.o
 *fill*         0x000000002406e501        0x3 
 .bss.ech       0x000000002406e504        0x4 drivers/mtd/ubi/built-in.o
 .bss.vidh      0x000000002406e508        0x4 drivers/mtd/ubi/built-in.o
 .bss.mtd_dev_param
                0x000000002406e50c      0x980 drivers/mtd/ubi/built-in.o
 .bss.mtd_devs  0x000000002406ee8c        0x4 drivers/mtd/ubi/built-in.o
 .bss.ubi_devices
                0x000000002406ee90       0x80 drivers/mtd/ubi/built-in.o
                0x000000002406ee90                ubi_devices
 .bss.ubi_wl_entry_slab
                0x000000002406ef10        0x4 drivers/mtd/ubi/built-in.o
                0x000000002406ef10                ubi_wl_entry_slab
 .bss.empty_vtbl_record
                0x000000002406ef14       0xac drivers/mtd/ubi/built-in.o
 .bss.env_flags
                0x000000002406efc0        0x1 env/built-in.o
 *fill*         0x000000002406efc1        0x3 
 .bss.callback_list
                0x000000002406efc4        0x4 env/built-in.o
 .bss.flags_list
                0x000000002406efc8        0x4 env/built-in.o
 .bss.fs_dev_desc
                0x000000002406efcc        0x4 fs/built-in.o
 .bss.fs_dev_part
                0x000000002406efd0        0x4 fs/built-in.o
 .bss.fs_partition
                0x000000002406efd4       0x78 fs/built-in.o
 .bss.fs_type   0x000000002406f04c        0x4 fs/built-in.o
 .bss.cur_dev   0x000000002406f050        0x4 fs/built-in.o
 .bss.cur_part_info
                0x000000002406f054       0x78 fs/built-in.o
 .bss.ubifs_clean_zn_cnt
                0x000000002406f0cc        0x4 fs/built-in.o
                0x000000002406f0cc                ubifs_clean_zn_cnt
 .bss.ubifs_compressors
                0x000000002406f0d0        0xc fs/built-in.o
                0x000000002406f0d0                ubifs_compressors
 .bss.inodes_locked_down
                0x000000002406f0dc      0x100 fs/built-in.o
 .bss.ubifs_inode_slab
                0x000000002406f1dc        0x4 fs/built-in.o
                0x000000002406f1dc                ubifs_inode_slab
 .bss.ubifs_sb  0x000000002406f1e0        0x4 fs/built-in.o
                0x000000002406f1e0                ubifs_sb
 .bss.errno     0x000000002406f1e4        0x4 lib/built-in.o
                0x000000002406f1e4                errno
 .bss.local.0   0x000000002406f1e8       0x16 lib/built-in.o
 *fill*         0x000000002406f1fe        0x2 
 .bss.arp_tx_packet
                0x000000002406f200        0x4 net/built-in.o
                0x000000002406f200                arp_tx_packet
 .bss.arp_tx_packet_buf
                0x000000002406f204      0x620 net/built-in.o
 .bss.arp_wait_packet_ethaddr
                0x000000002406f824        0x4 net/built-in.o
                0x000000002406f824                arp_wait_packet_ethaddr
 .bss.arp_wait_timer_start
                0x000000002406f828        0x4 net/built-in.o
                0x000000002406f828                arp_wait_timer_start
 .bss.arp_wait_try
                0x000000002406f82c        0x4 net/built-in.o
                0x000000002406f82c                arp_wait_try
 .bss.arp_wait_tx_packet_size
                0x000000002406f830        0x4 net/built-in.o
                0x000000002406f830                arp_wait_tx_packet_size
 .bss.net_arp_wait_packet_ip
                0x000000002406f834        0x4 net/built-in.o
                0x000000002406f834                net_arp_wait_packet_ip
 .bss.net_arp_wait_reply_ip
                0x000000002406f838        0x4 net/built-in.o
 .bss.bootp_ids
                0x000000002406f83c       0x10 net/built-in.o
                0x000000002406f83c                bootp_ids
 .bss.bootp_num_ids
                0x000000002406f84c        0x4 net/built-in.o
                0x000000002406f84c                bootp_num_ids
 .bss.bootp_start
                0x000000002406f850        0x4 net/built-in.o
                0x000000002406f850                bootp_start
 .bss.bootp_timeout
                0x000000002406f854        0x4 net/built-in.o
                0x000000002406f854                bootp_timeout
 .bss.bootp_try
                0x000000002406f858        0x4 net/built-in.o
                0x000000002406f858                bootp_try
 .bss.net_hostname
                0x000000002406f85c       0x20 net/built-in.o
                0x000000002406f85c                net_hostname
 .bss.net_nis_domain
                0x000000002406f87c       0x20 net/built-in.o
                0x000000002406f87c                net_nis_domain
 .bss.net_root_path
                0x000000002406f89c       0x40 net/built-in.o
                0x000000002406f89c                net_root_path
 .bss.time_taken_max
                0x000000002406f8dc        0x4 net/built-in.o
 .bss.eth_errno
                0x000000002406f8e0        0x4 net/built-in.o
 .bss.act.1     0x000000002406f8e4        0x4 net/built-in.o
 .bss.env_changed_id.0
                0x000000002406f8e8        0x4 net/built-in.o
 .bss.first_failed.2
                0x000000002406f8ec        0x4 net/built-in.o
 .bss.arp_packet_handler
                0x000000002406f8f0        0x4 net/built-in.o
 .bss.net_boot_file_expected_size_in_blocks
                0x000000002406f8f4        0x4 net/built-in.o
                0x000000002406f8f4                net_boot_file_expected_size_in_blocks
 .bss.net_boot_file_name
                0x000000002406f8f8      0x400 net/built-in.o
                0x000000002406f8f8                net_boot_file_name
 .bss.net_boot_file_name_explicit
                0x000000002406fcf8        0x1 net/built-in.o
                0x000000002406fcf8                net_boot_file_name_explicit
 *fill*         0x000000002406fcf9        0x3 
 .bss.net_boot_file_size
                0x000000002406fcfc        0x4 net/built-in.o
                0x000000002406fcfc                net_boot_file_size
 .bss.net_dev_exists
                0x000000002406fd00        0x4 net/built-in.o
 .bss.net_dns_server
                0x000000002406fd04        0x4 net/built-in.o
                0x000000002406fd04                net_dns_server
 .bss.net_ethaddr
                0x000000002406fd08        0x6 net/built-in.o
                0x000000002406fd08                net_ethaddr
 *fill*         0x000000002406fd0e        0x2 
 .bss.net_gateway
                0x000000002406fd10        0x4 net/built-in.o
                0x000000002406fd10                net_gateway
 .bss.net_ip    0x000000002406fd14        0x4 net/built-in.o
                0x000000002406fd14                net_ip
 .bss.net_ip_id
                0x000000002406fd18        0x4 net/built-in.o
 .bss.net_netmask
                0x000000002406fd1c        0x4 net/built-in.o
                0x000000002406fd1c                net_netmask
 .bss.net_pkt_buf
                0x000000002406fd20     0x1e20 net/built-in.o
 .bss.net_restart_wrap
                0x0000000024071b40        0x4 net/built-in.o
                0x0000000024071b40                net_restart_wrap
 .bss.net_restarted
                0x0000000024071b44        0x4 net/built-in.o
 .bss.net_rx_packet
                0x0000000024071b48        0x4 net/built-in.o
                0x0000000024071b48                net_rx_packet
 .bss.net_rx_packet_len
                0x0000000024071b4c        0x4 net/built-in.o
                0x0000000024071b4c                net_rx_packet_len
 .bss.net_rx_packets
                0x0000000024071b50       0x10 net/built-in.o
                0x0000000024071b50                net_rx_packets
 .bss.net_server_ethaddr
                0x0000000024071b60        0x6 net/built-in.o
                0x0000000024071b60                net_server_ethaddr
 *fill*         0x0000000024071b66        0x2 
 .bss.net_server_ip
                0x0000000024071b68        0x4 net/built-in.o
                0x0000000024071b68                net_server_ip
 .bss.net_state
                0x0000000024071b6c        0x4 net/built-in.o
                0x0000000024071b6c                net_state
 .bss.net_try_count
                0x0000000024071b70        0x4 net/built-in.o
 .bss.net_tx_packet
                0x0000000024071b74        0x4 net/built-in.o
                0x0000000024071b74                net_tx_packet
 .bss.time_delta
                0x0000000024071b78        0x4 net/built-in.o
 .bss.time_handler
                0x0000000024071b7c        0x4 net/built-in.o
 .bss.time_start
                0x0000000024071b80        0x8 net/built-in.o
 .bss.udp_packet_handler
                0x0000000024071b88        0x4 net/built-in.o
 .bss.dirfh     0x0000000024071b8c       0x20 net/built-in.o
 .bss.filefh    0x0000000024071bac       0x40 net/built-in.o
 .bss.filefh3_length
                0x0000000024071bec        0x4 net/built-in.o
 .bss.fs_mounted
                0x0000000024071bf0        0x4 net/built-in.o
 .bss.nfs_download_state
                0x0000000024071bf4        0x4 net/built-in.o
 .bss.nfs_filename
                0x0000000024071bf8        0x4 net/built-in.o
 .bss.nfs_len   0x0000000024071bfc        0x4 net/built-in.o
 .bss.nfs_our_port
                0x0000000024071c00        0x4 net/built-in.o
 .bss.nfs_path  0x0000000024071c04        0x4 net/built-in.o
 .bss.nfs_path_buff
                0x0000000024071c08      0x800 net/built-in.o
 .bss.nfs_server_ip
                0x0000000024072408        0x4 net/built-in.o
 .bss.nfs_server_mount_port
                0x000000002407240c        0x4 net/built-in.o
 .bss.nfs_server_port
                0x0000000024072410        0x4 net/built-in.o
 .bss.nfs_state
                0x0000000024072414        0x4 net/built-in.o
 .bss.nfs_timeout_count
                0x0000000024072418        0x4 net/built-in.o
 .bss.rpc_id    0x000000002407241c        0x4 net/built-in.o
 .bss.default_filename
                0x0000000024072420        0xd net/built-in.o
 *fill*         0x000000002407242d        0x3 
 .bss.tftp_block_wrap
                0x0000000024072430        0x4 net/built-in.o
 .bss.tftp_block_wrap_offset
                0x0000000024072434        0x4 net/built-in.o
 .bss.tftp_cur_block
                0x0000000024072438        0x4 net/built-in.o
 .bss.tftp_filename
                0x000000002407243c       0x80 net/built-in.o
 .bss.tftp_load_addr
                0x00000000240724bc        0x4 net/built-in.o
 .bss.tftp_load_size
                0x00000000240724c0        0x4 net/built-in.o
 .bss.tftp_our_port
                0x00000000240724c4        0x4 net/built-in.o
 .bss.tftp_prev_block
                0x00000000240724c8        0x4 net/built-in.o
 .bss.tftp_remote_ip
                0x00000000240724cc        0x4 net/built-in.o
 .bss.tftp_remote_port
                0x00000000240724d0        0x4 net/built-in.o
 .bss.tftp_state
                0x00000000240724d4        0x4 net/built-in.o
 .bss.timeout_count
                0x00000000240724d8        0x4 net/built-in.o
                0x00000000240724dc                . = ALIGN (0x4)
                0x00000000240724dc                __bss_limit = .

.bss_end        0x00000000240724dc        0x0
 *(.__bss_end)
 .__bss_end     0x00000000240724dc        0x0 arch/arm/lib/built-in.o
                0x00000000240724dc                __bss_end

.dynsym         0x00000000240782ac       0x30
 *(.dynsym)
 .dynsym        0x00000000240782ac       0x30 arch/arm/cpu/armv7m/start.o

.dynbss         0x00000000240782dc        0x0
 *(.dynbss)
 .dynbss        0x00000000240782dc        0x0 arch/arm/cpu/armv7m/start.o

.dynstr         0x00000000240782dc        0x1
 *(.dynstr*)
 .dynstr        0x00000000240782dc        0x1 arch/arm/cpu/armv7m/start.o

.dynamic        0x00000000240782e0       0x88
 *(.dynamic*)
 .dynamic       0x00000000240782e0       0x88 arch/arm/cpu/armv7m/start.o
                0x00000000240782e0                _DYNAMIC

.plt            0x0000000024078368        0x0
 *(.plt*)
 .plt           0x0000000024078368        0x0 arch/arm/cpu/armv7m/start.o

.interp
 *(.interp*)

.gnu.hash
 *(.gnu.hash)

.gnu            0x0000000024078368        0x0
 *(.gnu*)
 .gnu.version_d
                0x0000000024078368        0x0 arch/arm/cpu/armv7m/start.o
 .gnu.version   0x0000000024078368        0x0 arch/arm/cpu/armv7m/start.o
 .gnu.version_r
                0x0000000024078368        0x0 arch/arm/cpu/armv7m/start.o

.ARM.exidx
 *(.ARM.exidx*)

.gnu.linkonce.armexidx
 *(.gnu.linkonce.armexidx.*)
LOAD arch/arm/cpu/armv7m/start.o
START GROUP
LOAD arch/arm/cpu/built-in.o
LOAD arch/arm/cpu/armv7m/built-in.o
LOAD arch/arm/lib/built-in.o
LOAD arch/arm/mach-stm32/built-in.o
LOAD board/emcraft/stm32h7-som/built-in.o
LOAD cmd/built-in.o
LOAD common/built-in.o
LOAD disk/built-in.o
LOAD drivers/built-in.o
LOAD drivers/dma/built-in.o
LOAD drivers/gpio/built-in.o
LOAD drivers/i2c/built-in.o
LOAD drivers/mtd/built-in.o
LOAD drivers/mtd/onenand/built-in.o
LOAD drivers/mtd/spi/built-in.o
LOAD drivers/mtd/ubi/built-in.o
LOAD drivers/net/built-in.o
LOAD drivers/net/phy/built-in.o
LOAD drivers/power/built-in.o
LOAD drivers/power/battery/built-in.o
LOAD drivers/power/domain/built-in.o
LOAD drivers/power/fuel_gauge/built-in.o
LOAD drivers/power/mfd/built-in.o
LOAD drivers/power/pmic/built-in.o
LOAD drivers/power/regulator/built-in.o
LOAD drivers/serial/built-in.o
LOAD drivers/spi/built-in.o
LOAD drivers/usb/common/built-in.o
LOAD drivers/usb/dwc3/built-in.o
LOAD drivers/usb/emul/built-in.o
LOAD drivers/usb/eth/built-in.o
LOAD drivers/usb/host/built-in.o
LOAD drivers/usb/musb-new/built-in.o
LOAD drivers/usb/musb/built-in.o
LOAD drivers/usb/phy/built-in.o
LOAD drivers/usb/ulpi/built-in.o
LOAD env/built-in.o
LOAD fs/built-in.o
LOAD lib/built-in.o
LOAD net/built-in.o
END GROUP
LOAD arch/arm/lib/eabi_compat.o
LOAD arch/arm/lib/lib.a
OUTPUT(u-boot elf32-littlearm)
LOAD linker stubs

.ARM.attributes
                0x0000000000000000       0x27
 .ARM.attributes
                0x0000000000000000       0x1b arch/arm/cpu/armv7m/start.o
 .ARM.attributes
                0x000000000000001b       0x2b arch/arm/cpu/armv7m/built-in.o
 .ARM.attributes
                0x0000000000000046       0x27 arch/arm/lib/built-in.o
 .ARM.attributes
                0x000000000000006d       0x2b arch/arm/mach-stm32/built-in.o
 .ARM.attributes
                0x0000000000000098       0x2b board/emcraft/stm32h7-som/built-in.o
 .ARM.attributes
                0x00000000000000c3       0x2b cmd/built-in.o
 .ARM.attributes
                0x00000000000000ee       0x2b common/built-in.o
 .ARM.attributes
                0x0000000000000119       0x2b disk/built-in.o
 .ARM.attributes
                0x0000000000000144       0x2b drivers/built-in.o
 .ARM.attributes
                0x000000000000016f       0x2b drivers/gpio/built-in.o
 .ARM.attributes
                0x000000000000019a       0x2b drivers/mtd/built-in.o
 .ARM.attributes
                0x00000000000001c5       0x2b drivers/mtd/spi/built-in.o
 .ARM.attributes
                0x00000000000001f0       0x2b drivers/mtd/ubi/built-in.o
 .ARM.attributes
                0x000000000000021b       0x2b drivers/net/built-in.o
 .ARM.attributes
                0x0000000000000246       0x2b drivers/net/phy/built-in.o
 .ARM.attributes
                0x0000000000000271       0x2b drivers/serial/built-in.o
 .ARM.attributes
                0x000000000000029c       0x2b drivers/spi/built-in.o
 .ARM.attributes
                0x00000000000002c7       0x2b env/built-in.o
 .ARM.attributes
                0x00000000000002f2       0x2b fs/built-in.o
 .ARM.attributes
                0x000000000000031d       0x2b lib/built-in.o
 .ARM.attributes
                0x0000000000000348       0x2b net/built-in.o

.comment        0x0000000000000000       0x33
 .comment       0x0000000000000000       0x33 arch/arm/cpu/armv7m/built-in.o
                                         0x9c (size before relaxing)
 .comment       0x0000000000000033      0x1d4 arch/arm/lib/built-in.o
 .comment       0x0000000000000033       0x68 arch/arm/mach-stm32/built-in.o
 .comment       0x0000000000000033       0x34 board/emcraft/stm32h7-som/built-in.o
 .comment       0x0000000000000033      0x71c cmd/built-in.o
 .comment       0x0000000000000033      0x64c common/built-in.o
 .comment       0x0000000000000033       0x9c disk/built-in.o
 .comment       0x0000000000000033      0xa5c drivers/built-in.o
 .comment       0x0000000000000033       0x68 drivers/gpio/built-in.o
 .comment       0x0000000000000033      0x104 drivers/mtd/built-in.o
 .comment       0x0000000000000033      0x104 drivers/mtd/spi/built-in.o
 .comment       0x0000000000000033      0x2a4 drivers/mtd/ubi/built-in.o
 .comment       0x0000000000000033       0x34 drivers/net/built-in.o
 .comment       0x0000000000000033       0x68 drivers/net/phy/built-in.o
 .comment       0x0000000000000033       0x68 drivers/serial/built-in.o
 .comment       0x0000000000000033       0x9c drivers/spi/built-in.o
 .comment       0x0000000000000033      0x138 env/built-in.o
 .comment       0x0000000000000033      0x548 fs/built-in.o
 .comment       0x0000000000000033      0xac4 lib/built-in.o
 .comment       0x0000000000000033      0x1a0 net/built-in.o

.debug_line     0x0000000000000000    0x93969
 .debug_line    0x0000000000000000       0x4c arch/arm/cpu/armv7m/start.o
 .debug_line    0x000000000000004c      0x6e1 arch/arm/cpu/armv7m/built-in.o
 .debug_line    0x000000000000072d     0x110a arch/arm/lib/built-in.o
 .debug_line    0x0000000000001837      0x20d arch/arm/mach-stm32/built-in.o
 .debug_line    0x0000000000001a44      0x5b3 board/emcraft/stm32h7-som/built-in.o
 .debug_line    0x0000000000001ff7     0xc284 cmd/built-in.o
 .debug_line    0x000000000000e27b    0x111cb common/built-in.o
 .debug_line    0x000000000001f446     0x24eb disk/built-in.o
 .debug_line    0x0000000000021931    0x13b5b drivers/built-in.o
 .debug_line    0x000000000003548c     0x175c drivers/gpio/built-in.o
 .debug_line    0x0000000000036be8     0x359e drivers/mtd/built-in.o
 .debug_line    0x000000000003a186     0x2996 drivers/mtd/spi/built-in.o
 .debug_line    0x000000000003cb1c    0x10e26 drivers/mtd/ubi/built-in.o
 .debug_line    0x000000000004d942     0x179c drivers/net/built-in.o
 .debug_line    0x000000000004f0de     0x1427 drivers/net/phy/built-in.o
 .debug_line    0x0000000000050505      0xd60 drivers/serial/built-in.o
 .debug_line    0x0000000000051265     0x1ae3 drivers/spi/built-in.o
 .debug_line    0x0000000000052d48     0x1990 env/built-in.o
 .debug_line    0x00000000000546d8    0x24cc4 fs/built-in.o
 .debug_line    0x000000000007939c    0x152d0 lib/built-in.o
 .debug_line    0x000000000008e66c     0x52fd net/built-in.o

.debug_info     0x0000000000000000   0x1e0d34
 .debug_info    0x0000000000000000       0x26 arch/arm/cpu/armv7m/start.o
 .debug_info    0x0000000000000026      0xe86 arch/arm/cpu/armv7m/built-in.o
 .debug_info    0x0000000000000eac     0x3c4b arch/arm/lib/built-in.o
 .debug_info    0x0000000000004af7      0xe80 arch/arm/mach-stm32/built-in.o
 .debug_info    0x0000000000005977     0x1804 board/emcraft/stm32h7-som/built-in.o
 .debug_info    0x000000000000717b    0x2b591 cmd/built-in.o
 .debug_info    0x000000000003270c    0x2f9dc common/built-in.o
 .debug_info    0x00000000000620e8     0x58be disk/built-in.o
 .debug_info    0x00000000000679a6    0x4a5e2 drivers/built-in.o
 .debug_info    0x00000000000b1f88     0x4bb8 drivers/gpio/built-in.o
 .debug_info    0x00000000000b6b40     0x9d32 drivers/mtd/built-in.o
 .debug_info    0x00000000000c0872     0xb97c drivers/mtd/spi/built-in.o
 .debug_info    0x00000000000cc1ee    0x347ac drivers/mtd/ubi/built-in.o
 .debug_info    0x000000000010099a     0x4dca drivers/net/built-in.o
 .debug_info    0x0000000000105764     0x413c drivers/net/phy/built-in.o
 .debug_info    0x00000000001098a0     0x362a drivers/serial/built-in.o
 .debug_info    0x000000000010ceca     0x69e9 drivers/spi/built-in.o
 .debug_info    0x00000000001138b3     0x541e env/built-in.o
 .debug_info    0x0000000000118cd1    0x963d7 fs/built-in.o
 .debug_info    0x00000000001af0a8    0x24ebd lib/built-in.o
 .debug_info    0x00000000001d3f65     0xcdcf net/built-in.o

.debug_abbrev   0x0000000000000000    0x39be8
 .debug_abbrev  0x0000000000000000       0x14 arch/arm/cpu/armv7m/start.o
 .debug_abbrev  0x0000000000000014      0x5ba arch/arm/cpu/armv7m/built-in.o
 .debug_abbrev  0x00000000000005ce      0xd14 arch/arm/lib/built-in.o
 .debug_abbrev  0x00000000000012e2      0x284 arch/arm/mach-stm32/built-in.o
 .debug_abbrev  0x0000000000001566      0x43d board/emcraft/stm32h7-som/built-in.o
 .debug_abbrev  0x00000000000019a3     0x6910 cmd/built-in.o
 .debug_abbrev  0x00000000000082b3     0x6b57 common/built-in.o
 .debug_abbrev  0x000000000000ee0a      0xf17 disk/built-in.o
 .debug_abbrev  0x000000000000fd21     0xaa38 drivers/built-in.o
 .debug_abbrev  0x000000000001a759      0x95b drivers/gpio/built-in.o
 .debug_abbrev  0x000000000001b0b4     0x145f drivers/mtd/built-in.o
 .debug_abbrev  0x000000000001c513     0x1208 drivers/mtd/spi/built-in.o
 .debug_abbrev  0x000000000001d71b     0x4c5b drivers/mtd/ubi/built-in.o
 .debug_abbrev  0x0000000000022376      0x58d drivers/net/built-in.o
 .debug_abbrev  0x0000000000022903      0x80c drivers/net/phy/built-in.o
 .debug_abbrev  0x000000000002310f      0x8d8 drivers/serial/built-in.o
 .debug_abbrev  0x00000000000239e7      0xdda drivers/spi/built-in.o
 .debug_abbrev  0x00000000000247c1     0x1236 env/built-in.o
 .debug_abbrev  0x00000000000259f7     0xac08 fs/built-in.o
 .debug_abbrev  0x00000000000305ff     0x75f3 lib/built-in.o
 .debug_abbrev  0x0000000000037bf2     0x1ff6 net/built-in.o

.debug_aranges  0x0000000000000000     0x6588
 .debug_aranges
                0x0000000000000000       0x20 arch/arm/cpu/armv7m/start.o
 .debug_aranges
                0x0000000000000020       0xe0 arch/arm/cpu/armv7m/built-in.o
 .debug_aranges
                0x0000000000000100      0x290 arch/arm/lib/built-in.o
 .debug_aranges
                0x0000000000000390       0x40 arch/arm/mach-stm32/built-in.o
 .debug_aranges
                0x00000000000003d0       0x60 board/emcraft/stm32h7-som/built-in.o
 .debug_aranges
                0x0000000000000430      0x8b8 cmd/built-in.o
 .debug_aranges
                0x0000000000000ce8      0xf18 common/built-in.o
 .debug_aranges
                0x0000000000001c00      0x170 disk/built-in.o
 .debug_aranges
                0x0000000000001d70     0x1208 drivers/built-in.o
 .debug_aranges
                0x0000000000002f78      0x1c0 drivers/gpio/built-in.o
 .debug_aranges
                0x0000000000003138      0x320 drivers/mtd/built-in.o
 .debug_aranges
                0x0000000000003458      0x1e8 drivers/mtd/spi/built-in.o
 .debug_aranges
                0x0000000000003640      0x610 drivers/mtd/ubi/built-in.o
 .debug_aranges
                0x0000000000003c50      0x138 drivers/net/built-in.o
 .debug_aranges
                0x0000000000003d88       0xf0 drivers/net/phy/built-in.o
 .debug_aranges
                0x0000000000003e78      0x110 drivers/serial/built-in.o
 .debug_aranges
                0x0000000000003f88      0x160 drivers/spi/built-in.o
 .debug_aranges
                0x00000000000040e8      0x1b8 env/built-in.o
 .debug_aranges
                0x00000000000042a0      0xe60 fs/built-in.o
 .debug_aranges
                0x0000000000005100     0x10a0 lib/built-in.o
 .debug_aranges
                0x00000000000061a0      0x3e8 net/built-in.o

.debug_str      0x0000000000000000    0x1ecf7
 .debug_str     0x0000000000000000       0x4d arch/arm/cpu/armv7m/start.o
 .debug_str     0x000000000000004d      0x6eb arch/arm/cpu/armv7m/built-in.o
                                        0xcda (size before relaxing)
 .debug_str     0x0000000000000738     0x1d38 arch/arm/lib/built-in.o
                                       0x46be (size before relaxing)
 .debug_str     0x0000000000002470       0xe6 arch/arm/mach-stm32/built-in.o
                                       0x10a1 (size before relaxing)
 .debug_str     0x0000000000002556      0x569 board/emcraft/stm32h7-som/built-in.o
                                       0x1451 (size before relaxing)
 .debug_str     0x0000000000002abf     0x44af cmd/built-in.o
                                      0x1d2e9 (size before relaxing)
 .debug_str     0x0000000000006f6e     0x3c49 common/built-in.o
                                      0x1f8aa (size before relaxing)
 .debug_str     0x000000000000abb7      0x721 disk/built-in.o
                                       0x2876 (size before relaxing)
 .debug_str     0x000000000000b2d8     0x54bd drivers/built-in.o
                                      0x33435 (size before relaxing)
 .debug_str     0x0000000000010795      0x42a drivers/gpio/built-in.o
                                       0x26ab (size before relaxing)
 .debug_str     0x0000000000010bbf      0x8c0 drivers/mtd/built-in.o
                                       0x5226 (size before relaxing)
 .debug_str     0x000000000001147f      0xbae drivers/mtd/spi/built-in.o
                                       0x6ffe (size before relaxing)
 .debug_str     0x000000000001202d     0x190b drivers/mtd/ubi/built-in.o
                                      0x160f5 (size before relaxing)
 .debug_str     0x0000000000013938      0xcea drivers/net/built-in.o
                                       0x218b (size before relaxing)
 .debug_str     0x0000000000014622      0x2a6 drivers/net/phy/built-in.o
                                       0x2615 (size before relaxing)
 .debug_str     0x00000000000148c8      0x519 drivers/serial/built-in.o
                                       0x24e9 (size before relaxing)
 .debug_str     0x0000000000014de1      0x7db drivers/spi/built-in.o
                                       0x3eaf (size before relaxing)
 .debug_str     0x00000000000155bc      0x7ba env/built-in.o
                                       0x4d0c (size before relaxing)
 .debug_str     0x0000000000015d76     0x5432 fs/built-in.o
                                      0x4200e (size before relaxing)
 .debug_str     0x000000000001b1a8     0x274e lib/built-in.o
                                      0x13fce (size before relaxing)
 .debug_str     0x000000000001d8f6     0x1401 net/built-in.o
                                       0x9942 (size before relaxing)

.debug_frame    0x0000000000000000    0x136fc
 .debug_frame   0x0000000000000000      0x1f0 arch/arm/cpu/armv7m/built-in.o
 .debug_frame   0x00000000000001f0      0x314 arch/arm/lib/built-in.o
 .debug_frame   0x0000000000000504       0x50 arch/arm/mach-stm32/built-in.o
 .debug_frame   0x0000000000000554       0xd0 board/emcraft/stm32h7-som/built-in.o
 .debug_frame   0x0000000000000624     0x1860 cmd/built-in.o
 .debug_frame   0x0000000000001e84     0x2ecc common/built-in.o
 .debug_frame   0x0000000000004d50      0x5a0 disk/built-in.o
 .debug_frame   0x00000000000052f0     0x31b4 drivers/built-in.o
 .debug_frame   0x00000000000084a4      0x624 drivers/gpio/built-in.o
 .debug_frame   0x0000000000008ac8      0xb00 drivers/mtd/built-in.o
 .debug_frame   0x00000000000095c8      0x628 drivers/mtd/spi/built-in.o
 .debug_frame   0x0000000000009bf0     0x15b0 drivers/mtd/ubi/built-in.o
 .debug_frame   0x000000000000b1a0      0x444 drivers/net/built-in.o
 .debug_frame   0x000000000000b5e4      0x2bc drivers/net/phy/built-in.o
 .debug_frame   0x000000000000b8a0      0x2a4 drivers/serial/built-in.o
 .debug_frame   0x000000000000bb44      0x414 drivers/spi/built-in.o
 .debug_frame   0x000000000000bf58      0x4dc env/built-in.o
 .debug_frame   0x000000000000c434     0x3540 fs/built-in.o
 .debug_frame   0x000000000000f974     0x3094 lib/built-in.o
 .debug_frame   0x0000000000012a08      0xcf4 net/built-in.o

.debug_loc      0x0000000000000000    0xfb679
 .debug_loc     0x0000000000000000      0x4cb arch/arm/cpu/armv7m/built-in.o
 .debug_loc     0x00000000000004cb      0x99a arch/arm/lib/built-in.o
 .debug_loc     0x0000000000000e65       0x95 arch/arm/mach-stm32/built-in.o
 .debug_loc     0x0000000000000efa      0x37b board/emcraft/stm32h7-som/built-in.o
 .debug_loc     0x0000000000001275    0x14bf2 cmd/built-in.o
 .debug_loc     0x0000000000015e67    0x1a060 common/built-in.o
 .debug_loc     0x000000000002fec7     0x36ec disk/built-in.o
 .debug_loc     0x00000000000335b3    0x1a843 drivers/built-in.o
 .debug_loc     0x000000000004ddf6     0x26c1 drivers/gpio/built-in.o
 .debug_loc     0x00000000000504b7     0x51bc drivers/mtd/built-in.o
 .debug_loc     0x0000000000055673     0x43b6 drivers/mtd/spi/built-in.o
 .debug_loc     0x0000000000059a29    0x17bc6 drivers/mtd/ubi/built-in.o
 .debug_loc     0x00000000000715ef     0x27d1 drivers/net/built-in.o
 .debug_loc     0x0000000000073dc0     0x1dbd drivers/net/phy/built-in.o
 .debug_loc     0x0000000000075b7d     0x12b3 drivers/serial/built-in.o
 .debug_loc     0x0000000000076e30     0x2aeb drivers/spi/built-in.o
 .debug_loc     0x000000000007991b     0x2023 env/built-in.o
 .debug_loc     0x000000000007b93e    0x3377b fs/built-in.o
 .debug_loc     0x00000000000af0b9    0x4660c lib/built-in.o
 .debug_loc     0x00000000000f56c5     0x5fb4 net/built-in.o

.debug_ranges   0x0000000000000000    0x17268
 .debug_ranges  0x0000000000000000      0x170 arch/arm/cpu/armv7m/built-in.o
 .debug_ranges  0x0000000000000170      0x240 arch/arm/lib/built-in.o
 .debug_ranges  0x00000000000003b0       0x20 arch/arm/mach-stm32/built-in.o
 .debug_ranges  0x00000000000003d0       0xd0 board/emcraft/stm32h7-som/built-in.o
 .debug_ranges  0x00000000000004a0     0x1a40 cmd/built-in.o
 .debug_ranges  0x0000000000001ee0     0x2580 common/built-in.o
 .debug_ranges  0x0000000000004460      0x578 disk/built-in.o
 .debug_ranges  0x00000000000049d8     0x31b8 drivers/built-in.o
 .debug_ranges  0x0000000000007b90      0x2f8 drivers/gpio/built-in.o
 .debug_ranges  0x0000000000007e88      0x888 drivers/mtd/built-in.o
 .debug_ranges  0x0000000000008710      0x708 drivers/mtd/spi/built-in.o
 .debug_ranges  0x0000000000008e18     0x2f28 drivers/mtd/ubi/built-in.o
 .debug_ranges  0x000000000000bd40      0x2f8 drivers/net/built-in.o
 .debug_ranges  0x000000000000c038      0x498 drivers/net/phy/built-in.o
 .debug_ranges  0x000000000000c4d0      0x248 drivers/serial/built-in.o
 .debug_ranges  0x000000000000c718      0x2e8 drivers/spi/built-in.o
 .debug_ranges  0x000000000000ca00      0x2f8 env/built-in.o
 .debug_ranges  0x000000000000ccf8     0x6438 fs/built-in.o
 .debug_ranges  0x0000000000013130     0x2f90 lib/built-in.o
 .debug_ranges  0x00000000000160c0     0x11a8 net/built-in.o
